
LCD_Module.elf:     file format elf32-littlearm

Sections:
Idx Name          Size      VMA       LMA       File off  Algn
  0 .isr_vector   000001e4  08000000  08000000  00010000  2**0
                  CONTENTS, ALLOC, LOAD, READONLY, DATA
  1 .text         00007668  080001e8  080001e8  000101e8  2**3
                  CONTENTS, ALLOC, LOAD, READONLY, CODE
  2 .rodata       000017fc  08007850  08007850  00017850  2**2
                  CONTENTS, ALLOC, LOAD, READONLY, DATA
  3 .ARM.extab    00000000  0800904c  0800904c  0002000c  2**0
                  CONTENTS
  4 .ARM          00000000  0800904c  0800904c  0002000c  2**0
                  CONTENTS
  5 .preinit_array 00000000  0800904c  0800904c  0002000c  2**0
                  CONTENTS, ALLOC, LOAD, DATA
  6 .init_array   00000004  0800904c  0800904c  0001904c  2**2
                  CONTENTS, ALLOC, LOAD, DATA
  7 .fini_array   00000004  08009050  08009050  00019050  2**2
                  CONTENTS, ALLOC, LOAD, DATA
  8 .data         0000000c  20000000  08009054  00020000  2**2
                  CONTENTS, ALLOC, LOAD, DATA
  9 .bss          00000034  2000000c  08009060  0002000c  2**2
                  ALLOC
 10 ._user_heap_stack 00000600  20000040  08009060  00020040  2**0
                  ALLOC
 11 .ARM.attributes 00000029  00000000  00000000  0002000c  2**0
                  CONTENTS, READONLY
 12 .debug_info   0000527a  00000000  00000000  00020035  2**0
                  CONTENTS, READONLY, DEBUGGING
 13 .debug_abbrev 00001205  00000000  00000000  000252af  2**0
                  CONTENTS, READONLY, DEBUGGING
 14 .debug_aranges 00000518  00000000  00000000  000264b8  2**3
                  CONTENTS, READONLY, DEBUGGING
 15 .debug_ranges 00000470  00000000  00000000  000269d0  2**3
                  CONTENTS, READONLY, DEBUGGING
 16 .debug_macro  000155ff  00000000  00000000  00026e40  2**0
                  CONTENTS, READONLY, DEBUGGING
 17 .debug_line   000057e7  00000000  00000000  0003c43f  2**0
                  CONTENTS, READONLY, DEBUGGING
 18 .debug_str    00076a80  00000000  00000000  00041c26  2**0
                  CONTENTS, READONLY, DEBUGGING
 19 .comment      0000007b  00000000  00000000  000b86a6  2**0
                  CONTENTS, READONLY
 20 .debug_frame  00001398  00000000  00000000  000b8724  2**2
                  CONTENTS, READONLY, DEBUGGING

Disassembly of section .text:

080001e8 <__do_global_dtors_aux>:
 80001e8:	b510      	push	{r4, lr}
 80001ea:	4c05      	ldr	r4, [pc, #20]	; (8000200 <__do_global_dtors_aux+0x18>)
 80001ec:	7823      	ldrb	r3, [r4, #0]
 80001ee:	b933      	cbnz	r3, 80001fe <__do_global_dtors_aux+0x16>
 80001f0:	4b04      	ldr	r3, [pc, #16]	; (8000204 <__do_global_dtors_aux+0x1c>)
 80001f2:	b113      	cbz	r3, 80001fa <__do_global_dtors_aux+0x12>
 80001f4:	4804      	ldr	r0, [pc, #16]	; (8000208 <__do_global_dtors_aux+0x20>)
 80001f6:	f3af 8000 	nop.w
 80001fa:	2301      	movs	r3, #1
 80001fc:	7023      	strb	r3, [r4, #0]
 80001fe:	bd10      	pop	{r4, pc}
 8000200:	2000000c 	.word	0x2000000c
 8000204:	00000000 	.word	0x00000000
 8000208:	08007838 	.word	0x08007838

0800020c <frame_dummy>:
 800020c:	b508      	push	{r3, lr}
 800020e:	4b03      	ldr	r3, [pc, #12]	; (800021c <frame_dummy+0x10>)
 8000210:	b11b      	cbz	r3, 800021a <frame_dummy+0xe>
 8000212:	4903      	ldr	r1, [pc, #12]	; (8000220 <frame_dummy+0x14>)
 8000214:	4803      	ldr	r0, [pc, #12]	; (8000224 <frame_dummy+0x18>)
 8000216:	f3af 8000 	nop.w
 800021a:	bd08      	pop	{r3, pc}
 800021c:	00000000 	.word	0x00000000
 8000220:	20000010 	.word	0x20000010
 8000224:	08007838 	.word	0x08007838

08000228 <__aeabi_drsub>:
 8000228:	f081 4100 	eor.w	r1, r1, #2147483648	; 0x80000000
 800022c:	e002      	b.n	8000234 <__adddf3>
 800022e:	bf00      	nop

08000230 <__aeabi_dsub>:
 8000230:	f083 4300 	eor.w	r3, r3, #2147483648	; 0x80000000

08000234 <__adddf3>:
 8000234:	b530      	push	{r4, r5, lr}
 8000236:	ea4f 0441 	mov.w	r4, r1, lsl #1
 800023a:	ea4f 0543 	mov.w	r5, r3, lsl #1
 800023e:	ea94 0f05 	teq	r4, r5
 8000242:	bf08      	it	eq
 8000244:	ea90 0f02 	teqeq	r0, r2
 8000248:	bf1f      	itttt	ne
 800024a:	ea54 0c00 	orrsne.w	ip, r4, r0
 800024e:	ea55 0c02 	orrsne.w	ip, r5, r2
 8000252:	ea7f 5c64 	mvnsne.w	ip, r4, asr #21
 8000256:	ea7f 5c65 	mvnsne.w	ip, r5, asr #21
 800025a:	f000 80e2 	beq.w	8000422 <__adddf3+0x1ee>
 800025e:	ea4f 5454 	mov.w	r4, r4, lsr #21
 8000262:	ebd4 5555 	rsbs	r5, r4, r5, lsr #21
 8000266:	bfb8      	it	lt
 8000268:	426d      	neglt	r5, r5
 800026a:	dd0c      	ble.n	8000286 <__adddf3+0x52>
 800026c:	442c      	add	r4, r5
 800026e:	ea80 0202 	eor.w	r2, r0, r2
 8000272:	ea81 0303 	eor.w	r3, r1, r3
 8000276:	ea82 0000 	eor.w	r0, r2, r0
 800027a:	ea83 0101 	eor.w	r1, r3, r1
 800027e:	ea80 0202 	eor.w	r2, r0, r2
 8000282:	ea81 0303 	eor.w	r3, r1, r3
 8000286:	2d36      	cmp	r5, #54	; 0x36
 8000288:	bf88      	it	hi
 800028a:	bd30      	pophi	{r4, r5, pc}
 800028c:	f011 4f00 	tst.w	r1, #2147483648	; 0x80000000
 8000290:	ea4f 3101 	mov.w	r1, r1, lsl #12
 8000294:	f44f 1c80 	mov.w	ip, #1048576	; 0x100000
 8000298:	ea4c 3111 	orr.w	r1, ip, r1, lsr #12
 800029c:	d002      	beq.n	80002a4 <__adddf3+0x70>
 800029e:	4240      	negs	r0, r0
 80002a0:	eb61 0141 	sbc.w	r1, r1, r1, lsl #1
 80002a4:	f013 4f00 	tst.w	r3, #2147483648	; 0x80000000
 80002a8:	ea4f 3303 	mov.w	r3, r3, lsl #12
 80002ac:	ea4c 3313 	orr.w	r3, ip, r3, lsr #12
 80002b0:	d002      	beq.n	80002b8 <__adddf3+0x84>
 80002b2:	4252      	negs	r2, r2
 80002b4:	eb63 0343 	sbc.w	r3, r3, r3, lsl #1
 80002b8:	ea94 0f05 	teq	r4, r5
 80002bc:	f000 80a7 	beq.w	800040e <__adddf3+0x1da>
 80002c0:	f1a4 0401 	sub.w	r4, r4, #1
 80002c4:	f1d5 0e20 	rsbs	lr, r5, #32
 80002c8:	db0d      	blt.n	80002e6 <__adddf3+0xb2>
 80002ca:	fa02 fc0e 	lsl.w	ip, r2, lr
 80002ce:	fa22 f205 	lsr.w	r2, r2, r5
 80002d2:	1880      	adds	r0, r0, r2
 80002d4:	f141 0100 	adc.w	r1, r1, #0
 80002d8:	fa03 f20e 	lsl.w	r2, r3, lr
 80002dc:	1880      	adds	r0, r0, r2
 80002de:	fa43 f305 	asr.w	r3, r3, r5
 80002e2:	4159      	adcs	r1, r3
 80002e4:	e00e      	b.n	8000304 <__adddf3+0xd0>
 80002e6:	f1a5 0520 	sub.w	r5, r5, #32
 80002ea:	f10e 0e20 	add.w	lr, lr, #32
 80002ee:	2a01      	cmp	r2, #1
 80002f0:	fa03 fc0e 	lsl.w	ip, r3, lr
 80002f4:	bf28      	it	cs
 80002f6:	f04c 0c02 	orrcs.w	ip, ip, #2
 80002fa:	fa43 f305 	asr.w	r3, r3, r5
 80002fe:	18c0      	adds	r0, r0, r3
 8000300:	eb51 71e3 	adcs.w	r1, r1, r3, asr #31
 8000304:	f001 4500 	and.w	r5, r1, #2147483648	; 0x80000000
 8000308:	d507      	bpl.n	800031a <__adddf3+0xe6>
 800030a:	f04f 0e00 	mov.w	lr, #0
 800030e:	f1dc 0c00 	rsbs	ip, ip, #0
 8000312:	eb7e 0000 	sbcs.w	r0, lr, r0
 8000316:	eb6e 0101 	sbc.w	r1, lr, r1
 800031a:	f5b1 1f80 	cmp.w	r1, #1048576	; 0x100000
 800031e:	d31b      	bcc.n	8000358 <__adddf3+0x124>
 8000320:	f5b1 1f00 	cmp.w	r1, #2097152	; 0x200000
 8000324:	d30c      	bcc.n	8000340 <__adddf3+0x10c>
 8000326:	0849      	lsrs	r1, r1, #1
 8000328:	ea5f 0030 	movs.w	r0, r0, rrx
 800032c:	ea4f 0c3c 	mov.w	ip, ip, rrx
 8000330:	f104 0401 	add.w	r4, r4, #1
 8000334:	ea4f 5244 	mov.w	r2, r4, lsl #21
 8000338:	f512 0f80 	cmn.w	r2, #4194304	; 0x400000
 800033c:	f080 809a 	bcs.w	8000474 <__adddf3+0x240>
 8000340:	f1bc 4f00 	cmp.w	ip, #2147483648	; 0x80000000
 8000344:	bf08      	it	eq
 8000346:	ea5f 0c50 	movseq.w	ip, r0, lsr #1
 800034a:	f150 0000 	adcs.w	r0, r0, #0
 800034e:	eb41 5104 	adc.w	r1, r1, r4, lsl #20
 8000352:	ea41 0105 	orr.w	r1, r1, r5
 8000356:	bd30      	pop	{r4, r5, pc}
 8000358:	ea5f 0c4c 	movs.w	ip, ip, lsl #1
 800035c:	4140      	adcs	r0, r0
 800035e:	eb41 0101 	adc.w	r1, r1, r1
 8000362:	f411 1f80 	tst.w	r1, #1048576	; 0x100000
 8000366:	f1a4 0401 	sub.w	r4, r4, #1
 800036a:	d1e9      	bne.n	8000340 <__adddf3+0x10c>
 800036c:	f091 0f00 	teq	r1, #0
 8000370:	bf04      	itt	eq
 8000372:	4601      	moveq	r1, r0
 8000374:	2000      	moveq	r0, #0
 8000376:	fab1 f381 	clz	r3, r1
 800037a:	bf08      	it	eq
 800037c:	3320      	addeq	r3, #32
 800037e:	f1a3 030b 	sub.w	r3, r3, #11
 8000382:	f1b3 0220 	subs.w	r2, r3, #32
 8000386:	da0c      	bge.n	80003a2 <__adddf3+0x16e>
 8000388:	320c      	adds	r2, #12
 800038a:	dd08      	ble.n	800039e <__adddf3+0x16a>
 800038c:	f102 0c14 	add.w	ip, r2, #20
 8000390:	f1c2 020c 	rsb	r2, r2, #12
 8000394:	fa01 f00c 	lsl.w	r0, r1, ip
 8000398:	fa21 f102 	lsr.w	r1, r1, r2
 800039c:	e00c      	b.n	80003b8 <__adddf3+0x184>
 800039e:	f102 0214 	add.w	r2, r2, #20
 80003a2:	bfd8      	it	le
 80003a4:	f1c2 0c20 	rsble	ip, r2, #32
 80003a8:	fa01 f102 	lsl.w	r1, r1, r2
 80003ac:	fa20 fc0c 	lsr.w	ip, r0, ip
 80003b0:	bfdc      	itt	le
 80003b2:	ea41 010c 	orrle.w	r1, r1, ip
 80003b6:	4090      	lslle	r0, r2
 80003b8:	1ae4      	subs	r4, r4, r3
 80003ba:	bfa2      	ittt	ge
 80003bc:	eb01 5104 	addge.w	r1, r1, r4, lsl #20
 80003c0:	4329      	orrge	r1, r5
 80003c2:	bd30      	popge	{r4, r5, pc}
 80003c4:	ea6f 0404 	mvn.w	r4, r4
 80003c8:	3c1f      	subs	r4, #31
 80003ca:	da1c      	bge.n	8000406 <__adddf3+0x1d2>
 80003cc:	340c      	adds	r4, #12
 80003ce:	dc0e      	bgt.n	80003ee <__adddf3+0x1ba>
 80003d0:	f104 0414 	add.w	r4, r4, #20
 80003d4:	f1c4 0220 	rsb	r2, r4, #32
 80003d8:	fa20 f004 	lsr.w	r0, r0, r4
 80003dc:	fa01 f302 	lsl.w	r3, r1, r2
 80003e0:	ea40 0003 	orr.w	r0, r0, r3
 80003e4:	fa21 f304 	lsr.w	r3, r1, r4
 80003e8:	ea45 0103 	orr.w	r1, r5, r3
 80003ec:	bd30      	pop	{r4, r5, pc}
 80003ee:	f1c4 040c 	rsb	r4, r4, #12
 80003f2:	f1c4 0220 	rsb	r2, r4, #32
 80003f6:	fa20 f002 	lsr.w	r0, r0, r2
 80003fa:	fa01 f304 	lsl.w	r3, r1, r4
 80003fe:	ea40 0003 	orr.w	r0, r0, r3
 8000402:	4629      	mov	r1, r5
 8000404:	bd30      	pop	{r4, r5, pc}
 8000406:	fa21 f004 	lsr.w	r0, r1, r4
 800040a:	4629      	mov	r1, r5
 800040c:	bd30      	pop	{r4, r5, pc}
 800040e:	f094 0f00 	teq	r4, #0
 8000412:	f483 1380 	eor.w	r3, r3, #1048576	; 0x100000
 8000416:	bf06      	itte	eq
 8000418:	f481 1180 	eoreq.w	r1, r1, #1048576	; 0x100000
 800041c:	3401      	addeq	r4, #1
 800041e:	3d01      	subne	r5, #1
 8000420:	e74e      	b.n	80002c0 <__adddf3+0x8c>
 8000422:	ea7f 5c64 	mvns.w	ip, r4, asr #21
 8000426:	bf18      	it	ne
 8000428:	ea7f 5c65 	mvnsne.w	ip, r5, asr #21
 800042c:	d029      	beq.n	8000482 <__adddf3+0x24e>
 800042e:	ea94 0f05 	teq	r4, r5
 8000432:	bf08      	it	eq
 8000434:	ea90 0f02 	teqeq	r0, r2
 8000438:	d005      	beq.n	8000446 <__adddf3+0x212>
 800043a:	ea54 0c00 	orrs.w	ip, r4, r0
 800043e:	bf04      	itt	eq
 8000440:	4619      	moveq	r1, r3
 8000442:	4610      	moveq	r0, r2
 8000444:	bd30      	pop	{r4, r5, pc}
 8000446:	ea91 0f03 	teq	r1, r3
 800044a:	bf1e      	ittt	ne
 800044c:	2100      	movne	r1, #0
 800044e:	2000      	movne	r0, #0
 8000450:	bd30      	popne	{r4, r5, pc}
 8000452:	ea5f 5c54 	movs.w	ip, r4, lsr #21
 8000456:	d105      	bne.n	8000464 <__adddf3+0x230>
 8000458:	0040      	lsls	r0, r0, #1
 800045a:	4149      	adcs	r1, r1
 800045c:	bf28      	it	cs
 800045e:	f041 4100 	orrcs.w	r1, r1, #2147483648	; 0x80000000
 8000462:	bd30      	pop	{r4, r5, pc}
 8000464:	f514 0480 	adds.w	r4, r4, #4194304	; 0x400000
 8000468:	bf3c      	itt	cc
 800046a:	f501 1180 	addcc.w	r1, r1, #1048576	; 0x100000
 800046e:	bd30      	popcc	{r4, r5, pc}
 8000470:	f001 4500 	and.w	r5, r1, #2147483648	; 0x80000000
 8000474:	f045 41fe 	orr.w	r1, r5, #2130706432	; 0x7f000000
 8000478:	f441 0170 	orr.w	r1, r1, #15728640	; 0xf00000
 800047c:	f04f 0000 	mov.w	r0, #0
 8000480:	bd30      	pop	{r4, r5, pc}
 8000482:	ea7f 5c64 	mvns.w	ip, r4, asr #21
 8000486:	bf1a      	itte	ne
 8000488:	4619      	movne	r1, r3
 800048a:	4610      	movne	r0, r2
 800048c:	ea7f 5c65 	mvnseq.w	ip, r5, asr #21
 8000490:	bf1c      	itt	ne
 8000492:	460b      	movne	r3, r1
 8000494:	4602      	movne	r2, r0
 8000496:	ea50 3401 	orrs.w	r4, r0, r1, lsl #12
 800049a:	bf06      	itte	eq
 800049c:	ea52 3503 	orrseq.w	r5, r2, r3, lsl #12
 80004a0:	ea91 0f03 	teqeq	r1, r3
 80004a4:	f441 2100 	orrne.w	r1, r1, #524288	; 0x80000
 80004a8:	bd30      	pop	{r4, r5, pc}
 80004aa:	bf00      	nop

080004ac <__aeabi_ui2d>:
 80004ac:	f090 0f00 	teq	r0, #0
 80004b0:	bf04      	itt	eq
 80004b2:	2100      	moveq	r1, #0
 80004b4:	4770      	bxeq	lr
 80004b6:	b530      	push	{r4, r5, lr}
 80004b8:	f44f 6480 	mov.w	r4, #1024	; 0x400
 80004bc:	f104 0432 	add.w	r4, r4, #50	; 0x32
 80004c0:	f04f 0500 	mov.w	r5, #0
 80004c4:	f04f 0100 	mov.w	r1, #0
 80004c8:	e750      	b.n	800036c <__adddf3+0x138>
 80004ca:	bf00      	nop

080004cc <__aeabi_i2d>:
 80004cc:	f090 0f00 	teq	r0, #0
 80004d0:	bf04      	itt	eq
 80004d2:	2100      	moveq	r1, #0
 80004d4:	4770      	bxeq	lr
 80004d6:	b530      	push	{r4, r5, lr}
 80004d8:	f44f 6480 	mov.w	r4, #1024	; 0x400
 80004dc:	f104 0432 	add.w	r4, r4, #50	; 0x32
 80004e0:	f010 4500 	ands.w	r5, r0, #2147483648	; 0x80000000
 80004e4:	bf48      	it	mi
 80004e6:	4240      	negmi	r0, r0
 80004e8:	f04f 0100 	mov.w	r1, #0
 80004ec:	e73e      	b.n	800036c <__adddf3+0x138>
 80004ee:	bf00      	nop

080004f0 <__aeabi_f2d>:
 80004f0:	0042      	lsls	r2, r0, #1
 80004f2:	ea4f 01e2 	mov.w	r1, r2, asr #3
 80004f6:	ea4f 0131 	mov.w	r1, r1, rrx
 80004fa:	ea4f 7002 	mov.w	r0, r2, lsl #28
 80004fe:	bf1f      	itttt	ne
 8000500:	f012 437f 	andsne.w	r3, r2, #4278190080	; 0xff000000
 8000504:	f093 4f7f 	teqne	r3, #4278190080	; 0xff000000
 8000508:	f081 5160 	eorne.w	r1, r1, #939524096	; 0x38000000
 800050c:	4770      	bxne	lr
 800050e:	f032 427f 	bics.w	r2, r2, #4278190080	; 0xff000000
 8000512:	bf08      	it	eq
 8000514:	4770      	bxeq	lr
 8000516:	f093 4f7f 	teq	r3, #4278190080	; 0xff000000
 800051a:	bf04      	itt	eq
 800051c:	f441 2100 	orreq.w	r1, r1, #524288	; 0x80000
 8000520:	4770      	bxeq	lr
 8000522:	b530      	push	{r4, r5, lr}
 8000524:	f44f 7460 	mov.w	r4, #896	; 0x380
 8000528:	f001 4500 	and.w	r5, r1, #2147483648	; 0x80000000
 800052c:	f021 4100 	bic.w	r1, r1, #2147483648	; 0x80000000
 8000530:	e71c      	b.n	800036c <__adddf3+0x138>
 8000532:	bf00      	nop

08000534 <__aeabi_ul2d>:
 8000534:	ea50 0201 	orrs.w	r2, r0, r1
 8000538:	bf08      	it	eq
 800053a:	4770      	bxeq	lr
 800053c:	b530      	push	{r4, r5, lr}
 800053e:	f04f 0500 	mov.w	r5, #0
 8000542:	e00a      	b.n	800055a <__aeabi_l2d+0x16>

08000544 <__aeabi_l2d>:
 8000544:	ea50 0201 	orrs.w	r2, r0, r1
 8000548:	bf08      	it	eq
 800054a:	4770      	bxeq	lr
 800054c:	b530      	push	{r4, r5, lr}
 800054e:	f011 4500 	ands.w	r5, r1, #2147483648	; 0x80000000
 8000552:	d502      	bpl.n	800055a <__aeabi_l2d+0x16>
 8000554:	4240      	negs	r0, r0
 8000556:	eb61 0141 	sbc.w	r1, r1, r1, lsl #1
 800055a:	f44f 6480 	mov.w	r4, #1024	; 0x400
 800055e:	f104 0432 	add.w	r4, r4, #50	; 0x32
 8000562:	ea5f 5c91 	movs.w	ip, r1, lsr #22
 8000566:	f43f aed8 	beq.w	800031a <__adddf3+0xe6>
 800056a:	f04f 0203 	mov.w	r2, #3
 800056e:	ea5f 0cdc 	movs.w	ip, ip, lsr #3
 8000572:	bf18      	it	ne
 8000574:	3203      	addne	r2, #3
 8000576:	ea5f 0cdc 	movs.w	ip, ip, lsr #3
 800057a:	bf18      	it	ne
 800057c:	3203      	addne	r2, #3
 800057e:	eb02 02dc 	add.w	r2, r2, ip, lsr #3
 8000582:	f1c2 0320 	rsb	r3, r2, #32
 8000586:	fa00 fc03 	lsl.w	ip, r0, r3
 800058a:	fa20 f002 	lsr.w	r0, r0, r2
 800058e:	fa01 fe03 	lsl.w	lr, r1, r3
 8000592:	ea40 000e 	orr.w	r0, r0, lr
 8000596:	fa21 f102 	lsr.w	r1, r1, r2
 800059a:	4414      	add	r4, r2
 800059c:	e6bd      	b.n	800031a <__adddf3+0xe6>
 800059e:	bf00      	nop

080005a0 <__aeabi_dmul>:
 80005a0:	b570      	push	{r4, r5, r6, lr}
 80005a2:	f04f 0cff 	mov.w	ip, #255	; 0xff
 80005a6:	f44c 6ce0 	orr.w	ip, ip, #1792	; 0x700
 80005aa:	ea1c 5411 	ands.w	r4, ip, r1, lsr #20
 80005ae:	bf1d      	ittte	ne
 80005b0:	ea1c 5513 	andsne.w	r5, ip, r3, lsr #20
 80005b4:	ea94 0f0c 	teqne	r4, ip
 80005b8:	ea95 0f0c 	teqne	r5, ip
 80005bc:	f000 f8de 	bleq	800077c <__aeabi_dmul+0x1dc>
 80005c0:	442c      	add	r4, r5
 80005c2:	ea81 0603 	eor.w	r6, r1, r3
 80005c6:	ea21 514c 	bic.w	r1, r1, ip, lsl #21
 80005ca:	ea23 534c 	bic.w	r3, r3, ip, lsl #21
 80005ce:	ea50 3501 	orrs.w	r5, r0, r1, lsl #12
 80005d2:	bf18      	it	ne
 80005d4:	ea52 3503 	orrsne.w	r5, r2, r3, lsl #12
 80005d8:	f441 1180 	orr.w	r1, r1, #1048576	; 0x100000
 80005dc:	f443 1380 	orr.w	r3, r3, #1048576	; 0x100000
 80005e0:	d038      	beq.n	8000654 <__aeabi_dmul+0xb4>
 80005e2:	fba0 ce02 	umull	ip, lr, r0, r2
 80005e6:	f04f 0500 	mov.w	r5, #0
 80005ea:	fbe1 e502 	umlal	lr, r5, r1, r2
 80005ee:	f006 4200 	and.w	r2, r6, #2147483648	; 0x80000000
 80005f2:	fbe0 e503 	umlal	lr, r5, r0, r3
 80005f6:	f04f 0600 	mov.w	r6, #0
 80005fa:	fbe1 5603 	umlal	r5, r6, r1, r3
 80005fe:	f09c 0f00 	teq	ip, #0
 8000602:	bf18      	it	ne
 8000604:	f04e 0e01 	orrne.w	lr, lr, #1
 8000608:	f1a4 04ff 	sub.w	r4, r4, #255	; 0xff
 800060c:	f5b6 7f00 	cmp.w	r6, #512	; 0x200
 8000610:	f564 7440 	sbc.w	r4, r4, #768	; 0x300
 8000614:	d204      	bcs.n	8000620 <__aeabi_dmul+0x80>
 8000616:	ea5f 0e4e 	movs.w	lr, lr, lsl #1
 800061a:	416d      	adcs	r5, r5
 800061c:	eb46 0606 	adc.w	r6, r6, r6
 8000620:	ea42 21c6 	orr.w	r1, r2, r6, lsl #11
 8000624:	ea41 5155 	orr.w	r1, r1, r5, lsr #21
 8000628:	ea4f 20c5 	mov.w	r0, r5, lsl #11
 800062c:	ea40 505e 	orr.w	r0, r0, lr, lsr #21
 8000630:	ea4f 2ece 	mov.w	lr, lr, lsl #11
 8000634:	f1b4 0cfd 	subs.w	ip, r4, #253	; 0xfd
 8000638:	bf88      	it	hi
 800063a:	f5bc 6fe0 	cmphi.w	ip, #1792	; 0x700
 800063e:	d81e      	bhi.n	800067e <__aeabi_dmul+0xde>
 8000640:	f1be 4f00 	cmp.w	lr, #2147483648	; 0x80000000
 8000644:	bf08      	it	eq
 8000646:	ea5f 0e50 	movseq.w	lr, r0, lsr #1
 800064a:	f150 0000 	adcs.w	r0, r0, #0
 800064e:	eb41 5104 	adc.w	r1, r1, r4, lsl #20
 8000652:	bd70      	pop	{r4, r5, r6, pc}
 8000654:	f006 4600 	and.w	r6, r6, #2147483648	; 0x80000000
 8000658:	ea46 0101 	orr.w	r1, r6, r1
 800065c:	ea40 0002 	orr.w	r0, r0, r2
 8000660:	ea81 0103 	eor.w	r1, r1, r3
 8000664:	ebb4 045c 	subs.w	r4, r4, ip, lsr #1
 8000668:	bfc2      	ittt	gt
 800066a:	ebd4 050c 	rsbsgt	r5, r4, ip
 800066e:	ea41 5104 	orrgt.w	r1, r1, r4, lsl #20
 8000672:	bd70      	popgt	{r4, r5, r6, pc}
 8000674:	f441 1180 	orr.w	r1, r1, #1048576	; 0x100000
 8000678:	f04f 0e00 	mov.w	lr, #0
 800067c:	3c01      	subs	r4, #1
 800067e:	f300 80ab 	bgt.w	80007d8 <__aeabi_dmul+0x238>
 8000682:	f114 0f36 	cmn.w	r4, #54	; 0x36
 8000686:	bfde      	ittt	le
 8000688:	2000      	movle	r0, #0
 800068a:	f001 4100 	andle.w	r1, r1, #2147483648	; 0x80000000
 800068e:	bd70      	pople	{r4, r5, r6, pc}
 8000690:	f1c4 0400 	rsb	r4, r4, #0
 8000694:	3c20      	subs	r4, #32
 8000696:	da35      	bge.n	8000704 <__aeabi_dmul+0x164>
 8000698:	340c      	adds	r4, #12
 800069a:	dc1b      	bgt.n	80006d4 <__aeabi_dmul+0x134>
 800069c:	f104 0414 	add.w	r4, r4, #20
 80006a0:	f1c4 0520 	rsb	r5, r4, #32
 80006a4:	fa00 f305 	lsl.w	r3, r0, r5
 80006a8:	fa20 f004 	lsr.w	r0, r0, r4
 80006ac:	fa01 f205 	lsl.w	r2, r1, r5
 80006b0:	ea40 0002 	orr.w	r0, r0, r2
 80006b4:	f001 4200 	and.w	r2, r1, #2147483648	; 0x80000000
 80006b8:	f021 4100 	bic.w	r1, r1, #2147483648	; 0x80000000
 80006bc:	eb10 70d3 	adds.w	r0, r0, r3, lsr #31
 80006c0:	fa21 f604 	lsr.w	r6, r1, r4
 80006c4:	eb42 0106 	adc.w	r1, r2, r6
 80006c8:	ea5e 0e43 	orrs.w	lr, lr, r3, lsl #1
 80006cc:	bf08      	it	eq
 80006ce:	ea20 70d3 	biceq.w	r0, r0, r3, lsr #31
 80006d2:	bd70      	pop	{r4, r5, r6, pc}
 80006d4:	f1c4 040c 	rsb	r4, r4, #12
 80006d8:	f1c4 0520 	rsb	r5, r4, #32
 80006dc:	fa00 f304 	lsl.w	r3, r0, r4
 80006e0:	fa20 f005 	lsr.w	r0, r0, r5
 80006e4:	fa01 f204 	lsl.w	r2, r1, r4
 80006e8:	ea40 0002 	orr.w	r0, r0, r2
 80006ec:	f001 4100 	and.w	r1, r1, #2147483648	; 0x80000000
 80006f0:	eb10 70d3 	adds.w	r0, r0, r3, lsr #31
 80006f4:	f141 0100 	adc.w	r1, r1, #0
 80006f8:	ea5e 0e43 	orrs.w	lr, lr, r3, lsl #1
 80006fc:	bf08      	it	eq
 80006fe:	ea20 70d3 	biceq.w	r0, r0, r3, lsr #31
 8000702:	bd70      	pop	{r4, r5, r6, pc}
 8000704:	f1c4 0520 	rsb	r5, r4, #32
 8000708:	fa00 f205 	lsl.w	r2, r0, r5
 800070c:	ea4e 0e02 	orr.w	lr, lr, r2
 8000710:	fa20 f304 	lsr.w	r3, r0, r4
 8000714:	fa01 f205 	lsl.w	r2, r1, r5
 8000718:	ea43 0302 	orr.w	r3, r3, r2
 800071c:	fa21 f004 	lsr.w	r0, r1, r4
 8000720:	f001 4100 	and.w	r1, r1, #2147483648	; 0x80000000
 8000724:	fa21 f204 	lsr.w	r2, r1, r4
 8000728:	ea20 0002 	bic.w	r0, r0, r2
 800072c:	eb00 70d3 	add.w	r0, r0, r3, lsr #31
 8000730:	ea5e 0e43 	orrs.w	lr, lr, r3, lsl #1
 8000734:	bf08      	it	eq
 8000736:	ea20 70d3 	biceq.w	r0, r0, r3, lsr #31
 800073a:	bd70      	pop	{r4, r5, r6, pc}
 800073c:	f094 0f00 	teq	r4, #0
 8000740:	d10f      	bne.n	8000762 <__aeabi_dmul+0x1c2>
 8000742:	f001 4600 	and.w	r6, r1, #2147483648	; 0x80000000
 8000746:	0040      	lsls	r0, r0, #1
 8000748:	eb41 0101 	adc.w	r1, r1, r1
 800074c:	f411 1f80 	tst.w	r1, #1048576	; 0x100000
 8000750:	bf08      	it	eq
 8000752:	3c01      	subeq	r4, #1
 8000754:	d0f7      	beq.n	8000746 <__aeabi_dmul+0x1a6>
 8000756:	ea41 0106 	orr.w	r1, r1, r6
 800075a:	f095 0f00 	teq	r5, #0
 800075e:	bf18      	it	ne
 8000760:	4770      	bxne	lr
 8000762:	f003 4600 	and.w	r6, r3, #2147483648	; 0x80000000
 8000766:	0052      	lsls	r2, r2, #1
 8000768:	eb43 0303 	adc.w	r3, r3, r3
 800076c:	f413 1f80 	tst.w	r3, #1048576	; 0x100000
 8000770:	bf08      	it	eq
 8000772:	3d01      	subeq	r5, #1
 8000774:	d0f7      	beq.n	8000766 <__aeabi_dmul+0x1c6>
 8000776:	ea43 0306 	orr.w	r3, r3, r6
 800077a:	4770      	bx	lr
 800077c:	ea94 0f0c 	teq	r4, ip
 8000780:	ea0c 5513 	and.w	r5, ip, r3, lsr #20
 8000784:	bf18      	it	ne
 8000786:	ea95 0f0c 	teqne	r5, ip
 800078a:	d00c      	beq.n	80007a6 <__aeabi_dmul+0x206>
 800078c:	ea50 0641 	orrs.w	r6, r0, r1, lsl #1
 8000790:	bf18      	it	ne
 8000792:	ea52 0643 	orrsne.w	r6, r2, r3, lsl #1
 8000796:	d1d1      	bne.n	800073c <__aeabi_dmul+0x19c>
 8000798:	ea81 0103 	eor.w	r1, r1, r3
 800079c:	f001 4100 	and.w	r1, r1, #2147483648	; 0x80000000
 80007a0:	f04f 0000 	mov.w	r0, #0
 80007a4:	bd70      	pop	{r4, r5, r6, pc}
 80007a6:	ea50 0641 	orrs.w	r6, r0, r1, lsl #1
 80007aa:	bf06      	itte	eq
 80007ac:	4610      	moveq	r0, r2
 80007ae:	4619      	moveq	r1, r3
 80007b0:	ea52 0643 	orrsne.w	r6, r2, r3, lsl #1
 80007b4:	d019      	beq.n	80007ea <__aeabi_dmul+0x24a>
 80007b6:	ea94 0f0c 	teq	r4, ip
 80007ba:	d102      	bne.n	80007c2 <__aeabi_dmul+0x222>
 80007bc:	ea50 3601 	orrs.w	r6, r0, r1, lsl #12
 80007c0:	d113      	bne.n	80007ea <__aeabi_dmul+0x24a>
 80007c2:	ea95 0f0c 	teq	r5, ip
 80007c6:	d105      	bne.n	80007d4 <__aeabi_dmul+0x234>
 80007c8:	ea52 3603 	orrs.w	r6, r2, r3, lsl #12
 80007cc:	bf1c      	itt	ne
 80007ce:	4610      	movne	r0, r2
 80007d0:	4619      	movne	r1, r3
 80007d2:	d10a      	bne.n	80007ea <__aeabi_dmul+0x24a>
 80007d4:	ea81 0103 	eor.w	r1, r1, r3
 80007d8:	f001 4100 	and.w	r1, r1, #2147483648	; 0x80000000
 80007dc:	f041 41fe 	orr.w	r1, r1, #2130706432	; 0x7f000000
 80007e0:	f441 0170 	orr.w	r1, r1, #15728640	; 0xf00000
 80007e4:	f04f 0000 	mov.w	r0, #0
 80007e8:	bd70      	pop	{r4, r5, r6, pc}
 80007ea:	f041 41fe 	orr.w	r1, r1, #2130706432	; 0x7f000000
 80007ee:	f441 0178 	orr.w	r1, r1, #16252928	; 0xf80000
 80007f2:	bd70      	pop	{r4, r5, r6, pc}

080007f4 <__aeabi_ddiv>:
 80007f4:	b570      	push	{r4, r5, r6, lr}
 80007f6:	f04f 0cff 	mov.w	ip, #255	; 0xff
 80007fa:	f44c 6ce0 	orr.w	ip, ip, #1792	; 0x700
 80007fe:	ea1c 5411 	ands.w	r4, ip, r1, lsr #20
 8000802:	bf1d      	ittte	ne
 8000804:	ea1c 5513 	andsne.w	r5, ip, r3, lsr #20
 8000808:	ea94 0f0c 	teqne	r4, ip
 800080c:	ea95 0f0c 	teqne	r5, ip
 8000810:	f000 f8a7 	bleq	8000962 <__aeabi_ddiv+0x16e>
 8000814:	eba4 0405 	sub.w	r4, r4, r5
 8000818:	ea81 0e03 	eor.w	lr, r1, r3
 800081c:	ea52 3503 	orrs.w	r5, r2, r3, lsl #12
 8000820:	ea4f 3101 	mov.w	r1, r1, lsl #12
 8000824:	f000 8088 	beq.w	8000938 <__aeabi_ddiv+0x144>
 8000828:	ea4f 3303 	mov.w	r3, r3, lsl #12
 800082c:	f04f 5580 	mov.w	r5, #268435456	; 0x10000000
 8000830:	ea45 1313 	orr.w	r3, r5, r3, lsr #4
 8000834:	ea43 6312 	orr.w	r3, r3, r2, lsr #24
 8000838:	ea4f 2202 	mov.w	r2, r2, lsl #8
 800083c:	ea45 1511 	orr.w	r5, r5, r1, lsr #4
 8000840:	ea45 6510 	orr.w	r5, r5, r0, lsr #24
 8000844:	ea4f 2600 	mov.w	r6, r0, lsl #8
 8000848:	f00e 4100 	and.w	r1, lr, #2147483648	; 0x80000000
 800084c:	429d      	cmp	r5, r3
 800084e:	bf08      	it	eq
 8000850:	4296      	cmpeq	r6, r2
 8000852:	f144 04fd 	adc.w	r4, r4, #253	; 0xfd
 8000856:	f504 7440 	add.w	r4, r4, #768	; 0x300
 800085a:	d202      	bcs.n	8000862 <__aeabi_ddiv+0x6e>
 800085c:	085b      	lsrs	r3, r3, #1
 800085e:	ea4f 0232 	mov.w	r2, r2, rrx
 8000862:	1ab6      	subs	r6, r6, r2
 8000864:	eb65 0503 	sbc.w	r5, r5, r3
 8000868:	085b      	lsrs	r3, r3, #1
 800086a:	ea4f 0232 	mov.w	r2, r2, rrx
 800086e:	f44f 1080 	mov.w	r0, #1048576	; 0x100000
 8000872:	f44f 2c00 	mov.w	ip, #524288	; 0x80000
 8000876:	ebb6 0e02 	subs.w	lr, r6, r2
 800087a:	eb75 0e03 	sbcs.w	lr, r5, r3
 800087e:	bf22      	ittt	cs
 8000880:	1ab6      	subcs	r6, r6, r2
 8000882:	4675      	movcs	r5, lr
 8000884:	ea40 000c 	orrcs.w	r0, r0, ip
 8000888:	085b      	lsrs	r3, r3, #1
 800088a:	ea4f 0232 	mov.w	r2, r2, rrx
 800088e:	ebb6 0e02 	subs.w	lr, r6, r2
 8000892:	eb75 0e03 	sbcs.w	lr, r5, r3
 8000896:	bf22      	ittt	cs
 8000898:	1ab6      	subcs	r6, r6, r2
 800089a:	4675      	movcs	r5, lr
 800089c:	ea40 005c 	orrcs.w	r0, r0, ip, lsr #1
 80008a0:	085b      	lsrs	r3, r3, #1
 80008a2:	ea4f 0232 	mov.w	r2, r2, rrx
 80008a6:	ebb6 0e02 	subs.w	lr, r6, r2
 80008aa:	eb75 0e03 	sbcs.w	lr, r5, r3
 80008ae:	bf22      	ittt	cs
 80008b0:	1ab6      	subcs	r6, r6, r2
 80008b2:	4675      	movcs	r5, lr
 80008b4:	ea40 009c 	orrcs.w	r0, r0, ip, lsr #2
 80008b8:	085b      	lsrs	r3, r3, #1
 80008ba:	ea4f 0232 	mov.w	r2, r2, rrx
 80008be:	ebb6 0e02 	subs.w	lr, r6, r2
 80008c2:	eb75 0e03 	sbcs.w	lr, r5, r3
 80008c6:	bf22      	ittt	cs
 80008c8:	1ab6      	subcs	r6, r6, r2
 80008ca:	4675      	movcs	r5, lr
 80008cc:	ea40 00dc 	orrcs.w	r0, r0, ip, lsr #3
 80008d0:	ea55 0e06 	orrs.w	lr, r5, r6
 80008d4:	d018      	beq.n	8000908 <__aeabi_ddiv+0x114>
 80008d6:	ea4f 1505 	mov.w	r5, r5, lsl #4
 80008da:	ea45 7516 	orr.w	r5, r5, r6, lsr #28
 80008de:	ea4f 1606 	mov.w	r6, r6, lsl #4
 80008e2:	ea4f 03c3 	mov.w	r3, r3, lsl #3
 80008e6:	ea43 7352 	orr.w	r3, r3, r2, lsr #29
 80008ea:	ea4f 02c2 	mov.w	r2, r2, lsl #3
 80008ee:	ea5f 1c1c 	movs.w	ip, ip, lsr #4
 80008f2:	d1c0      	bne.n	8000876 <__aeabi_ddiv+0x82>
 80008f4:	f411 1f80 	tst.w	r1, #1048576	; 0x100000
 80008f8:	d10b      	bne.n	8000912 <__aeabi_ddiv+0x11e>
 80008fa:	ea41 0100 	orr.w	r1, r1, r0
 80008fe:	f04f 0000 	mov.w	r0, #0
 8000902:	f04f 4c00 	mov.w	ip, #2147483648	; 0x80000000
 8000906:	e7b6      	b.n	8000876 <__aeabi_ddiv+0x82>
 8000908:	f411 1f80 	tst.w	r1, #1048576	; 0x100000
 800090c:	bf04      	itt	eq
 800090e:	4301      	orreq	r1, r0
 8000910:	2000      	moveq	r0, #0
 8000912:	f1b4 0cfd 	subs.w	ip, r4, #253	; 0xfd
 8000916:	bf88      	it	hi
 8000918:	f5bc 6fe0 	cmphi.w	ip, #1792	; 0x700
 800091c:	f63f aeaf 	bhi.w	800067e <__aeabi_dmul+0xde>
 8000920:	ebb5 0c03 	subs.w	ip, r5, r3
 8000924:	bf04      	itt	eq
 8000926:	ebb6 0c02 	subseq.w	ip, r6, r2
 800092a:	ea5f 0c50 	movseq.w	ip, r0, lsr #1
 800092e:	f150 0000 	adcs.w	r0, r0, #0
 8000932:	eb41 5104 	adc.w	r1, r1, r4, lsl #20
 8000936:	bd70      	pop	{r4, r5, r6, pc}
 8000938:	f00e 4e00 	and.w	lr, lr, #2147483648	; 0x80000000
 800093c:	ea4e 3111 	orr.w	r1, lr, r1, lsr #12
 8000940:	eb14 045c 	adds.w	r4, r4, ip, lsr #1
 8000944:	bfc2      	ittt	gt
 8000946:	ebd4 050c 	rsbsgt	r5, r4, ip
 800094a:	ea41 5104 	orrgt.w	r1, r1, r4, lsl #20
 800094e:	bd70      	popgt	{r4, r5, r6, pc}
 8000950:	f441 1180 	orr.w	r1, r1, #1048576	; 0x100000
 8000954:	f04f 0e00 	mov.w	lr, #0
 8000958:	3c01      	subs	r4, #1
 800095a:	e690      	b.n	800067e <__aeabi_dmul+0xde>
 800095c:	ea45 0e06 	orr.w	lr, r5, r6
 8000960:	e68d      	b.n	800067e <__aeabi_dmul+0xde>
 8000962:	ea0c 5513 	and.w	r5, ip, r3, lsr #20
 8000966:	ea94 0f0c 	teq	r4, ip
 800096a:	bf08      	it	eq
 800096c:	ea95 0f0c 	teqeq	r5, ip
 8000970:	f43f af3b 	beq.w	80007ea <__aeabi_dmul+0x24a>
 8000974:	ea94 0f0c 	teq	r4, ip
 8000978:	d10a      	bne.n	8000990 <__aeabi_ddiv+0x19c>
 800097a:	ea50 3401 	orrs.w	r4, r0, r1, lsl #12
 800097e:	f47f af34 	bne.w	80007ea <__aeabi_dmul+0x24a>
 8000982:	ea95 0f0c 	teq	r5, ip
 8000986:	f47f af25 	bne.w	80007d4 <__aeabi_dmul+0x234>
 800098a:	4610      	mov	r0, r2
 800098c:	4619      	mov	r1, r3
 800098e:	e72c      	b.n	80007ea <__aeabi_dmul+0x24a>
 8000990:	ea95 0f0c 	teq	r5, ip
 8000994:	d106      	bne.n	80009a4 <__aeabi_ddiv+0x1b0>
 8000996:	ea52 3503 	orrs.w	r5, r2, r3, lsl #12
 800099a:	f43f aefd 	beq.w	8000798 <__aeabi_dmul+0x1f8>
 800099e:	4610      	mov	r0, r2
 80009a0:	4619      	mov	r1, r3
 80009a2:	e722      	b.n	80007ea <__aeabi_dmul+0x24a>
 80009a4:	ea50 0641 	orrs.w	r6, r0, r1, lsl #1
 80009a8:	bf18      	it	ne
 80009aa:	ea52 0643 	orrsne.w	r6, r2, r3, lsl #1
 80009ae:	f47f aec5 	bne.w	800073c <__aeabi_dmul+0x19c>
 80009b2:	ea50 0441 	orrs.w	r4, r0, r1, lsl #1
 80009b6:	f47f af0d 	bne.w	80007d4 <__aeabi_dmul+0x234>
 80009ba:	ea52 0543 	orrs.w	r5, r2, r3, lsl #1
 80009be:	f47f aeeb 	bne.w	8000798 <__aeabi_dmul+0x1f8>
 80009c2:	e712      	b.n	80007ea <__aeabi_dmul+0x24a>

080009c4 <__aeabi_d2uiz>:
 80009c4:	004a      	lsls	r2, r1, #1
 80009c6:	d211      	bcs.n	80009ec <__aeabi_d2uiz+0x28>
 80009c8:	f512 1200 	adds.w	r2, r2, #2097152	; 0x200000
 80009cc:	d211      	bcs.n	80009f2 <__aeabi_d2uiz+0x2e>
 80009ce:	d50d      	bpl.n	80009ec <__aeabi_d2uiz+0x28>
 80009d0:	f46f 7378 	mvn.w	r3, #992	; 0x3e0
 80009d4:	ebb3 5262 	subs.w	r2, r3, r2, asr #21
 80009d8:	d40e      	bmi.n	80009f8 <__aeabi_d2uiz+0x34>
 80009da:	ea4f 23c1 	mov.w	r3, r1, lsl #11
 80009de:	f043 4300 	orr.w	r3, r3, #2147483648	; 0x80000000
 80009e2:	ea43 5350 	orr.w	r3, r3, r0, lsr #21
 80009e6:	fa23 f002 	lsr.w	r0, r3, r2
 80009ea:	4770      	bx	lr
 80009ec:	f04f 0000 	mov.w	r0, #0
 80009f0:	4770      	bx	lr
 80009f2:	ea50 3001 	orrs.w	r0, r0, r1, lsl #12
 80009f6:	d102      	bne.n	80009fe <__aeabi_d2uiz+0x3a>
 80009f8:	f04f 30ff 	mov.w	r0, #4294967295
 80009fc:	4770      	bx	lr
 80009fe:	f04f 0000 	mov.w	r0, #0
 8000a02:	4770      	bx	lr

08000a04 <HAL_Init>:
 8000a04:	b580      	push	{r7, lr}
 8000a06:	af00      	add	r7, sp, #0
 8000a08:	4b08      	ldr	r3, [pc, #32]	; (8000a2c <HAL_Init+0x28>)
 8000a0a:	681b      	ldr	r3, [r3, #0]
 8000a0c:	4a07      	ldr	r2, [pc, #28]	; (8000a2c <HAL_Init+0x28>)
 8000a0e:	f043 0310 	orr.w	r3, r3, #16
 8000a12:	6013      	str	r3, [r2, #0]
 8000a14:	2003      	movs	r0, #3
 8000a16:	f000 f945 	bl	8000ca4 <HAL_NVIC_SetPriorityGrouping>
 8000a1a:	2000      	movs	r0, #0
 8000a1c:	f000 f808 	bl	8000a30 <HAL_InitTick>
 8000a20:	f006 fe10 	bl	8007644 <HAL_MspInit>
 8000a24:	2300      	movs	r3, #0
 8000a26:	4618      	mov	r0, r3
 8000a28:	bd80      	pop	{r7, pc}
 8000a2a:	bf00      	nop
 8000a2c:	40022000 	.word	0x40022000

08000a30 <HAL_InitTick>:
 8000a30:	b580      	push	{r7, lr}
 8000a32:	b082      	sub	sp, #8
 8000a34:	af00      	add	r7, sp, #0
 8000a36:	6078      	str	r0, [r7, #4]
 8000a38:	4b12      	ldr	r3, [pc, #72]	; (8000a84 <HAL_InitTick+0x54>)
 8000a3a:	681a      	ldr	r2, [r3, #0]
 8000a3c:	4b12      	ldr	r3, [pc, #72]	; (8000a88 <HAL_InitTick+0x58>)
 8000a3e:	781b      	ldrb	r3, [r3, #0]
 8000a40:	4619      	mov	r1, r3
 8000a42:	f44f 737a 	mov.w	r3, #1000	; 0x3e8
 8000a46:	fbb3 f3f1 	udiv	r3, r3, r1
 8000a4a:	fbb2 f3f3 	udiv	r3, r2, r3
 8000a4e:	4618      	mov	r0, r3
 8000a50:	f000 f95d 	bl	8000d0e <HAL_SYSTICK_Config>
 8000a54:	4603      	mov	r3, r0
 8000a56:	2b00      	cmp	r3, #0
 8000a58:	d001      	beq.n	8000a5e <HAL_InitTick+0x2e>
 8000a5a:	2301      	movs	r3, #1
 8000a5c:	e00e      	b.n	8000a7c <HAL_InitTick+0x4c>
 8000a5e:	687b      	ldr	r3, [r7, #4]
 8000a60:	2b0f      	cmp	r3, #15
 8000a62:	d80a      	bhi.n	8000a7a <HAL_InitTick+0x4a>
 8000a64:	2200      	movs	r2, #0
 8000a66:	6879      	ldr	r1, [r7, #4]
 8000a68:	f04f 30ff 	mov.w	r0, #4294967295
 8000a6c:	f000 f925 	bl	8000cba <HAL_NVIC_SetPriority>
 8000a70:	4a06      	ldr	r2, [pc, #24]	; (8000a8c <HAL_InitTick+0x5c>)
 8000a72:	687b      	ldr	r3, [r7, #4]
 8000a74:	6013      	str	r3, [r2, #0]
 8000a76:	2300      	movs	r3, #0
 8000a78:	e000      	b.n	8000a7c <HAL_InitTick+0x4c>
 8000a7a:	2301      	movs	r3, #1
 8000a7c:	4618      	mov	r0, r3
 8000a7e:	3708      	adds	r7, #8
 8000a80:	46bd      	mov	sp, r7
 8000a82:	bd80      	pop	{r7, pc}
 8000a84:	20000008 	.word	0x20000008
 8000a88:	20000004 	.word	0x20000004
 8000a8c:	20000000 	.word	0x20000000

08000a90 <HAL_IncTick>:
 8000a90:	b480      	push	{r7}
 8000a92:	af00      	add	r7, sp, #0
 8000a94:	4b05      	ldr	r3, [pc, #20]	; (8000aac <HAL_IncTick+0x1c>)
 8000a96:	781b      	ldrb	r3, [r3, #0]
 8000a98:	461a      	mov	r2, r3
 8000a9a:	4b05      	ldr	r3, [pc, #20]	; (8000ab0 <HAL_IncTick+0x20>)
 8000a9c:	681b      	ldr	r3, [r3, #0]
 8000a9e:	4413      	add	r3, r2
 8000aa0:	4a03      	ldr	r2, [pc, #12]	; (8000ab0 <HAL_IncTick+0x20>)
 8000aa2:	6013      	str	r3, [r2, #0]
 8000aa4:	bf00      	nop
 8000aa6:	46bd      	mov	sp, r7
 8000aa8:	bc80      	pop	{r7}
 8000aaa:	4770      	bx	lr
 8000aac:	20000004 	.word	0x20000004
 8000ab0:	2000002c 	.word	0x2000002c

08000ab4 <HAL_GetTick>:
 8000ab4:	b480      	push	{r7}
 8000ab6:	af00      	add	r7, sp, #0
 8000ab8:	4b02      	ldr	r3, [pc, #8]	; (8000ac4 <HAL_GetTick+0x10>)
 8000aba:	681b      	ldr	r3, [r3, #0]
 8000abc:	4618      	mov	r0, r3
 8000abe:	46bd      	mov	sp, r7
 8000ac0:	bc80      	pop	{r7}
 8000ac2:	4770      	bx	lr
 8000ac4:	2000002c 	.word	0x2000002c

08000ac8 <HAL_Delay>:
 8000ac8:	b580      	push	{r7, lr}
 8000aca:	b084      	sub	sp, #16
 8000acc:	af00      	add	r7, sp, #0
 8000ace:	6078      	str	r0, [r7, #4]
 8000ad0:	f7ff fff0 	bl	8000ab4 <HAL_GetTick>
 8000ad4:	60b8      	str	r0, [r7, #8]
 8000ad6:	687b      	ldr	r3, [r7, #4]
 8000ad8:	60fb      	str	r3, [r7, #12]
 8000ada:	68fb      	ldr	r3, [r7, #12]
 8000adc:	f1b3 3fff 	cmp.w	r3, #4294967295
 8000ae0:	d005      	beq.n	8000aee <HAL_Delay+0x26>
 8000ae2:	4b09      	ldr	r3, [pc, #36]	; (8000b08 <HAL_Delay+0x40>)
 8000ae4:	781b      	ldrb	r3, [r3, #0]
 8000ae6:	461a      	mov	r2, r3
 8000ae8:	68fb      	ldr	r3, [r7, #12]
 8000aea:	4413      	add	r3, r2
 8000aec:	60fb      	str	r3, [r7, #12]
 8000aee:	bf00      	nop
 8000af0:	f7ff ffe0 	bl	8000ab4 <HAL_GetTick>
 8000af4:	4602      	mov	r2, r0
 8000af6:	68bb      	ldr	r3, [r7, #8]
 8000af8:	1ad3      	subs	r3, r2, r3
 8000afa:	68fa      	ldr	r2, [r7, #12]
 8000afc:	429a      	cmp	r2, r3
 8000afe:	d8f7      	bhi.n	8000af0 <HAL_Delay+0x28>
 8000b00:	bf00      	nop
 8000b02:	3710      	adds	r7, #16
 8000b04:	46bd      	mov	sp, r7
 8000b06:	bd80      	pop	{r7, pc}
 8000b08:	20000004 	.word	0x20000004

08000b0c <__NVIC_SetPriorityGrouping>:
 8000b0c:	b480      	push	{r7}
 8000b0e:	b085      	sub	sp, #20
 8000b10:	af00      	add	r7, sp, #0
 8000b12:	6078      	str	r0, [r7, #4]
 8000b14:	687b      	ldr	r3, [r7, #4]
 8000b16:	f003 0307 	and.w	r3, r3, #7
 8000b1a:	60fb      	str	r3, [r7, #12]
 8000b1c:	4b0c      	ldr	r3, [pc, #48]	; (8000b50 <__NVIC_SetPriorityGrouping+0x44>)
 8000b1e:	68db      	ldr	r3, [r3, #12]
 8000b20:	60bb      	str	r3, [r7, #8]
 8000b22:	68ba      	ldr	r2, [r7, #8]
 8000b24:	f64f 03ff 	movw	r3, #63743	; 0xf8ff
 8000b28:	4013      	ands	r3, r2
 8000b2a:	60bb      	str	r3, [r7, #8]
 8000b2c:	68fb      	ldr	r3, [r7, #12]
 8000b2e:	021a      	lsls	r2, r3, #8
 8000b30:	68bb      	ldr	r3, [r7, #8]
 8000b32:	4313      	orrs	r3, r2
 8000b34:	f043 63bf 	orr.w	r3, r3, #100139008	; 0x5f80000
 8000b38:	f443 3300 	orr.w	r3, r3, #131072	; 0x20000
 8000b3c:	60bb      	str	r3, [r7, #8]
 8000b3e:	4a04      	ldr	r2, [pc, #16]	; (8000b50 <__NVIC_SetPriorityGrouping+0x44>)
 8000b40:	68bb      	ldr	r3, [r7, #8]
 8000b42:	60d3      	str	r3, [r2, #12]
 8000b44:	bf00      	nop
 8000b46:	3714      	adds	r7, #20
 8000b48:	46bd      	mov	sp, r7
 8000b4a:	bc80      	pop	{r7}
 8000b4c:	4770      	bx	lr
 8000b4e:	bf00      	nop
 8000b50:	e000ed00 	.word	0xe000ed00

08000b54 <__NVIC_GetPriorityGrouping>:
 8000b54:	b480      	push	{r7}
 8000b56:	af00      	add	r7, sp, #0
 8000b58:	4b04      	ldr	r3, [pc, #16]	; (8000b6c <__NVIC_GetPriorityGrouping+0x18>)
 8000b5a:	68db      	ldr	r3, [r3, #12]
 8000b5c:	0a1b      	lsrs	r3, r3, #8
 8000b5e:	f003 0307 	and.w	r3, r3, #7
 8000b62:	4618      	mov	r0, r3
 8000b64:	46bd      	mov	sp, r7
 8000b66:	bc80      	pop	{r7}
 8000b68:	4770      	bx	lr
 8000b6a:	bf00      	nop
 8000b6c:	e000ed00 	.word	0xe000ed00

08000b70 <__NVIC_EnableIRQ>:
 8000b70:	b480      	push	{r7}
 8000b72:	b083      	sub	sp, #12
 8000b74:	af00      	add	r7, sp, #0
 8000b76:	4603      	mov	r3, r0
 8000b78:	71fb      	strb	r3, [r7, #7]
 8000b7a:	f997 3007 	ldrsb.w	r3, [r7, #7]
 8000b7e:	2b00      	cmp	r3, #0
 8000b80:	db0b      	blt.n	8000b9a <__NVIC_EnableIRQ+0x2a>
 8000b82:	79fb      	ldrb	r3, [r7, #7]
 8000b84:	f003 021f 	and.w	r2, r3, #31
 8000b88:	4906      	ldr	r1, [pc, #24]	; (8000ba4 <__NVIC_EnableIRQ+0x34>)
 8000b8a:	f997 3007 	ldrsb.w	r3, [r7, #7]
 8000b8e:	095b      	lsrs	r3, r3, #5
 8000b90:	2001      	movs	r0, #1
 8000b92:	fa00 f202 	lsl.w	r2, r0, r2
 8000b96:	f841 2023 	str.w	r2, [r1, r3, lsl #2]
 8000b9a:	bf00      	nop
 8000b9c:	370c      	adds	r7, #12
 8000b9e:	46bd      	mov	sp, r7
 8000ba0:	bc80      	pop	{r7}
 8000ba2:	4770      	bx	lr
 8000ba4:	e000e100 	.word	0xe000e100

08000ba8 <__NVIC_SetPriority>:
 8000ba8:	b480      	push	{r7}
 8000baa:	b083      	sub	sp, #12
 8000bac:	af00      	add	r7, sp, #0
 8000bae:	4603      	mov	r3, r0
 8000bb0:	6039      	str	r1, [r7, #0]
 8000bb2:	71fb      	strb	r3, [r7, #7]
 8000bb4:	f997 3007 	ldrsb.w	r3, [r7, #7]
 8000bb8:	2b00      	cmp	r3, #0
 8000bba:	db0a      	blt.n	8000bd2 <__NVIC_SetPriority+0x2a>
 8000bbc:	683b      	ldr	r3, [r7, #0]
 8000bbe:	b2da      	uxtb	r2, r3
 8000bc0:	490c      	ldr	r1, [pc, #48]	; (8000bf4 <__NVIC_SetPriority+0x4c>)
 8000bc2:	f997 3007 	ldrsb.w	r3, [r7, #7]
 8000bc6:	0112      	lsls	r2, r2, #4
 8000bc8:	b2d2      	uxtb	r2, r2
 8000bca:	440b      	add	r3, r1
 8000bcc:	f883 2300 	strb.w	r2, [r3, #768]	; 0x300
 8000bd0:	e00a      	b.n	8000be8 <__NVIC_SetPriority+0x40>
 8000bd2:	683b      	ldr	r3, [r7, #0]
 8000bd4:	b2da      	uxtb	r2, r3
 8000bd6:	4908      	ldr	r1, [pc, #32]	; (8000bf8 <__NVIC_SetPriority+0x50>)
 8000bd8:	79fb      	ldrb	r3, [r7, #7]
 8000bda:	f003 030f 	and.w	r3, r3, #15
 8000bde:	3b04      	subs	r3, #4
 8000be0:	0112      	lsls	r2, r2, #4
 8000be2:	b2d2      	uxtb	r2, r2
 8000be4:	440b      	add	r3, r1
 8000be6:	761a      	strb	r2, [r3, #24]
 8000be8:	bf00      	nop
 8000bea:	370c      	adds	r7, #12
 8000bec:	46bd      	mov	sp, r7
 8000bee:	bc80      	pop	{r7}
 8000bf0:	4770      	bx	lr
 8000bf2:	bf00      	nop
 8000bf4:	e000e100 	.word	0xe000e100
 8000bf8:	e000ed00 	.word	0xe000ed00

08000bfc <NVIC_EncodePriority>:
 8000bfc:	b480      	push	{r7}
 8000bfe:	b089      	sub	sp, #36	; 0x24
 8000c00:	af00      	add	r7, sp, #0
 8000c02:	60f8      	str	r0, [r7, #12]
 8000c04:	60b9      	str	r1, [r7, #8]
 8000c06:	607a      	str	r2, [r7, #4]
 8000c08:	68fb      	ldr	r3, [r7, #12]
 8000c0a:	f003 0307 	and.w	r3, r3, #7
 8000c0e:	61fb      	str	r3, [r7, #28]
 8000c10:	69fb      	ldr	r3, [r7, #28]
 8000c12:	f1c3 0307 	rsb	r3, r3, #7
 8000c16:	2b04      	cmp	r3, #4
 8000c18:	bf28      	it	cs
 8000c1a:	2304      	movcs	r3, #4
 8000c1c:	61bb      	str	r3, [r7, #24]
 8000c1e:	69fb      	ldr	r3, [r7, #28]
 8000c20:	3304      	adds	r3, #4
 8000c22:	2b06      	cmp	r3, #6
 8000c24:	d902      	bls.n	8000c2c <NVIC_EncodePriority+0x30>
 8000c26:	69fb      	ldr	r3, [r7, #28]
 8000c28:	3b03      	subs	r3, #3
 8000c2a:	e000      	b.n	8000c2e <NVIC_EncodePriority+0x32>
 8000c2c:	2300      	movs	r3, #0
 8000c2e:	617b      	str	r3, [r7, #20]
 8000c30:	f04f 32ff 	mov.w	r2, #4294967295
 8000c34:	69bb      	ldr	r3, [r7, #24]
 8000c36:	fa02 f303 	lsl.w	r3, r2, r3
 8000c3a:	43da      	mvns	r2, r3
 8000c3c:	68bb      	ldr	r3, [r7, #8]
 8000c3e:	401a      	ands	r2, r3
 8000c40:	697b      	ldr	r3, [r7, #20]
 8000c42:	409a      	lsls	r2, r3
 8000c44:	f04f 31ff 	mov.w	r1, #4294967295
 8000c48:	697b      	ldr	r3, [r7, #20]
 8000c4a:	fa01 f303 	lsl.w	r3, r1, r3
 8000c4e:	43d9      	mvns	r1, r3
 8000c50:	687b      	ldr	r3, [r7, #4]
 8000c52:	400b      	ands	r3, r1
 8000c54:	4313      	orrs	r3, r2
 8000c56:	4618      	mov	r0, r3
 8000c58:	3724      	adds	r7, #36	; 0x24
 8000c5a:	46bd      	mov	sp, r7
 8000c5c:	bc80      	pop	{r7}
 8000c5e:	4770      	bx	lr

08000c60 <SysTick_Config>:
 8000c60:	b580      	push	{r7, lr}
 8000c62:	b082      	sub	sp, #8
 8000c64:	af00      	add	r7, sp, #0
 8000c66:	6078      	str	r0, [r7, #4]
 8000c68:	687b      	ldr	r3, [r7, #4]
 8000c6a:	3b01      	subs	r3, #1
 8000c6c:	f1b3 7f80 	cmp.w	r3, #16777216	; 0x1000000
 8000c70:	d301      	bcc.n	8000c76 <SysTick_Config+0x16>
 8000c72:	2301      	movs	r3, #1
 8000c74:	e00f      	b.n	8000c96 <SysTick_Config+0x36>
 8000c76:	4a0a      	ldr	r2, [pc, #40]	; (8000ca0 <SysTick_Config+0x40>)
 8000c78:	687b      	ldr	r3, [r7, #4]
 8000c7a:	3b01      	subs	r3, #1
 8000c7c:	6053      	str	r3, [r2, #4]
 8000c7e:	210f      	movs	r1, #15
 8000c80:	f04f 30ff 	mov.w	r0, #4294967295
 8000c84:	f7ff ff90 	bl	8000ba8 <__NVIC_SetPriority>
 8000c88:	4b05      	ldr	r3, [pc, #20]	; (8000ca0 <SysTick_Config+0x40>)
 8000c8a:	2200      	movs	r2, #0
 8000c8c:	609a      	str	r2, [r3, #8]
 8000c8e:	4b04      	ldr	r3, [pc, #16]	; (8000ca0 <SysTick_Config+0x40>)
 8000c90:	2207      	movs	r2, #7
 8000c92:	601a      	str	r2, [r3, #0]
 8000c94:	2300      	movs	r3, #0
 8000c96:	4618      	mov	r0, r3
 8000c98:	3708      	adds	r7, #8
 8000c9a:	46bd      	mov	sp, r7
 8000c9c:	bd80      	pop	{r7, pc}
 8000c9e:	bf00      	nop
 8000ca0:	e000e010 	.word	0xe000e010

08000ca4 <HAL_NVIC_SetPriorityGrouping>:
 8000ca4:	b580      	push	{r7, lr}
 8000ca6:	b082      	sub	sp, #8
 8000ca8:	af00      	add	r7, sp, #0
 8000caa:	6078      	str	r0, [r7, #4]
 8000cac:	6878      	ldr	r0, [r7, #4]
 8000cae:	f7ff ff2d 	bl	8000b0c <__NVIC_SetPriorityGrouping>
 8000cb2:	bf00      	nop
 8000cb4:	3708      	adds	r7, #8
 8000cb6:	46bd      	mov	sp, r7
 8000cb8:	bd80      	pop	{r7, pc}

08000cba <HAL_NVIC_SetPriority>:
 8000cba:	b580      	push	{r7, lr}
 8000cbc:	b086      	sub	sp, #24
 8000cbe:	af00      	add	r7, sp, #0
 8000cc0:	4603      	mov	r3, r0
 8000cc2:	60b9      	str	r1, [r7, #8]
 8000cc4:	607a      	str	r2, [r7, #4]
 8000cc6:	73fb      	strb	r3, [r7, #15]
 8000cc8:	2300      	movs	r3, #0
 8000cca:	617b      	str	r3, [r7, #20]
 8000ccc:	f7ff ff42 	bl	8000b54 <__NVIC_GetPriorityGrouping>
 8000cd0:	6178      	str	r0, [r7, #20]
 8000cd2:	687a      	ldr	r2, [r7, #4]
 8000cd4:	68b9      	ldr	r1, [r7, #8]
 8000cd6:	6978      	ldr	r0, [r7, #20]
 8000cd8:	f7ff ff90 	bl	8000bfc <NVIC_EncodePriority>
 8000cdc:	4602      	mov	r2, r0
 8000cde:	f997 300f 	ldrsb.w	r3, [r7, #15]
 8000ce2:	4611      	mov	r1, r2
 8000ce4:	4618      	mov	r0, r3
 8000ce6:	f7ff ff5f 	bl	8000ba8 <__NVIC_SetPriority>
 8000cea:	bf00      	nop
 8000cec:	3718      	adds	r7, #24
 8000cee:	46bd      	mov	sp, r7
 8000cf0:	bd80      	pop	{r7, pc}

08000cf2 <HAL_NVIC_EnableIRQ>:
 8000cf2:	b580      	push	{r7, lr}
 8000cf4:	b082      	sub	sp, #8
 8000cf6:	af00      	add	r7, sp, #0
 8000cf8:	4603      	mov	r3, r0
 8000cfa:	71fb      	strb	r3, [r7, #7]
 8000cfc:	f997 3007 	ldrsb.w	r3, [r7, #7]
 8000d00:	4618      	mov	r0, r3
 8000d02:	f7ff ff35 	bl	8000b70 <__NVIC_EnableIRQ>
 8000d06:	bf00      	nop
 8000d08:	3708      	adds	r7, #8
 8000d0a:	46bd      	mov	sp, r7
 8000d0c:	bd80      	pop	{r7, pc}

08000d0e <HAL_SYSTICK_Config>:
 8000d0e:	b580      	push	{r7, lr}
 8000d10:	b082      	sub	sp, #8
 8000d12:	af00      	add	r7, sp, #0
 8000d14:	6078      	str	r0, [r7, #4]
 8000d16:	6878      	ldr	r0, [r7, #4]
 8000d18:	f7ff ffa2 	bl	8000c60 <SysTick_Config>
 8000d1c:	4603      	mov	r3, r0
 8000d1e:	4618      	mov	r0, r3
 8000d20:	3708      	adds	r7, #8
 8000d22:	46bd      	mov	sp, r7
 8000d24:	bd80      	pop	{r7, pc}
	...

08000d28 <HAL_GPIO_Init>:
 8000d28:	b480      	push	{r7}
 8000d2a:	b08b      	sub	sp, #44	; 0x2c
 8000d2c:	af00      	add	r7, sp, #0
 8000d2e:	6078      	str	r0, [r7, #4]
 8000d30:	6039      	str	r1, [r7, #0]
 8000d32:	2300      	movs	r3, #0
 8000d34:	627b      	str	r3, [r7, #36]	; 0x24
 8000d36:	2300      	movs	r3, #0
 8000d38:	623b      	str	r3, [r7, #32]
 8000d3a:	e133      	b.n	8000fa4 <HAL_GPIO_Init+0x27c>
 8000d3c:	2201      	movs	r2, #1
 8000d3e:	6a7b      	ldr	r3, [r7, #36]	; 0x24
 8000d40:	fa02 f303 	lsl.w	r3, r2, r3
 8000d44:	61fb      	str	r3, [r7, #28]
 8000d46:	683b      	ldr	r3, [r7, #0]
 8000d48:	681b      	ldr	r3, [r3, #0]
 8000d4a:	69fa      	ldr	r2, [r7, #28]
 8000d4c:	4013      	ands	r3, r2
 8000d4e:	61bb      	str	r3, [r7, #24]
 8000d50:	69ba      	ldr	r2, [r7, #24]
 8000d52:	69fb      	ldr	r3, [r7, #28]
 8000d54:	429a      	cmp	r2, r3
 8000d56:	f040 8122 	bne.w	8000f9e <HAL_GPIO_Init+0x276>
 8000d5a:	683b      	ldr	r3, [r7, #0]
 8000d5c:	685b      	ldr	r3, [r3, #4]
 8000d5e:	2b12      	cmp	r3, #18
 8000d60:	d034      	beq.n	8000dcc <HAL_GPIO_Init+0xa4>
 8000d62:	2b12      	cmp	r3, #18
 8000d64:	d80d      	bhi.n	8000d82 <HAL_GPIO_Init+0x5a>
 8000d66:	2b02      	cmp	r3, #2
 8000d68:	d02b      	beq.n	8000dc2 <HAL_GPIO_Init+0x9a>
 8000d6a:	2b02      	cmp	r3, #2
 8000d6c:	d804      	bhi.n	8000d78 <HAL_GPIO_Init+0x50>
 8000d6e:	2b00      	cmp	r3, #0
 8000d70:	d031      	beq.n	8000dd6 <HAL_GPIO_Init+0xae>
 8000d72:	2b01      	cmp	r3, #1
 8000d74:	d01c      	beq.n	8000db0 <HAL_GPIO_Init+0x88>
 8000d76:	e048      	b.n	8000e0a <HAL_GPIO_Init+0xe2>
 8000d78:	2b03      	cmp	r3, #3
 8000d7a:	d043      	beq.n	8000e04 <HAL_GPIO_Init+0xdc>
 8000d7c:	2b11      	cmp	r3, #17
 8000d7e:	d01b      	beq.n	8000db8 <HAL_GPIO_Init+0x90>
 8000d80:	e043      	b.n	8000e0a <HAL_GPIO_Init+0xe2>
 8000d82:	4a8f      	ldr	r2, [pc, #572]	; (8000fc0 <HAL_GPIO_Init+0x298>)
 8000d84:	4293      	cmp	r3, r2
 8000d86:	d026      	beq.n	8000dd6 <HAL_GPIO_Init+0xae>
 8000d88:	4a8d      	ldr	r2, [pc, #564]	; (8000fc0 <HAL_GPIO_Init+0x298>)
 8000d8a:	4293      	cmp	r3, r2
 8000d8c:	d806      	bhi.n	8000d9c <HAL_GPIO_Init+0x74>
 8000d8e:	4a8d      	ldr	r2, [pc, #564]	; (8000fc4 <HAL_GPIO_Init+0x29c>)
 8000d90:	4293      	cmp	r3, r2
 8000d92:	d020      	beq.n	8000dd6 <HAL_GPIO_Init+0xae>
 8000d94:	4a8c      	ldr	r2, [pc, #560]	; (8000fc8 <HAL_GPIO_Init+0x2a0>)
 8000d96:	4293      	cmp	r3, r2
 8000d98:	d01d      	beq.n	8000dd6 <HAL_GPIO_Init+0xae>
 8000d9a:	e036      	b.n	8000e0a <HAL_GPIO_Init+0xe2>
 8000d9c:	4a8b      	ldr	r2, [pc, #556]	; (8000fcc <HAL_GPIO_Init+0x2a4>)
 8000d9e:	4293      	cmp	r3, r2
 8000da0:	d019      	beq.n	8000dd6 <HAL_GPIO_Init+0xae>
 8000da2:	4a8b      	ldr	r2, [pc, #556]	; (8000fd0 <HAL_GPIO_Init+0x2a8>)
 8000da4:	4293      	cmp	r3, r2
 8000da6:	d016      	beq.n	8000dd6 <HAL_GPIO_Init+0xae>
 8000da8:	4a8a      	ldr	r2, [pc, #552]	; (8000fd4 <HAL_GPIO_Init+0x2ac>)
 8000daa:	4293      	cmp	r3, r2
 8000dac:	d013      	beq.n	8000dd6 <HAL_GPIO_Init+0xae>
 8000dae:	e02c      	b.n	8000e0a <HAL_GPIO_Init+0xe2>
 8000db0:	683b      	ldr	r3, [r7, #0]
 8000db2:	68db      	ldr	r3, [r3, #12]
 8000db4:	623b      	str	r3, [r7, #32]
 8000db6:	e028      	b.n	8000e0a <HAL_GPIO_Init+0xe2>
 8000db8:	683b      	ldr	r3, [r7, #0]
 8000dba:	68db      	ldr	r3, [r3, #12]
 8000dbc:	3304      	adds	r3, #4
 8000dbe:	623b      	str	r3, [r7, #32]
 8000dc0:	e023      	b.n	8000e0a <HAL_GPIO_Init+0xe2>
 8000dc2:	683b      	ldr	r3, [r7, #0]
 8000dc4:	68db      	ldr	r3, [r3, #12]
 8000dc6:	3308      	adds	r3, #8
 8000dc8:	623b      	str	r3, [r7, #32]
 8000dca:	e01e      	b.n	8000e0a <HAL_GPIO_Init+0xe2>
 8000dcc:	683b      	ldr	r3, [r7, #0]
 8000dce:	68db      	ldr	r3, [r3, #12]
 8000dd0:	330c      	adds	r3, #12
 8000dd2:	623b      	str	r3, [r7, #32]
 8000dd4:	e019      	b.n	8000e0a <HAL_GPIO_Init+0xe2>
 8000dd6:	683b      	ldr	r3, [r7, #0]
 8000dd8:	689b      	ldr	r3, [r3, #8]
 8000dda:	2b00      	cmp	r3, #0
 8000ddc:	d102      	bne.n	8000de4 <HAL_GPIO_Init+0xbc>
 8000dde:	2304      	movs	r3, #4
 8000de0:	623b      	str	r3, [r7, #32]
 8000de2:	e012      	b.n	8000e0a <HAL_GPIO_Init+0xe2>
 8000de4:	683b      	ldr	r3, [r7, #0]
 8000de6:	689b      	ldr	r3, [r3, #8]
 8000de8:	2b01      	cmp	r3, #1
 8000dea:	d105      	bne.n	8000df8 <HAL_GPIO_Init+0xd0>
 8000dec:	2308      	movs	r3, #8
 8000dee:	623b      	str	r3, [r7, #32]
 8000df0:	687b      	ldr	r3, [r7, #4]
 8000df2:	69fa      	ldr	r2, [r7, #28]
 8000df4:	611a      	str	r2, [r3, #16]
 8000df6:	e008      	b.n	8000e0a <HAL_GPIO_Init+0xe2>
 8000df8:	2308      	movs	r3, #8
 8000dfa:	623b      	str	r3, [r7, #32]
 8000dfc:	687b      	ldr	r3, [r7, #4]
 8000dfe:	69fa      	ldr	r2, [r7, #28]
 8000e00:	615a      	str	r2, [r3, #20]
 8000e02:	e002      	b.n	8000e0a <HAL_GPIO_Init+0xe2>
 8000e04:	2300      	movs	r3, #0
 8000e06:	623b      	str	r3, [r7, #32]
 8000e08:	bf00      	nop
 8000e0a:	69bb      	ldr	r3, [r7, #24]
 8000e0c:	2bff      	cmp	r3, #255	; 0xff
 8000e0e:	d801      	bhi.n	8000e14 <HAL_GPIO_Init+0xec>
 8000e10:	687b      	ldr	r3, [r7, #4]
 8000e12:	e001      	b.n	8000e18 <HAL_GPIO_Init+0xf0>
 8000e14:	687b      	ldr	r3, [r7, #4]
 8000e16:	3304      	adds	r3, #4
 8000e18:	617b      	str	r3, [r7, #20]
 8000e1a:	69bb      	ldr	r3, [r7, #24]
 8000e1c:	2bff      	cmp	r3, #255	; 0xff
 8000e1e:	d802      	bhi.n	8000e26 <HAL_GPIO_Init+0xfe>
 8000e20:	6a7b      	ldr	r3, [r7, #36]	; 0x24
 8000e22:	009b      	lsls	r3, r3, #2
 8000e24:	e002      	b.n	8000e2c <HAL_GPIO_Init+0x104>
 8000e26:	6a7b      	ldr	r3, [r7, #36]	; 0x24
 8000e28:	3b08      	subs	r3, #8
 8000e2a:	009b      	lsls	r3, r3, #2
 8000e2c:	613b      	str	r3, [r7, #16]
 8000e2e:	697b      	ldr	r3, [r7, #20]
 8000e30:	681a      	ldr	r2, [r3, #0]
 8000e32:	210f      	movs	r1, #15
 8000e34:	693b      	ldr	r3, [r7, #16]
 8000e36:	fa01 f303 	lsl.w	r3, r1, r3
 8000e3a:	43db      	mvns	r3, r3
 8000e3c:	401a      	ands	r2, r3
 8000e3e:	6a39      	ldr	r1, [r7, #32]
 8000e40:	693b      	ldr	r3, [r7, #16]
 8000e42:	fa01 f303 	lsl.w	r3, r1, r3
 8000e46:	431a      	orrs	r2, r3
 8000e48:	697b      	ldr	r3, [r7, #20]
 8000e4a:	601a      	str	r2, [r3, #0]
 8000e4c:	683b      	ldr	r3, [r7, #0]
 8000e4e:	685b      	ldr	r3, [r3, #4]
 8000e50:	f003 5380 	and.w	r3, r3, #268435456	; 0x10000000
 8000e54:	2b00      	cmp	r3, #0
 8000e56:	f000 80a2 	beq.w	8000f9e <HAL_GPIO_Init+0x276>
 8000e5a:	4b5f      	ldr	r3, [pc, #380]	; (8000fd8 <HAL_GPIO_Init+0x2b0>)
 8000e5c:	699b      	ldr	r3, [r3, #24]
 8000e5e:	4a5e      	ldr	r2, [pc, #376]	; (8000fd8 <HAL_GPIO_Init+0x2b0>)
 8000e60:	f043 0301 	orr.w	r3, r3, #1
 8000e64:	6193      	str	r3, [r2, #24]
 8000e66:	4b5c      	ldr	r3, [pc, #368]	; (8000fd8 <HAL_GPIO_Init+0x2b0>)
 8000e68:	699b      	ldr	r3, [r3, #24]
 8000e6a:	f003 0301 	and.w	r3, r3, #1
 8000e6e:	60bb      	str	r3, [r7, #8]
 8000e70:	68bb      	ldr	r3, [r7, #8]
 8000e72:	4a5a      	ldr	r2, [pc, #360]	; (8000fdc <HAL_GPIO_Init+0x2b4>)
 8000e74:	6a7b      	ldr	r3, [r7, #36]	; 0x24
 8000e76:	089b      	lsrs	r3, r3, #2
 8000e78:	3302      	adds	r3, #2
 8000e7a:	f852 3023 	ldr.w	r3, [r2, r3, lsl #2]
 8000e7e:	60fb      	str	r3, [r7, #12]
 8000e80:	6a7b      	ldr	r3, [r7, #36]	; 0x24
 8000e82:	f003 0303 	and.w	r3, r3, #3
 8000e86:	009b      	lsls	r3, r3, #2
 8000e88:	220f      	movs	r2, #15
 8000e8a:	fa02 f303 	lsl.w	r3, r2, r3
 8000e8e:	43db      	mvns	r3, r3
 8000e90:	68fa      	ldr	r2, [r7, #12]
 8000e92:	4013      	ands	r3, r2
 8000e94:	60fb      	str	r3, [r7, #12]
 8000e96:	687b      	ldr	r3, [r7, #4]
 8000e98:	4a51      	ldr	r2, [pc, #324]	; (8000fe0 <HAL_GPIO_Init+0x2b8>)
 8000e9a:	4293      	cmp	r3, r2
 8000e9c:	d01f      	beq.n	8000ede <HAL_GPIO_Init+0x1b6>
 8000e9e:	687b      	ldr	r3, [r7, #4]
 8000ea0:	4a50      	ldr	r2, [pc, #320]	; (8000fe4 <HAL_GPIO_Init+0x2bc>)
 8000ea2:	4293      	cmp	r3, r2
 8000ea4:	d019      	beq.n	8000eda <HAL_GPIO_Init+0x1b2>
 8000ea6:	687b      	ldr	r3, [r7, #4]
 8000ea8:	4a4f      	ldr	r2, [pc, #316]	; (8000fe8 <HAL_GPIO_Init+0x2c0>)
 8000eaa:	4293      	cmp	r3, r2
 8000eac:	d013      	beq.n	8000ed6 <HAL_GPIO_Init+0x1ae>
 8000eae:	687b      	ldr	r3, [r7, #4]
 8000eb0:	4a4e      	ldr	r2, [pc, #312]	; (8000fec <HAL_GPIO_Init+0x2c4>)
 8000eb2:	4293      	cmp	r3, r2
 8000eb4:	d00d      	beq.n	8000ed2 <HAL_GPIO_Init+0x1aa>
 8000eb6:	687b      	ldr	r3, [r7, #4]
 8000eb8:	4a4d      	ldr	r2, [pc, #308]	; (8000ff0 <HAL_GPIO_Init+0x2c8>)
 8000eba:	4293      	cmp	r3, r2
 8000ebc:	d007      	beq.n	8000ece <HAL_GPIO_Init+0x1a6>
 8000ebe:	687b      	ldr	r3, [r7, #4]
 8000ec0:	4a4c      	ldr	r2, [pc, #304]	; (8000ff4 <HAL_GPIO_Init+0x2cc>)
 8000ec2:	4293      	cmp	r3, r2
 8000ec4:	d101      	bne.n	8000eca <HAL_GPIO_Init+0x1a2>
 8000ec6:	2305      	movs	r3, #5
 8000ec8:	e00a      	b.n	8000ee0 <HAL_GPIO_Init+0x1b8>
 8000eca:	2306      	movs	r3, #6
 8000ecc:	e008      	b.n	8000ee0 <HAL_GPIO_Init+0x1b8>
 8000ece:	2304      	movs	r3, #4
 8000ed0:	e006      	b.n	8000ee0 <HAL_GPIO_Init+0x1b8>
 8000ed2:	2303      	movs	r3, #3
 8000ed4:	e004      	b.n	8000ee0 <HAL_GPIO_Init+0x1b8>
 8000ed6:	2302      	movs	r3, #2
 8000ed8:	e002      	b.n	8000ee0 <HAL_GPIO_Init+0x1b8>
 8000eda:	2301      	movs	r3, #1
 8000edc:	e000      	b.n	8000ee0 <HAL_GPIO_Init+0x1b8>
 8000ede:	2300      	movs	r3, #0
 8000ee0:	6a7a      	ldr	r2, [r7, #36]	; 0x24
 8000ee2:	f002 0203 	and.w	r2, r2, #3
 8000ee6:	0092      	lsls	r2, r2, #2
 8000ee8:	4093      	lsls	r3, r2
 8000eea:	68fa      	ldr	r2, [r7, #12]
 8000eec:	4313      	orrs	r3, r2
 8000eee:	60fb      	str	r3, [r7, #12]
 8000ef0:	493a      	ldr	r1, [pc, #232]	; (8000fdc <HAL_GPIO_Init+0x2b4>)
 8000ef2:	6a7b      	ldr	r3, [r7, #36]	; 0x24
 8000ef4:	089b      	lsrs	r3, r3, #2
 8000ef6:	3302      	adds	r3, #2
 8000ef8:	68fa      	ldr	r2, [r7, #12]
 8000efa:	f841 2023 	str.w	r2, [r1, r3, lsl #2]
 8000efe:	683b      	ldr	r3, [r7, #0]
 8000f00:	685b      	ldr	r3, [r3, #4]
 8000f02:	f403 3380 	and.w	r3, r3, #65536	; 0x10000
 8000f06:	2b00      	cmp	r3, #0
 8000f08:	d006      	beq.n	8000f18 <HAL_GPIO_Init+0x1f0>
 8000f0a:	4b3b      	ldr	r3, [pc, #236]	; (8000ff8 <HAL_GPIO_Init+0x2d0>)
 8000f0c:	681a      	ldr	r2, [r3, #0]
 8000f0e:	493a      	ldr	r1, [pc, #232]	; (8000ff8 <HAL_GPIO_Init+0x2d0>)
 8000f10:	69bb      	ldr	r3, [r7, #24]
 8000f12:	4313      	orrs	r3, r2
 8000f14:	600b      	str	r3, [r1, #0]
 8000f16:	e006      	b.n	8000f26 <HAL_GPIO_Init+0x1fe>
 8000f18:	4b37      	ldr	r3, [pc, #220]	; (8000ff8 <HAL_GPIO_Init+0x2d0>)
 8000f1a:	681a      	ldr	r2, [r3, #0]
 8000f1c:	69bb      	ldr	r3, [r7, #24]
 8000f1e:	43db      	mvns	r3, r3
 8000f20:	4935      	ldr	r1, [pc, #212]	; (8000ff8 <HAL_GPIO_Init+0x2d0>)
 8000f22:	4013      	ands	r3, r2
 8000f24:	600b      	str	r3, [r1, #0]
 8000f26:	683b      	ldr	r3, [r7, #0]
 8000f28:	685b      	ldr	r3, [r3, #4]
 8000f2a:	f403 3300 	and.w	r3, r3, #131072	; 0x20000
 8000f2e:	2b00      	cmp	r3, #0
 8000f30:	d006      	beq.n	8000f40 <HAL_GPIO_Init+0x218>
 8000f32:	4b31      	ldr	r3, [pc, #196]	; (8000ff8 <HAL_GPIO_Init+0x2d0>)
 8000f34:	685a      	ldr	r2, [r3, #4]
 8000f36:	4930      	ldr	r1, [pc, #192]	; (8000ff8 <HAL_GPIO_Init+0x2d0>)
 8000f38:	69bb      	ldr	r3, [r7, #24]
 8000f3a:	4313      	orrs	r3, r2
 8000f3c:	604b      	str	r3, [r1, #4]
 8000f3e:	e006      	b.n	8000f4e <HAL_GPIO_Init+0x226>
 8000f40:	4b2d      	ldr	r3, [pc, #180]	; (8000ff8 <HAL_GPIO_Init+0x2d0>)
 8000f42:	685a      	ldr	r2, [r3, #4]
 8000f44:	69bb      	ldr	r3, [r7, #24]
 8000f46:	43db      	mvns	r3, r3
 8000f48:	492b      	ldr	r1, [pc, #172]	; (8000ff8 <HAL_GPIO_Init+0x2d0>)
 8000f4a:	4013      	ands	r3, r2
 8000f4c:	604b      	str	r3, [r1, #4]
 8000f4e:	683b      	ldr	r3, [r7, #0]
 8000f50:	685b      	ldr	r3, [r3, #4]
 8000f52:	f403 1380 	and.w	r3, r3, #1048576	; 0x100000
 8000f56:	2b00      	cmp	r3, #0
 8000f58:	d006      	beq.n	8000f68 <HAL_GPIO_Init+0x240>
 8000f5a:	4b27      	ldr	r3, [pc, #156]	; (8000ff8 <HAL_GPIO_Init+0x2d0>)
 8000f5c:	689a      	ldr	r2, [r3, #8]
 8000f5e:	4926      	ldr	r1, [pc, #152]	; (8000ff8 <HAL_GPIO_Init+0x2d0>)
 8000f60:	69bb      	ldr	r3, [r7, #24]
 8000f62:	4313      	orrs	r3, r2
 8000f64:	608b      	str	r3, [r1, #8]
 8000f66:	e006      	b.n	8000f76 <HAL_GPIO_Init+0x24e>
 8000f68:	4b23      	ldr	r3, [pc, #140]	; (8000ff8 <HAL_GPIO_Init+0x2d0>)
 8000f6a:	689a      	ldr	r2, [r3, #8]
 8000f6c:	69bb      	ldr	r3, [r7, #24]
 8000f6e:	43db      	mvns	r3, r3
 8000f70:	4921      	ldr	r1, [pc, #132]	; (8000ff8 <HAL_GPIO_Init+0x2d0>)
 8000f72:	4013      	ands	r3, r2
 8000f74:	608b      	str	r3, [r1, #8]
 8000f76:	683b      	ldr	r3, [r7, #0]
 8000f78:	685b      	ldr	r3, [r3, #4]
 8000f7a:	f403 1300 	and.w	r3, r3, #2097152	; 0x200000
 8000f7e:	2b00      	cmp	r3, #0
 8000f80:	d006      	beq.n	8000f90 <HAL_GPIO_Init+0x268>
 8000f82:	4b1d      	ldr	r3, [pc, #116]	; (8000ff8 <HAL_GPIO_Init+0x2d0>)
 8000f84:	68da      	ldr	r2, [r3, #12]
 8000f86:	491c      	ldr	r1, [pc, #112]	; (8000ff8 <HAL_GPIO_Init+0x2d0>)
 8000f88:	69bb      	ldr	r3, [r7, #24]
 8000f8a:	4313      	orrs	r3, r2
 8000f8c:	60cb      	str	r3, [r1, #12]
 8000f8e:	e006      	b.n	8000f9e <HAL_GPIO_Init+0x276>
 8000f90:	4b19      	ldr	r3, [pc, #100]	; (8000ff8 <HAL_GPIO_Init+0x2d0>)
 8000f92:	68da      	ldr	r2, [r3, #12]
 8000f94:	69bb      	ldr	r3, [r7, #24]
 8000f96:	43db      	mvns	r3, r3
 8000f98:	4917      	ldr	r1, [pc, #92]	; (8000ff8 <HAL_GPIO_Init+0x2d0>)
 8000f9a:	4013      	ands	r3, r2
 8000f9c:	60cb      	str	r3, [r1, #12]
 8000f9e:	6a7b      	ldr	r3, [r7, #36]	; 0x24
 8000fa0:	3301      	adds	r3, #1
 8000fa2:	627b      	str	r3, [r7, #36]	; 0x24
 8000fa4:	683b      	ldr	r3, [r7, #0]
 8000fa6:	681a      	ldr	r2, [r3, #0]
 8000fa8:	6a7b      	ldr	r3, [r7, #36]	; 0x24
 8000faa:	fa22 f303 	lsr.w	r3, r2, r3
 8000fae:	2b00      	cmp	r3, #0
 8000fb0:	f47f aec4 	bne.w	8000d3c <HAL_GPIO_Init+0x14>
 8000fb4:	bf00      	nop
 8000fb6:	372c      	adds	r7, #44	; 0x2c
 8000fb8:	46bd      	mov	sp, r7
 8000fba:	bc80      	pop	{r7}
 8000fbc:	4770      	bx	lr
 8000fbe:	bf00      	nop
 8000fc0:	10210000 	.word	0x10210000
 8000fc4:	10110000 	.word	0x10110000
 8000fc8:	10120000 	.word	0x10120000
 8000fcc:	10310000 	.word	0x10310000
 8000fd0:	10320000 	.word	0x10320000
 8000fd4:	10220000 	.word	0x10220000
 8000fd8:	40021000 	.word	0x40021000
 8000fdc:	40010000 	.word	0x40010000
 8000fe0:	40010800 	.word	0x40010800
 8000fe4:	40010c00 	.word	0x40010c00
 8000fe8:	40011000 	.word	0x40011000
 8000fec:	40011400 	.word	0x40011400
 8000ff0:	40011800 	.word	0x40011800
 8000ff4:	40011c00 	.word	0x40011c00
 8000ff8:	40010400 	.word	0x40010400

08000ffc <HAL_GPIO_ReadPin>:
 8000ffc:	b480      	push	{r7}
 8000ffe:	b085      	sub	sp, #20
 8001000:	af00      	add	r7, sp, #0
 8001002:	6078      	str	r0, [r7, #4]
 8001004:	460b      	mov	r3, r1
 8001006:	807b      	strh	r3, [r7, #2]
 8001008:	687b      	ldr	r3, [r7, #4]
 800100a:	689a      	ldr	r2, [r3, #8]
 800100c:	887b      	ldrh	r3, [r7, #2]
 800100e:	4013      	ands	r3, r2
 8001010:	2b00      	cmp	r3, #0
 8001012:	d002      	beq.n	800101a <HAL_GPIO_ReadPin+0x1e>
 8001014:	2301      	movs	r3, #1
 8001016:	73fb      	strb	r3, [r7, #15]
 8001018:	e001      	b.n	800101e <HAL_GPIO_ReadPin+0x22>
 800101a:	2300      	movs	r3, #0
 800101c:	73fb      	strb	r3, [r7, #15]
 800101e:	7bfb      	ldrb	r3, [r7, #15]
 8001020:	4618      	mov	r0, r3
 8001022:	3714      	adds	r7, #20
 8001024:	46bd      	mov	sp, r7
 8001026:	bc80      	pop	{r7}
 8001028:	4770      	bx	lr

0800102a <HAL_GPIO_WritePin>:
 800102a:	b480      	push	{r7}
 800102c:	b083      	sub	sp, #12
 800102e:	af00      	add	r7, sp, #0
 8001030:	6078      	str	r0, [r7, #4]
 8001032:	460b      	mov	r3, r1
 8001034:	807b      	strh	r3, [r7, #2]
 8001036:	4613      	mov	r3, r2
 8001038:	707b      	strb	r3, [r7, #1]
 800103a:	787b      	ldrb	r3, [r7, #1]
 800103c:	2b00      	cmp	r3, #0
 800103e:	d003      	beq.n	8001048 <HAL_GPIO_WritePin+0x1e>
 8001040:	887a      	ldrh	r2, [r7, #2]
 8001042:	687b      	ldr	r3, [r7, #4]
 8001044:	611a      	str	r2, [r3, #16]
 8001046:	e003      	b.n	8001050 <HAL_GPIO_WritePin+0x26>
 8001048:	887b      	ldrh	r3, [r7, #2]
 800104a:	041a      	lsls	r2, r3, #16
 800104c:	687b      	ldr	r3, [r7, #4]
 800104e:	611a      	str	r2, [r3, #16]
 8001050:	bf00      	nop
 8001052:	370c      	adds	r7, #12
 8001054:	46bd      	mov	sp, r7
 8001056:	bc80      	pop	{r7}
 8001058:	4770      	bx	lr
	...

0800105c <HAL_GPIO_EXTI_IRQHandler>:
 800105c:	b580      	push	{r7, lr}
 800105e:	b082      	sub	sp, #8
 8001060:	af00      	add	r7, sp, #0
 8001062:	4603      	mov	r3, r0
 8001064:	80fb      	strh	r3, [r7, #6]
 8001066:	4b08      	ldr	r3, [pc, #32]	; (8001088 <HAL_GPIO_EXTI_IRQHandler+0x2c>)
 8001068:	695a      	ldr	r2, [r3, #20]
 800106a:	88fb      	ldrh	r3, [r7, #6]
 800106c:	4013      	ands	r3, r2
 800106e:	2b00      	cmp	r3, #0
 8001070:	d006      	beq.n	8001080 <HAL_GPIO_EXTI_IRQHandler+0x24>
 8001072:	4a05      	ldr	r2, [pc, #20]	; (8001088 <HAL_GPIO_EXTI_IRQHandler+0x2c>)
 8001074:	88fb      	ldrh	r3, [r7, #6]
 8001076:	6153      	str	r3, [r2, #20]
 8001078:	88fb      	ldrh	r3, [r7, #6]
 800107a:	4618      	mov	r0, r3
 800107c:	f000 f806 	bl	800108c <HAL_GPIO_EXTI_Callback>
 8001080:	bf00      	nop
 8001082:	3708      	adds	r7, #8
 8001084:	46bd      	mov	sp, r7
 8001086:	bd80      	pop	{r7, pc}
 8001088:	40010400 	.word	0x40010400

0800108c <HAL_GPIO_EXTI_Callback>:
 800108c:	b480      	push	{r7}
 800108e:	b083      	sub	sp, #12
 8001090:	af00      	add	r7, sp, #0
 8001092:	4603      	mov	r3, r0
 8001094:	80fb      	strh	r3, [r7, #6]
 8001096:	bf00      	nop
 8001098:	370c      	adds	r7, #12
 800109a:	46bd      	mov	sp, r7
 800109c:	bc80      	pop	{r7}
 800109e:	4770      	bx	lr

080010a0 <HAL_RCC_OscConfig>:
 80010a0:	b580      	push	{r7, lr}
 80010a2:	b086      	sub	sp, #24
 80010a4:	af00      	add	r7, sp, #0
 80010a6:	6078      	str	r0, [r7, #4]
 80010a8:	687b      	ldr	r3, [r7, #4]
 80010aa:	2b00      	cmp	r3, #0
 80010ac:	d101      	bne.n	80010b2 <HAL_RCC_OscConfig+0x12>
 80010ae:	2301      	movs	r3, #1
 80010b0:	e26c      	b.n	800158c <HAL_RCC_OscConfig+0x4ec>
 80010b2:	687b      	ldr	r3, [r7, #4]
 80010b4:	681b      	ldr	r3, [r3, #0]
 80010b6:	f003 0301 	and.w	r3, r3, #1
 80010ba:	2b00      	cmp	r3, #0
 80010bc:	f000 8087 	beq.w	80011ce <HAL_RCC_OscConfig+0x12e>
 80010c0:	4b92      	ldr	r3, [pc, #584]	; (800130c <HAL_RCC_OscConfig+0x26c>)
 80010c2:	685b      	ldr	r3, [r3, #4]
 80010c4:	f003 030c 	and.w	r3, r3, #12
 80010c8:	2b04      	cmp	r3, #4
 80010ca:	d00c      	beq.n	80010e6 <HAL_RCC_OscConfig+0x46>
 80010cc:	4b8f      	ldr	r3, [pc, #572]	; (800130c <HAL_RCC_OscConfig+0x26c>)
 80010ce:	685b      	ldr	r3, [r3, #4]
 80010d0:	f003 030c 	and.w	r3, r3, #12
 80010d4:	2b08      	cmp	r3, #8
 80010d6:	d112      	bne.n	80010fe <HAL_RCC_OscConfig+0x5e>
 80010d8:	4b8c      	ldr	r3, [pc, #560]	; (800130c <HAL_RCC_OscConfig+0x26c>)
 80010da:	685b      	ldr	r3, [r3, #4]
 80010dc:	f403 3380 	and.w	r3, r3, #65536	; 0x10000
 80010e0:	f5b3 3f80 	cmp.w	r3, #65536	; 0x10000
 80010e4:	d10b      	bne.n	80010fe <HAL_RCC_OscConfig+0x5e>
 80010e6:	4b89      	ldr	r3, [pc, #548]	; (800130c <HAL_RCC_OscConfig+0x26c>)
 80010e8:	681b      	ldr	r3, [r3, #0]
 80010ea:	f403 3300 	and.w	r3, r3, #131072	; 0x20000
 80010ee:	2b00      	cmp	r3, #0
 80010f0:	d06c      	beq.n	80011cc <HAL_RCC_OscConfig+0x12c>
 80010f2:	687b      	ldr	r3, [r7, #4]
 80010f4:	685b      	ldr	r3, [r3, #4]
 80010f6:	2b00      	cmp	r3, #0
 80010f8:	d168      	bne.n	80011cc <HAL_RCC_OscConfig+0x12c>
 80010fa:	2301      	movs	r3, #1
 80010fc:	e246      	b.n	800158c <HAL_RCC_OscConfig+0x4ec>
 80010fe:	687b      	ldr	r3, [r7, #4]
 8001100:	685b      	ldr	r3, [r3, #4]
 8001102:	f5b3 3f80 	cmp.w	r3, #65536	; 0x10000
 8001106:	d106      	bne.n	8001116 <HAL_RCC_OscConfig+0x76>
 8001108:	4b80      	ldr	r3, [pc, #512]	; (800130c <HAL_RCC_OscConfig+0x26c>)
 800110a:	681b      	ldr	r3, [r3, #0]
 800110c:	4a7f      	ldr	r2, [pc, #508]	; (800130c <HAL_RCC_OscConfig+0x26c>)
 800110e:	f443 3380 	orr.w	r3, r3, #65536	; 0x10000
 8001112:	6013      	str	r3, [r2, #0]
 8001114:	e02e      	b.n	8001174 <HAL_RCC_OscConfig+0xd4>
 8001116:	687b      	ldr	r3, [r7, #4]
 8001118:	685b      	ldr	r3, [r3, #4]
 800111a:	2b00      	cmp	r3, #0
 800111c:	d10c      	bne.n	8001138 <HAL_RCC_OscConfig+0x98>
 800111e:	4b7b      	ldr	r3, [pc, #492]	; (800130c <HAL_RCC_OscConfig+0x26c>)
 8001120:	681b      	ldr	r3, [r3, #0]
 8001122:	4a7a      	ldr	r2, [pc, #488]	; (800130c <HAL_RCC_OscConfig+0x26c>)
 8001124:	f423 3380 	bic.w	r3, r3, #65536	; 0x10000
 8001128:	6013      	str	r3, [r2, #0]
 800112a:	4b78      	ldr	r3, [pc, #480]	; (800130c <HAL_RCC_OscConfig+0x26c>)
 800112c:	681b      	ldr	r3, [r3, #0]
 800112e:	4a77      	ldr	r2, [pc, #476]	; (800130c <HAL_RCC_OscConfig+0x26c>)
 8001130:	f423 2380 	bic.w	r3, r3, #262144	; 0x40000
 8001134:	6013      	str	r3, [r2, #0]
 8001136:	e01d      	b.n	8001174 <HAL_RCC_OscConfig+0xd4>
 8001138:	687b      	ldr	r3, [r7, #4]
 800113a:	685b      	ldr	r3, [r3, #4]
 800113c:	f5b3 2fa0 	cmp.w	r3, #327680	; 0x50000
 8001140:	d10c      	bne.n	800115c <HAL_RCC_OscConfig+0xbc>
 8001142:	4b72      	ldr	r3, [pc, #456]	; (800130c <HAL_RCC_OscConfig+0x26c>)
 8001144:	681b      	ldr	r3, [r3, #0]
 8001146:	4a71      	ldr	r2, [pc, #452]	; (800130c <HAL_RCC_OscConfig+0x26c>)
 8001148:	f443 2380 	orr.w	r3, r3, #262144	; 0x40000
 800114c:	6013      	str	r3, [r2, #0]
 800114e:	4b6f      	ldr	r3, [pc, #444]	; (800130c <HAL_RCC_OscConfig+0x26c>)
 8001150:	681b      	ldr	r3, [r3, #0]
 8001152:	4a6e      	ldr	r2, [pc, #440]	; (800130c <HAL_RCC_OscConfig+0x26c>)
 8001154:	f443 3380 	orr.w	r3, r3, #65536	; 0x10000
 8001158:	6013      	str	r3, [r2, #0]
 800115a:	e00b      	b.n	8001174 <HAL_RCC_OscConfig+0xd4>
 800115c:	4b6b      	ldr	r3, [pc, #428]	; (800130c <HAL_RCC_OscConfig+0x26c>)
 800115e:	681b      	ldr	r3, [r3, #0]
 8001160:	4a6a      	ldr	r2, [pc, #424]	; (800130c <HAL_RCC_OscConfig+0x26c>)
 8001162:	f423 3380 	bic.w	r3, r3, #65536	; 0x10000
 8001166:	6013      	str	r3, [r2, #0]
 8001168:	4b68      	ldr	r3, [pc, #416]	; (800130c <HAL_RCC_OscConfig+0x26c>)
 800116a:	681b      	ldr	r3, [r3, #0]
 800116c:	4a67      	ldr	r2, [pc, #412]	; (800130c <HAL_RCC_OscConfig+0x26c>)
 800116e:	f423 2380 	bic.w	r3, r3, #262144	; 0x40000
 8001172:	6013      	str	r3, [r2, #0]
 8001174:	687b      	ldr	r3, [r7, #4]
 8001176:	685b      	ldr	r3, [r3, #4]
 8001178:	2b00      	cmp	r3, #0
 800117a:	d013      	beq.n	80011a4 <HAL_RCC_OscConfig+0x104>
 800117c:	f7ff fc9a 	bl	8000ab4 <HAL_GetTick>
 8001180:	6138      	str	r0, [r7, #16]
 8001182:	e008      	b.n	8001196 <HAL_RCC_OscConfig+0xf6>
 8001184:	f7ff fc96 	bl	8000ab4 <HAL_GetTick>
 8001188:	4602      	mov	r2, r0
 800118a:	693b      	ldr	r3, [r7, #16]
 800118c:	1ad3      	subs	r3, r2, r3
 800118e:	2b64      	cmp	r3, #100	; 0x64
 8001190:	d901      	bls.n	8001196 <HAL_RCC_OscConfig+0xf6>
 8001192:	2303      	movs	r3, #3
 8001194:	e1fa      	b.n	800158c <HAL_RCC_OscConfig+0x4ec>
 8001196:	4b5d      	ldr	r3, [pc, #372]	; (800130c <HAL_RCC_OscConfig+0x26c>)
 8001198:	681b      	ldr	r3, [r3, #0]
 800119a:	f403 3300 	and.w	r3, r3, #131072	; 0x20000
 800119e:	2b00      	cmp	r3, #0
 80011a0:	d0f0      	beq.n	8001184 <HAL_RCC_OscConfig+0xe4>
 80011a2:	e014      	b.n	80011ce <HAL_RCC_OscConfig+0x12e>
 80011a4:	f7ff fc86 	bl	8000ab4 <HAL_GetTick>
 80011a8:	6138      	str	r0, [r7, #16]
 80011aa:	e008      	b.n	80011be <HAL_RCC_OscConfig+0x11e>
 80011ac:	f7ff fc82 	bl	8000ab4 <HAL_GetTick>
 80011b0:	4602      	mov	r2, r0
 80011b2:	693b      	ldr	r3, [r7, #16]
 80011b4:	1ad3      	subs	r3, r2, r3
 80011b6:	2b64      	cmp	r3, #100	; 0x64
 80011b8:	d901      	bls.n	80011be <HAL_RCC_OscConfig+0x11e>
 80011ba:	2303      	movs	r3, #3
 80011bc:	e1e6      	b.n	800158c <HAL_RCC_OscConfig+0x4ec>
 80011be:	4b53      	ldr	r3, [pc, #332]	; (800130c <HAL_RCC_OscConfig+0x26c>)
 80011c0:	681b      	ldr	r3, [r3, #0]
 80011c2:	f403 3300 	and.w	r3, r3, #131072	; 0x20000
 80011c6:	2b00      	cmp	r3, #0
 80011c8:	d1f0      	bne.n	80011ac <HAL_RCC_OscConfig+0x10c>
 80011ca:	e000      	b.n	80011ce <HAL_RCC_OscConfig+0x12e>
 80011cc:	bf00      	nop
 80011ce:	687b      	ldr	r3, [r7, #4]
 80011d0:	681b      	ldr	r3, [r3, #0]
 80011d2:	f003 0302 	and.w	r3, r3, #2
 80011d6:	2b00      	cmp	r3, #0
 80011d8:	d063      	beq.n	80012a2 <HAL_RCC_OscConfig+0x202>
 80011da:	4b4c      	ldr	r3, [pc, #304]	; (800130c <HAL_RCC_OscConfig+0x26c>)
 80011dc:	685b      	ldr	r3, [r3, #4]
 80011de:	f003 030c 	and.w	r3, r3, #12
 80011e2:	2b00      	cmp	r3, #0
 80011e4:	d00b      	beq.n	80011fe <HAL_RCC_OscConfig+0x15e>
 80011e6:	4b49      	ldr	r3, [pc, #292]	; (800130c <HAL_RCC_OscConfig+0x26c>)
 80011e8:	685b      	ldr	r3, [r3, #4]
 80011ea:	f003 030c 	and.w	r3, r3, #12
 80011ee:	2b08      	cmp	r3, #8
 80011f0:	d11c      	bne.n	800122c <HAL_RCC_OscConfig+0x18c>
 80011f2:	4b46      	ldr	r3, [pc, #280]	; (800130c <HAL_RCC_OscConfig+0x26c>)
 80011f4:	685b      	ldr	r3, [r3, #4]
 80011f6:	f403 3380 	and.w	r3, r3, #65536	; 0x10000
 80011fa:	2b00      	cmp	r3, #0
 80011fc:	d116      	bne.n	800122c <HAL_RCC_OscConfig+0x18c>
 80011fe:	4b43      	ldr	r3, [pc, #268]	; (800130c <HAL_RCC_OscConfig+0x26c>)
 8001200:	681b      	ldr	r3, [r3, #0]
 8001202:	f003 0302 	and.w	r3, r3, #2
 8001206:	2b00      	cmp	r3, #0
 8001208:	d005      	beq.n	8001216 <HAL_RCC_OscConfig+0x176>
 800120a:	687b      	ldr	r3, [r7, #4]
 800120c:	691b      	ldr	r3, [r3, #16]
 800120e:	2b01      	cmp	r3, #1
 8001210:	d001      	beq.n	8001216 <HAL_RCC_OscConfig+0x176>
 8001212:	2301      	movs	r3, #1
 8001214:	e1ba      	b.n	800158c <HAL_RCC_OscConfig+0x4ec>
 8001216:	4b3d      	ldr	r3, [pc, #244]	; (800130c <HAL_RCC_OscConfig+0x26c>)
 8001218:	681b      	ldr	r3, [r3, #0]
 800121a:	f023 02f8 	bic.w	r2, r3, #248	; 0xf8
 800121e:	687b      	ldr	r3, [r7, #4]
 8001220:	695b      	ldr	r3, [r3, #20]
 8001222:	00db      	lsls	r3, r3, #3
 8001224:	4939      	ldr	r1, [pc, #228]	; (800130c <HAL_RCC_OscConfig+0x26c>)
 8001226:	4313      	orrs	r3, r2
 8001228:	600b      	str	r3, [r1, #0]
 800122a:	e03a      	b.n	80012a2 <HAL_RCC_OscConfig+0x202>
 800122c:	687b      	ldr	r3, [r7, #4]
 800122e:	691b      	ldr	r3, [r3, #16]
 8001230:	2b00      	cmp	r3, #0
 8001232:	d020      	beq.n	8001276 <HAL_RCC_OscConfig+0x1d6>
 8001234:	4b36      	ldr	r3, [pc, #216]	; (8001310 <HAL_RCC_OscConfig+0x270>)
 8001236:	2201      	movs	r2, #1
 8001238:	601a      	str	r2, [r3, #0]
 800123a:	f7ff fc3b 	bl	8000ab4 <HAL_GetTick>
 800123e:	6138      	str	r0, [r7, #16]
 8001240:	e008      	b.n	8001254 <HAL_RCC_OscConfig+0x1b4>
 8001242:	f7ff fc37 	bl	8000ab4 <HAL_GetTick>
 8001246:	4602      	mov	r2, r0
 8001248:	693b      	ldr	r3, [r7, #16]
 800124a:	1ad3      	subs	r3, r2, r3
 800124c:	2b02      	cmp	r3, #2
 800124e:	d901      	bls.n	8001254 <HAL_RCC_OscConfig+0x1b4>
 8001250:	2303      	movs	r3, #3
 8001252:	e19b      	b.n	800158c <HAL_RCC_OscConfig+0x4ec>
 8001254:	4b2d      	ldr	r3, [pc, #180]	; (800130c <HAL_RCC_OscConfig+0x26c>)
 8001256:	681b      	ldr	r3, [r3, #0]
 8001258:	f003 0302 	and.w	r3, r3, #2
 800125c:	2b00      	cmp	r3, #0
 800125e:	d0f0      	beq.n	8001242 <HAL_RCC_OscConfig+0x1a2>
 8001260:	4b2a      	ldr	r3, [pc, #168]	; (800130c <HAL_RCC_OscConfig+0x26c>)
 8001262:	681b      	ldr	r3, [r3, #0]
 8001264:	f023 02f8 	bic.w	r2, r3, #248	; 0xf8
 8001268:	687b      	ldr	r3, [r7, #4]
 800126a:	695b      	ldr	r3, [r3, #20]
 800126c:	00db      	lsls	r3, r3, #3
 800126e:	4927      	ldr	r1, [pc, #156]	; (800130c <HAL_RCC_OscConfig+0x26c>)
 8001270:	4313      	orrs	r3, r2
 8001272:	600b      	str	r3, [r1, #0]
 8001274:	e015      	b.n	80012a2 <HAL_RCC_OscConfig+0x202>
 8001276:	4b26      	ldr	r3, [pc, #152]	; (8001310 <HAL_RCC_OscConfig+0x270>)
 8001278:	2200      	movs	r2, #0
 800127a:	601a      	str	r2, [r3, #0]
 800127c:	f7ff fc1a 	bl	8000ab4 <HAL_GetTick>
 8001280:	6138      	str	r0, [r7, #16]
 8001282:	e008      	b.n	8001296 <HAL_RCC_OscConfig+0x1f6>
 8001284:	f7ff fc16 	bl	8000ab4 <HAL_GetTick>
 8001288:	4602      	mov	r2, r0
 800128a:	693b      	ldr	r3, [r7, #16]
 800128c:	1ad3      	subs	r3, r2, r3
 800128e:	2b02      	cmp	r3, #2
 8001290:	d901      	bls.n	8001296 <HAL_RCC_OscConfig+0x1f6>
 8001292:	2303      	movs	r3, #3
 8001294:	e17a      	b.n	800158c <HAL_RCC_OscConfig+0x4ec>
 8001296:	4b1d      	ldr	r3, [pc, #116]	; (800130c <HAL_RCC_OscConfig+0x26c>)
 8001298:	681b      	ldr	r3, [r3, #0]
 800129a:	f003 0302 	and.w	r3, r3, #2
 800129e:	2b00      	cmp	r3, #0
 80012a0:	d1f0      	bne.n	8001284 <HAL_RCC_OscConfig+0x1e4>
 80012a2:	687b      	ldr	r3, [r7, #4]
 80012a4:	681b      	ldr	r3, [r3, #0]
 80012a6:	f003 0308 	and.w	r3, r3, #8
 80012aa:	2b00      	cmp	r3, #0
 80012ac:	d03a      	beq.n	8001324 <HAL_RCC_OscConfig+0x284>
 80012ae:	687b      	ldr	r3, [r7, #4]
 80012b0:	699b      	ldr	r3, [r3, #24]
 80012b2:	2b00      	cmp	r3, #0
 80012b4:	d019      	beq.n	80012ea <HAL_RCC_OscConfig+0x24a>
 80012b6:	4b17      	ldr	r3, [pc, #92]	; (8001314 <HAL_RCC_OscConfig+0x274>)
 80012b8:	2201      	movs	r2, #1
 80012ba:	601a      	str	r2, [r3, #0]
 80012bc:	f7ff fbfa 	bl	8000ab4 <HAL_GetTick>
 80012c0:	6138      	str	r0, [r7, #16]
 80012c2:	e008      	b.n	80012d6 <HAL_RCC_OscConfig+0x236>
 80012c4:	f7ff fbf6 	bl	8000ab4 <HAL_GetTick>
 80012c8:	4602      	mov	r2, r0
 80012ca:	693b      	ldr	r3, [r7, #16]
 80012cc:	1ad3      	subs	r3, r2, r3
 80012ce:	2b02      	cmp	r3, #2
 80012d0:	d901      	bls.n	80012d6 <HAL_RCC_OscConfig+0x236>
 80012d2:	2303      	movs	r3, #3
 80012d4:	e15a      	b.n	800158c <HAL_RCC_OscConfig+0x4ec>
 80012d6:	4b0d      	ldr	r3, [pc, #52]	; (800130c <HAL_RCC_OscConfig+0x26c>)
 80012d8:	6a5b      	ldr	r3, [r3, #36]	; 0x24
 80012da:	f003 0302 	and.w	r3, r3, #2
 80012de:	2b00      	cmp	r3, #0
 80012e0:	d0f0      	beq.n	80012c4 <HAL_RCC_OscConfig+0x224>
 80012e2:	2001      	movs	r0, #1
 80012e4:	f000 faa8 	bl	8001838 <RCC_Delay>
 80012e8:	e01c      	b.n	8001324 <HAL_RCC_OscConfig+0x284>
 80012ea:	4b0a      	ldr	r3, [pc, #40]	; (8001314 <HAL_RCC_OscConfig+0x274>)
 80012ec:	2200      	movs	r2, #0
 80012ee:	601a      	str	r2, [r3, #0]
 80012f0:	f7ff fbe0 	bl	8000ab4 <HAL_GetTick>
 80012f4:	6138      	str	r0, [r7, #16]
 80012f6:	e00f      	b.n	8001318 <HAL_RCC_OscConfig+0x278>
 80012f8:	f7ff fbdc 	bl	8000ab4 <HAL_GetTick>
 80012fc:	4602      	mov	r2, r0
 80012fe:	693b      	ldr	r3, [r7, #16]
 8001300:	1ad3      	subs	r3, r2, r3
 8001302:	2b02      	cmp	r3, #2
 8001304:	d908      	bls.n	8001318 <HAL_RCC_OscConfig+0x278>
 8001306:	2303      	movs	r3, #3
 8001308:	e140      	b.n	800158c <HAL_RCC_OscConfig+0x4ec>
 800130a:	bf00      	nop
 800130c:	40021000 	.word	0x40021000
 8001310:	42420000 	.word	0x42420000
 8001314:	42420480 	.word	0x42420480
 8001318:	4b9e      	ldr	r3, [pc, #632]	; (8001594 <HAL_RCC_OscConfig+0x4f4>)
 800131a:	6a5b      	ldr	r3, [r3, #36]	; 0x24
 800131c:	f003 0302 	and.w	r3, r3, #2
 8001320:	2b00      	cmp	r3, #0
 8001322:	d1e9      	bne.n	80012f8 <HAL_RCC_OscConfig+0x258>
 8001324:	687b      	ldr	r3, [r7, #4]
 8001326:	681b      	ldr	r3, [r3, #0]
 8001328:	f003 0304 	and.w	r3, r3, #4
 800132c:	2b00      	cmp	r3, #0
 800132e:	f000 80a6 	beq.w	800147e <HAL_RCC_OscConfig+0x3de>
 8001332:	2300      	movs	r3, #0
 8001334:	75fb      	strb	r3, [r7, #23]
 8001336:	4b97      	ldr	r3, [pc, #604]	; (8001594 <HAL_RCC_OscConfig+0x4f4>)
 8001338:	69db      	ldr	r3, [r3, #28]
 800133a:	f003 5380 	and.w	r3, r3, #268435456	; 0x10000000
 800133e:	2b00      	cmp	r3, #0
 8001340:	d10d      	bne.n	800135e <HAL_RCC_OscConfig+0x2be>
 8001342:	4b94      	ldr	r3, [pc, #592]	; (8001594 <HAL_RCC_OscConfig+0x4f4>)
 8001344:	69db      	ldr	r3, [r3, #28]
 8001346:	4a93      	ldr	r2, [pc, #588]	; (8001594 <HAL_RCC_OscConfig+0x4f4>)
 8001348:	f043 5380 	orr.w	r3, r3, #268435456	; 0x10000000
 800134c:	61d3      	str	r3, [r2, #28]
 800134e:	4b91      	ldr	r3, [pc, #580]	; (8001594 <HAL_RCC_OscConfig+0x4f4>)
 8001350:	69db      	ldr	r3, [r3, #28]
 8001352:	f003 5380 	and.w	r3, r3, #268435456	; 0x10000000
 8001356:	60bb      	str	r3, [r7, #8]
 8001358:	68bb      	ldr	r3, [r7, #8]
 800135a:	2301      	movs	r3, #1
 800135c:	75fb      	strb	r3, [r7, #23]
 800135e:	4b8e      	ldr	r3, [pc, #568]	; (8001598 <HAL_RCC_OscConfig+0x4f8>)
 8001360:	681b      	ldr	r3, [r3, #0]
 8001362:	f403 7380 	and.w	r3, r3, #256	; 0x100
 8001366:	2b00      	cmp	r3, #0
 8001368:	d118      	bne.n	800139c <HAL_RCC_OscConfig+0x2fc>
 800136a:	4b8b      	ldr	r3, [pc, #556]	; (8001598 <HAL_RCC_OscConfig+0x4f8>)
 800136c:	681b      	ldr	r3, [r3, #0]
 800136e:	4a8a      	ldr	r2, [pc, #552]	; (8001598 <HAL_RCC_OscConfig+0x4f8>)
 8001370:	f443 7380 	orr.w	r3, r3, #256	; 0x100
 8001374:	6013      	str	r3, [r2, #0]
 8001376:	f7ff fb9d 	bl	8000ab4 <HAL_GetTick>
 800137a:	6138      	str	r0, [r7, #16]
 800137c:	e008      	b.n	8001390 <HAL_RCC_OscConfig+0x2f0>
 800137e:	f7ff fb99 	bl	8000ab4 <HAL_GetTick>
 8001382:	4602      	mov	r2, r0
 8001384:	693b      	ldr	r3, [r7, #16]
 8001386:	1ad3      	subs	r3, r2, r3
 8001388:	2b64      	cmp	r3, #100	; 0x64
 800138a:	d901      	bls.n	8001390 <HAL_RCC_OscConfig+0x2f0>
 800138c:	2303      	movs	r3, #3
 800138e:	e0fd      	b.n	800158c <HAL_RCC_OscConfig+0x4ec>
 8001390:	4b81      	ldr	r3, [pc, #516]	; (8001598 <HAL_RCC_OscConfig+0x4f8>)
 8001392:	681b      	ldr	r3, [r3, #0]
 8001394:	f403 7380 	and.w	r3, r3, #256	; 0x100
 8001398:	2b00      	cmp	r3, #0
 800139a:	d0f0      	beq.n	800137e <HAL_RCC_OscConfig+0x2de>
 800139c:	687b      	ldr	r3, [r7, #4]
 800139e:	68db      	ldr	r3, [r3, #12]
 80013a0:	2b01      	cmp	r3, #1
 80013a2:	d106      	bne.n	80013b2 <HAL_RCC_OscConfig+0x312>
 80013a4:	4b7b      	ldr	r3, [pc, #492]	; (8001594 <HAL_RCC_OscConfig+0x4f4>)
 80013a6:	6a1b      	ldr	r3, [r3, #32]
 80013a8:	4a7a      	ldr	r2, [pc, #488]	; (8001594 <HAL_RCC_OscConfig+0x4f4>)
 80013aa:	f043 0301 	orr.w	r3, r3, #1
 80013ae:	6213      	str	r3, [r2, #32]
 80013b0:	e02d      	b.n	800140e <HAL_RCC_OscConfig+0x36e>
 80013b2:	687b      	ldr	r3, [r7, #4]
 80013b4:	68db      	ldr	r3, [r3, #12]
 80013b6:	2b00      	cmp	r3, #0
 80013b8:	d10c      	bne.n	80013d4 <HAL_RCC_OscConfig+0x334>
 80013ba:	4b76      	ldr	r3, [pc, #472]	; (8001594 <HAL_RCC_OscConfig+0x4f4>)
 80013bc:	6a1b      	ldr	r3, [r3, #32]
 80013be:	4a75      	ldr	r2, [pc, #468]	; (8001594 <HAL_RCC_OscConfig+0x4f4>)
 80013c0:	f023 0301 	bic.w	r3, r3, #1
 80013c4:	6213      	str	r3, [r2, #32]
 80013c6:	4b73      	ldr	r3, [pc, #460]	; (8001594 <HAL_RCC_OscConfig+0x4f4>)
 80013c8:	6a1b      	ldr	r3, [r3, #32]
 80013ca:	4a72      	ldr	r2, [pc, #456]	; (8001594 <HAL_RCC_OscConfig+0x4f4>)
 80013cc:	f023 0304 	bic.w	r3, r3, #4
 80013d0:	6213      	str	r3, [r2, #32]
 80013d2:	e01c      	b.n	800140e <HAL_RCC_OscConfig+0x36e>
 80013d4:	687b      	ldr	r3, [r7, #4]
 80013d6:	68db      	ldr	r3, [r3, #12]
 80013d8:	2b05      	cmp	r3, #5
 80013da:	d10c      	bne.n	80013f6 <HAL_RCC_OscConfig+0x356>
 80013dc:	4b6d      	ldr	r3, [pc, #436]	; (8001594 <HAL_RCC_OscConfig+0x4f4>)
 80013de:	6a1b      	ldr	r3, [r3, #32]
 80013e0:	4a6c      	ldr	r2, [pc, #432]	; (8001594 <HAL_RCC_OscConfig+0x4f4>)
 80013e2:	f043 0304 	orr.w	r3, r3, #4
 80013e6:	6213      	str	r3, [r2, #32]
 80013e8:	4b6a      	ldr	r3, [pc, #424]	; (8001594 <HAL_RCC_OscConfig+0x4f4>)
 80013ea:	6a1b      	ldr	r3, [r3, #32]
 80013ec:	4a69      	ldr	r2, [pc, #420]	; (8001594 <HAL_RCC_OscConfig+0x4f4>)
 80013ee:	f043 0301 	orr.w	r3, r3, #1
 80013f2:	6213      	str	r3, [r2, #32]
 80013f4:	e00b      	b.n	800140e <HAL_RCC_OscConfig+0x36e>
 80013f6:	4b67      	ldr	r3, [pc, #412]	; (8001594 <HAL_RCC_OscConfig+0x4f4>)
 80013f8:	6a1b      	ldr	r3, [r3, #32]
 80013fa:	4a66      	ldr	r2, [pc, #408]	; (8001594 <HAL_RCC_OscConfig+0x4f4>)
 80013fc:	f023 0301 	bic.w	r3, r3, #1
 8001400:	6213      	str	r3, [r2, #32]
 8001402:	4b64      	ldr	r3, [pc, #400]	; (8001594 <HAL_RCC_OscConfig+0x4f4>)
 8001404:	6a1b      	ldr	r3, [r3, #32]
 8001406:	4a63      	ldr	r2, [pc, #396]	; (8001594 <HAL_RCC_OscConfig+0x4f4>)
 8001408:	f023 0304 	bic.w	r3, r3, #4
 800140c:	6213      	str	r3, [r2, #32]
 800140e:	687b      	ldr	r3, [r7, #4]
 8001410:	68db      	ldr	r3, [r3, #12]
 8001412:	2b00      	cmp	r3, #0
 8001414:	d015      	beq.n	8001442 <HAL_RCC_OscConfig+0x3a2>
 8001416:	f7ff fb4d 	bl	8000ab4 <HAL_GetTick>
 800141a:	6138      	str	r0, [r7, #16]
 800141c:	e00a      	b.n	8001434 <HAL_RCC_OscConfig+0x394>
 800141e:	f7ff fb49 	bl	8000ab4 <HAL_GetTick>
 8001422:	4602      	mov	r2, r0
 8001424:	693b      	ldr	r3, [r7, #16]
 8001426:	1ad3      	subs	r3, r2, r3
 8001428:	f241 3288 	movw	r2, #5000	; 0x1388
 800142c:	4293      	cmp	r3, r2
 800142e:	d901      	bls.n	8001434 <HAL_RCC_OscConfig+0x394>
 8001430:	2303      	movs	r3, #3
 8001432:	e0ab      	b.n	800158c <HAL_RCC_OscConfig+0x4ec>
 8001434:	4b57      	ldr	r3, [pc, #348]	; (8001594 <HAL_RCC_OscConfig+0x4f4>)
 8001436:	6a1b      	ldr	r3, [r3, #32]
 8001438:	f003 0302 	and.w	r3, r3, #2
 800143c:	2b00      	cmp	r3, #0
 800143e:	d0ee      	beq.n	800141e <HAL_RCC_OscConfig+0x37e>
 8001440:	e014      	b.n	800146c <HAL_RCC_OscConfig+0x3cc>
 8001442:	f7ff fb37 	bl	8000ab4 <HAL_GetTick>
 8001446:	6138      	str	r0, [r7, #16]
 8001448:	e00a      	b.n	8001460 <HAL_RCC_OscConfig+0x3c0>
 800144a:	f7ff fb33 	bl	8000ab4 <HAL_GetTick>
 800144e:	4602      	mov	r2, r0
 8001450:	693b      	ldr	r3, [r7, #16]
 8001452:	1ad3      	subs	r3, r2, r3
 8001454:	f241 3288 	movw	r2, #5000	; 0x1388
 8001458:	4293      	cmp	r3, r2
 800145a:	d901      	bls.n	8001460 <HAL_RCC_OscConfig+0x3c0>
 800145c:	2303      	movs	r3, #3
 800145e:	e095      	b.n	800158c <HAL_RCC_OscConfig+0x4ec>
 8001460:	4b4c      	ldr	r3, [pc, #304]	; (8001594 <HAL_RCC_OscConfig+0x4f4>)
 8001462:	6a1b      	ldr	r3, [r3, #32]
 8001464:	f003 0302 	and.w	r3, r3, #2
 8001468:	2b00      	cmp	r3, #0
 800146a:	d1ee      	bne.n	800144a <HAL_RCC_OscConfig+0x3aa>
 800146c:	7dfb      	ldrb	r3, [r7, #23]
 800146e:	2b01      	cmp	r3, #1
 8001470:	d105      	bne.n	800147e <HAL_RCC_OscConfig+0x3de>
 8001472:	4b48      	ldr	r3, [pc, #288]	; (8001594 <HAL_RCC_OscConfig+0x4f4>)
 8001474:	69db      	ldr	r3, [r3, #28]
 8001476:	4a47      	ldr	r2, [pc, #284]	; (8001594 <HAL_RCC_OscConfig+0x4f4>)
 8001478:	f023 5380 	bic.w	r3, r3, #268435456	; 0x10000000
 800147c:	61d3      	str	r3, [r2, #28]
 800147e:	687b      	ldr	r3, [r7, #4]
 8001480:	69db      	ldr	r3, [r3, #28]
 8001482:	2b00      	cmp	r3, #0
 8001484:	f000 8081 	beq.w	800158a <HAL_RCC_OscConfig+0x4ea>
 8001488:	4b42      	ldr	r3, [pc, #264]	; (8001594 <HAL_RCC_OscConfig+0x4f4>)
 800148a:	685b      	ldr	r3, [r3, #4]
 800148c:	f003 030c 	and.w	r3, r3, #12
 8001490:	2b08      	cmp	r3, #8
 8001492:	d061      	beq.n	8001558 <HAL_RCC_OscConfig+0x4b8>
 8001494:	687b      	ldr	r3, [r7, #4]
 8001496:	69db      	ldr	r3, [r3, #28]
 8001498:	2b02      	cmp	r3, #2
 800149a:	d146      	bne.n	800152a <HAL_RCC_OscConfig+0x48a>
 800149c:	4b3f      	ldr	r3, [pc, #252]	; (800159c <HAL_RCC_OscConfig+0x4fc>)
 800149e:	2200      	movs	r2, #0
 80014a0:	601a      	str	r2, [r3, #0]
 80014a2:	f7ff fb07 	bl	8000ab4 <HAL_GetTick>
 80014a6:	6138      	str	r0, [r7, #16]
 80014a8:	e008      	b.n	80014bc <HAL_RCC_OscConfig+0x41c>
 80014aa:	f7ff fb03 	bl	8000ab4 <HAL_GetTick>
 80014ae:	4602      	mov	r2, r0
 80014b0:	693b      	ldr	r3, [r7, #16]
 80014b2:	1ad3      	subs	r3, r2, r3
 80014b4:	2b02      	cmp	r3, #2
 80014b6:	d901      	bls.n	80014bc <HAL_RCC_OscConfig+0x41c>
 80014b8:	2303      	movs	r3, #3
 80014ba:	e067      	b.n	800158c <HAL_RCC_OscConfig+0x4ec>
 80014bc:	4b35      	ldr	r3, [pc, #212]	; (8001594 <HAL_RCC_OscConfig+0x4f4>)
 80014be:	681b      	ldr	r3, [r3, #0]
 80014c0:	f003 7300 	and.w	r3, r3, #33554432	; 0x2000000
 80014c4:	2b00      	cmp	r3, #0
 80014c6:	d1f0      	bne.n	80014aa <HAL_RCC_OscConfig+0x40a>
 80014c8:	687b      	ldr	r3, [r7, #4]
 80014ca:	6a1b      	ldr	r3, [r3, #32]
 80014cc:	f5b3 3f80 	cmp.w	r3, #65536	; 0x10000
 80014d0:	d108      	bne.n	80014e4 <HAL_RCC_OscConfig+0x444>
 80014d2:	4b30      	ldr	r3, [pc, #192]	; (8001594 <HAL_RCC_OscConfig+0x4f4>)
 80014d4:	685b      	ldr	r3, [r3, #4]
 80014d6:	f423 3200 	bic.w	r2, r3, #131072	; 0x20000
 80014da:	687b      	ldr	r3, [r7, #4]
 80014dc:	689b      	ldr	r3, [r3, #8]
 80014de:	492d      	ldr	r1, [pc, #180]	; (8001594 <HAL_RCC_OscConfig+0x4f4>)
 80014e0:	4313      	orrs	r3, r2
 80014e2:	604b      	str	r3, [r1, #4]
 80014e4:	4b2b      	ldr	r3, [pc, #172]	; (8001594 <HAL_RCC_OscConfig+0x4f4>)
 80014e6:	685b      	ldr	r3, [r3, #4]
 80014e8:	f423 1274 	bic.w	r2, r3, #3997696	; 0x3d0000
 80014ec:	687b      	ldr	r3, [r7, #4]
 80014ee:	6a19      	ldr	r1, [r3, #32]
 80014f0:	687b      	ldr	r3, [r7, #4]
 80014f2:	6a5b      	ldr	r3, [r3, #36]	; 0x24
 80014f4:	430b      	orrs	r3, r1
 80014f6:	4927      	ldr	r1, [pc, #156]	; (8001594 <HAL_RCC_OscConfig+0x4f4>)
 80014f8:	4313      	orrs	r3, r2
 80014fa:	604b      	str	r3, [r1, #4]
 80014fc:	4b27      	ldr	r3, [pc, #156]	; (800159c <HAL_RCC_OscConfig+0x4fc>)
 80014fe:	2201      	movs	r2, #1
 8001500:	601a      	str	r2, [r3, #0]
 8001502:	f7ff fad7 	bl	8000ab4 <HAL_GetTick>
 8001506:	6138      	str	r0, [r7, #16]
 8001508:	e008      	b.n	800151c <HAL_RCC_OscConfig+0x47c>
 800150a:	f7ff fad3 	bl	8000ab4 <HAL_GetTick>
 800150e:	4602      	mov	r2, r0
 8001510:	693b      	ldr	r3, [r7, #16]
 8001512:	1ad3      	subs	r3, r2, r3
 8001514:	2b02      	cmp	r3, #2
 8001516:	d901      	bls.n	800151c <HAL_RCC_OscConfig+0x47c>
 8001518:	2303      	movs	r3, #3
 800151a:	e037      	b.n	800158c <HAL_RCC_OscConfig+0x4ec>
 800151c:	4b1d      	ldr	r3, [pc, #116]	; (8001594 <HAL_RCC_OscConfig+0x4f4>)
 800151e:	681b      	ldr	r3, [r3, #0]
 8001520:	f003 7300 	and.w	r3, r3, #33554432	; 0x2000000
 8001524:	2b00      	cmp	r3, #0
 8001526:	d0f0      	beq.n	800150a <HAL_RCC_OscConfig+0x46a>
 8001528:	e02f      	b.n	800158a <HAL_RCC_OscConfig+0x4ea>
 800152a:	4b1c      	ldr	r3, [pc, #112]	; (800159c <HAL_RCC_OscConfig+0x4fc>)
 800152c:	2200      	movs	r2, #0
 800152e:	601a      	str	r2, [r3, #0]
 8001530:	f7ff fac0 	bl	8000ab4 <HAL_GetTick>
 8001534:	6138      	str	r0, [r7, #16]
 8001536:	e008      	b.n	800154a <HAL_RCC_OscConfig+0x4aa>
 8001538:	f7ff fabc 	bl	8000ab4 <HAL_GetTick>
 800153c:	4602      	mov	r2, r0
 800153e:	693b      	ldr	r3, [r7, #16]
 8001540:	1ad3      	subs	r3, r2, r3
 8001542:	2b02      	cmp	r3, #2
 8001544:	d901      	bls.n	800154a <HAL_RCC_OscConfig+0x4aa>
 8001546:	2303      	movs	r3, #3
 8001548:	e020      	b.n	800158c <HAL_RCC_OscConfig+0x4ec>
 800154a:	4b12      	ldr	r3, [pc, #72]	; (8001594 <HAL_RCC_OscConfig+0x4f4>)
 800154c:	681b      	ldr	r3, [r3, #0]
 800154e:	f003 7300 	and.w	r3, r3, #33554432	; 0x2000000
 8001552:	2b00      	cmp	r3, #0
 8001554:	d1f0      	bne.n	8001538 <HAL_RCC_OscConfig+0x498>
 8001556:	e018      	b.n	800158a <HAL_RCC_OscConfig+0x4ea>
 8001558:	687b      	ldr	r3, [r7, #4]
 800155a:	69db      	ldr	r3, [r3, #28]
 800155c:	2b01      	cmp	r3, #1
 800155e:	d101      	bne.n	8001564 <HAL_RCC_OscConfig+0x4c4>
 8001560:	2301      	movs	r3, #1
 8001562:	e013      	b.n	800158c <HAL_RCC_OscConfig+0x4ec>
 8001564:	4b0b      	ldr	r3, [pc, #44]	; (8001594 <HAL_RCC_OscConfig+0x4f4>)
 8001566:	685b      	ldr	r3, [r3, #4]
 8001568:	60fb      	str	r3, [r7, #12]
 800156a:	68fb      	ldr	r3, [r7, #12]
 800156c:	f403 3280 	and.w	r2, r3, #65536	; 0x10000
 8001570:	687b      	ldr	r3, [r7, #4]
 8001572:	6a1b      	ldr	r3, [r3, #32]
 8001574:	429a      	cmp	r2, r3
 8001576:	d106      	bne.n	8001586 <HAL_RCC_OscConfig+0x4e6>
 8001578:	68fb      	ldr	r3, [r7, #12]
 800157a:	f403 1270 	and.w	r2, r3, #3932160	; 0x3c0000
 800157e:	687b      	ldr	r3, [r7, #4]
 8001580:	6a5b      	ldr	r3, [r3, #36]	; 0x24
 8001582:	429a      	cmp	r2, r3
 8001584:	d001      	beq.n	800158a <HAL_RCC_OscConfig+0x4ea>
 8001586:	2301      	movs	r3, #1
 8001588:	e000      	b.n	800158c <HAL_RCC_OscConfig+0x4ec>
 800158a:	2300      	movs	r3, #0
 800158c:	4618      	mov	r0, r3
 800158e:	3718      	adds	r7, #24
 8001590:	46bd      	mov	sp, r7
 8001592:	bd80      	pop	{r7, pc}
 8001594:	40021000 	.word	0x40021000
 8001598:	40007000 	.word	0x40007000
 800159c:	42420060 	.word	0x42420060

080015a0 <HAL_RCC_ClockConfig>:
 80015a0:	b580      	push	{r7, lr}
 80015a2:	b084      	sub	sp, #16
 80015a4:	af00      	add	r7, sp, #0
 80015a6:	6078      	str	r0, [r7, #4]
 80015a8:	6039      	str	r1, [r7, #0]
 80015aa:	687b      	ldr	r3, [r7, #4]
 80015ac:	2b00      	cmp	r3, #0
 80015ae:	d101      	bne.n	80015b4 <HAL_RCC_ClockConfig+0x14>
 80015b0:	2301      	movs	r3, #1
 80015b2:	e0d0      	b.n	8001756 <HAL_RCC_ClockConfig+0x1b6>
 80015b4:	4b6a      	ldr	r3, [pc, #424]	; (8001760 <HAL_RCC_ClockConfig+0x1c0>)
 80015b6:	681b      	ldr	r3, [r3, #0]
 80015b8:	f003 0307 	and.w	r3, r3, #7
 80015bc:	683a      	ldr	r2, [r7, #0]
 80015be:	429a      	cmp	r2, r3
 80015c0:	d910      	bls.n	80015e4 <HAL_RCC_ClockConfig+0x44>
 80015c2:	4b67      	ldr	r3, [pc, #412]	; (8001760 <HAL_RCC_ClockConfig+0x1c0>)
 80015c4:	681b      	ldr	r3, [r3, #0]
 80015c6:	f023 0207 	bic.w	r2, r3, #7
 80015ca:	4965      	ldr	r1, [pc, #404]	; (8001760 <HAL_RCC_ClockConfig+0x1c0>)
 80015cc:	683b      	ldr	r3, [r7, #0]
 80015ce:	4313      	orrs	r3, r2
 80015d0:	600b      	str	r3, [r1, #0]
 80015d2:	4b63      	ldr	r3, [pc, #396]	; (8001760 <HAL_RCC_ClockConfig+0x1c0>)
 80015d4:	681b      	ldr	r3, [r3, #0]
 80015d6:	f003 0307 	and.w	r3, r3, #7
 80015da:	683a      	ldr	r2, [r7, #0]
 80015dc:	429a      	cmp	r2, r3
 80015de:	d001      	beq.n	80015e4 <HAL_RCC_ClockConfig+0x44>
 80015e0:	2301      	movs	r3, #1
 80015e2:	e0b8      	b.n	8001756 <HAL_RCC_ClockConfig+0x1b6>
 80015e4:	687b      	ldr	r3, [r7, #4]
 80015e6:	681b      	ldr	r3, [r3, #0]
 80015e8:	f003 0302 	and.w	r3, r3, #2
 80015ec:	2b00      	cmp	r3, #0
 80015ee:	d020      	beq.n	8001632 <HAL_RCC_ClockConfig+0x92>
 80015f0:	687b      	ldr	r3, [r7, #4]
 80015f2:	681b      	ldr	r3, [r3, #0]
 80015f4:	f003 0304 	and.w	r3, r3, #4
 80015f8:	2b00      	cmp	r3, #0
 80015fa:	d005      	beq.n	8001608 <HAL_RCC_ClockConfig+0x68>
 80015fc:	4b59      	ldr	r3, [pc, #356]	; (8001764 <HAL_RCC_ClockConfig+0x1c4>)
 80015fe:	685b      	ldr	r3, [r3, #4]
 8001600:	4a58      	ldr	r2, [pc, #352]	; (8001764 <HAL_RCC_ClockConfig+0x1c4>)
 8001602:	f443 63e0 	orr.w	r3, r3, #1792	; 0x700
 8001606:	6053      	str	r3, [r2, #4]
 8001608:	687b      	ldr	r3, [r7, #4]
 800160a:	681b      	ldr	r3, [r3, #0]
 800160c:	f003 0308 	and.w	r3, r3, #8
 8001610:	2b00      	cmp	r3, #0
 8001612:	d005      	beq.n	8001620 <HAL_RCC_ClockConfig+0x80>
 8001614:	4b53      	ldr	r3, [pc, #332]	; (8001764 <HAL_RCC_ClockConfig+0x1c4>)
 8001616:	685b      	ldr	r3, [r3, #4]
 8001618:	4a52      	ldr	r2, [pc, #328]	; (8001764 <HAL_RCC_ClockConfig+0x1c4>)
 800161a:	f443 5360 	orr.w	r3, r3, #14336	; 0x3800
 800161e:	6053      	str	r3, [r2, #4]
 8001620:	4b50      	ldr	r3, [pc, #320]	; (8001764 <HAL_RCC_ClockConfig+0x1c4>)
 8001622:	685b      	ldr	r3, [r3, #4]
 8001624:	f023 02f0 	bic.w	r2, r3, #240	; 0xf0
 8001628:	687b      	ldr	r3, [r7, #4]
 800162a:	689b      	ldr	r3, [r3, #8]
 800162c:	494d      	ldr	r1, [pc, #308]	; (8001764 <HAL_RCC_ClockConfig+0x1c4>)
 800162e:	4313      	orrs	r3, r2
 8001630:	604b      	str	r3, [r1, #4]
 8001632:	687b      	ldr	r3, [r7, #4]
 8001634:	681b      	ldr	r3, [r3, #0]
 8001636:	f003 0301 	and.w	r3, r3, #1
 800163a:	2b00      	cmp	r3, #0
 800163c:	d040      	beq.n	80016c0 <HAL_RCC_ClockConfig+0x120>
 800163e:	687b      	ldr	r3, [r7, #4]
 8001640:	685b      	ldr	r3, [r3, #4]
 8001642:	2b01      	cmp	r3, #1
 8001644:	d107      	bne.n	8001656 <HAL_RCC_ClockConfig+0xb6>
 8001646:	4b47      	ldr	r3, [pc, #284]	; (8001764 <HAL_RCC_ClockConfig+0x1c4>)
 8001648:	681b      	ldr	r3, [r3, #0]
 800164a:	f403 3300 	and.w	r3, r3, #131072	; 0x20000
 800164e:	2b00      	cmp	r3, #0
 8001650:	d115      	bne.n	800167e <HAL_RCC_ClockConfig+0xde>
 8001652:	2301      	movs	r3, #1
 8001654:	e07f      	b.n	8001756 <HAL_RCC_ClockConfig+0x1b6>
 8001656:	687b      	ldr	r3, [r7, #4]
 8001658:	685b      	ldr	r3, [r3, #4]
 800165a:	2b02      	cmp	r3, #2
 800165c:	d107      	bne.n	800166e <HAL_RCC_ClockConfig+0xce>
 800165e:	4b41      	ldr	r3, [pc, #260]	; (8001764 <HAL_RCC_ClockConfig+0x1c4>)
 8001660:	681b      	ldr	r3, [r3, #0]
 8001662:	f003 7300 	and.w	r3, r3, #33554432	; 0x2000000
 8001666:	2b00      	cmp	r3, #0
 8001668:	d109      	bne.n	800167e <HAL_RCC_ClockConfig+0xde>
 800166a:	2301      	movs	r3, #1
 800166c:	e073      	b.n	8001756 <HAL_RCC_ClockConfig+0x1b6>
 800166e:	4b3d      	ldr	r3, [pc, #244]	; (8001764 <HAL_RCC_ClockConfig+0x1c4>)
 8001670:	681b      	ldr	r3, [r3, #0]
 8001672:	f003 0302 	and.w	r3, r3, #2
 8001676:	2b00      	cmp	r3, #0
 8001678:	d101      	bne.n	800167e <HAL_RCC_ClockConfig+0xde>
 800167a:	2301      	movs	r3, #1
 800167c:	e06b      	b.n	8001756 <HAL_RCC_ClockConfig+0x1b6>
 800167e:	4b39      	ldr	r3, [pc, #228]	; (8001764 <HAL_RCC_ClockConfig+0x1c4>)
 8001680:	685b      	ldr	r3, [r3, #4]
 8001682:	f023 0203 	bic.w	r2, r3, #3
 8001686:	687b      	ldr	r3, [r7, #4]
 8001688:	685b      	ldr	r3, [r3, #4]
 800168a:	4936      	ldr	r1, [pc, #216]	; (8001764 <HAL_RCC_ClockConfig+0x1c4>)
 800168c:	4313      	orrs	r3, r2
 800168e:	604b      	str	r3, [r1, #4]
 8001690:	f7ff fa10 	bl	8000ab4 <HAL_GetTick>
 8001694:	60f8      	str	r0, [r7, #12]
 8001696:	e00a      	b.n	80016ae <HAL_RCC_ClockConfig+0x10e>
 8001698:	f7ff fa0c 	bl	8000ab4 <HAL_GetTick>
 800169c:	4602      	mov	r2, r0
 800169e:	68fb      	ldr	r3, [r7, #12]
 80016a0:	1ad3      	subs	r3, r2, r3
 80016a2:	f241 3288 	movw	r2, #5000	; 0x1388
 80016a6:	4293      	cmp	r3, r2
 80016a8:	d901      	bls.n	80016ae <HAL_RCC_ClockConfig+0x10e>
 80016aa:	2303      	movs	r3, #3
 80016ac:	e053      	b.n	8001756 <HAL_RCC_ClockConfig+0x1b6>
 80016ae:	4b2d      	ldr	r3, [pc, #180]	; (8001764 <HAL_RCC_ClockConfig+0x1c4>)
 80016b0:	685b      	ldr	r3, [r3, #4]
 80016b2:	f003 020c 	and.w	r2, r3, #12
 80016b6:	687b      	ldr	r3, [r7, #4]
 80016b8:	685b      	ldr	r3, [r3, #4]
 80016ba:	009b      	lsls	r3, r3, #2
 80016bc:	429a      	cmp	r2, r3
 80016be:	d1eb      	bne.n	8001698 <HAL_RCC_ClockConfig+0xf8>
 80016c0:	4b27      	ldr	r3, [pc, #156]	; (8001760 <HAL_RCC_ClockConfig+0x1c0>)
 80016c2:	681b      	ldr	r3, [r3, #0]
 80016c4:	f003 0307 	and.w	r3, r3, #7
 80016c8:	683a      	ldr	r2, [r7, #0]
 80016ca:	429a      	cmp	r2, r3
 80016cc:	d210      	bcs.n	80016f0 <HAL_RCC_ClockConfig+0x150>
 80016ce:	4b24      	ldr	r3, [pc, #144]	; (8001760 <HAL_RCC_ClockConfig+0x1c0>)
 80016d0:	681b      	ldr	r3, [r3, #0]
 80016d2:	f023 0207 	bic.w	r2, r3, #7
 80016d6:	4922      	ldr	r1, [pc, #136]	; (8001760 <HAL_RCC_ClockConfig+0x1c0>)
 80016d8:	683b      	ldr	r3, [r7, #0]
 80016da:	4313      	orrs	r3, r2
 80016dc:	600b      	str	r3, [r1, #0]
 80016de:	4b20      	ldr	r3, [pc, #128]	; (8001760 <HAL_RCC_ClockConfig+0x1c0>)
 80016e0:	681b      	ldr	r3, [r3, #0]
 80016e2:	f003 0307 	and.w	r3, r3, #7
 80016e6:	683a      	ldr	r2, [r7, #0]
 80016e8:	429a      	cmp	r2, r3
 80016ea:	d001      	beq.n	80016f0 <HAL_RCC_ClockConfig+0x150>
 80016ec:	2301      	movs	r3, #1
 80016ee:	e032      	b.n	8001756 <HAL_RCC_ClockConfig+0x1b6>
 80016f0:	687b      	ldr	r3, [r7, #4]
 80016f2:	681b      	ldr	r3, [r3, #0]
 80016f4:	f003 0304 	and.w	r3, r3, #4
 80016f8:	2b00      	cmp	r3, #0
 80016fa:	d008      	beq.n	800170e <HAL_RCC_ClockConfig+0x16e>
 80016fc:	4b19      	ldr	r3, [pc, #100]	; (8001764 <HAL_RCC_ClockConfig+0x1c4>)
 80016fe:	685b      	ldr	r3, [r3, #4]
 8001700:	f423 62e0 	bic.w	r2, r3, #1792	; 0x700
 8001704:	687b      	ldr	r3, [r7, #4]
 8001706:	68db      	ldr	r3, [r3, #12]
 8001708:	4916      	ldr	r1, [pc, #88]	; (8001764 <HAL_RCC_ClockConfig+0x1c4>)
 800170a:	4313      	orrs	r3, r2
 800170c:	604b      	str	r3, [r1, #4]
 800170e:	687b      	ldr	r3, [r7, #4]
 8001710:	681b      	ldr	r3, [r3, #0]
 8001712:	f003 0308 	and.w	r3, r3, #8
 8001716:	2b00      	cmp	r3, #0
 8001718:	d009      	beq.n	800172e <HAL_RCC_ClockConfig+0x18e>
 800171a:	4b12      	ldr	r3, [pc, #72]	; (8001764 <HAL_RCC_ClockConfig+0x1c4>)
 800171c:	685b      	ldr	r3, [r3, #4]
 800171e:	f423 5260 	bic.w	r2, r3, #14336	; 0x3800
 8001722:	687b      	ldr	r3, [r7, #4]
 8001724:	691b      	ldr	r3, [r3, #16]
 8001726:	00db      	lsls	r3, r3, #3
 8001728:	490e      	ldr	r1, [pc, #56]	; (8001764 <HAL_RCC_ClockConfig+0x1c4>)
 800172a:	4313      	orrs	r3, r2
 800172c:	604b      	str	r3, [r1, #4]
 800172e:	f000 f821 	bl	8001774 <HAL_RCC_GetSysClockFreq>
 8001732:	4601      	mov	r1, r0
 8001734:	4b0b      	ldr	r3, [pc, #44]	; (8001764 <HAL_RCC_ClockConfig+0x1c4>)
 8001736:	685b      	ldr	r3, [r3, #4]
 8001738:	091b      	lsrs	r3, r3, #4
 800173a:	f003 030f 	and.w	r3, r3, #15
 800173e:	4a0a      	ldr	r2, [pc, #40]	; (8001768 <HAL_RCC_ClockConfig+0x1c8>)
 8001740:	5cd3      	ldrb	r3, [r2, r3]
 8001742:	fa21 f303 	lsr.w	r3, r1, r3
 8001746:	4a09      	ldr	r2, [pc, #36]	; (800176c <HAL_RCC_ClockConfig+0x1cc>)
 8001748:	6013      	str	r3, [r2, #0]
 800174a:	4b09      	ldr	r3, [pc, #36]	; (8001770 <HAL_RCC_ClockConfig+0x1d0>)
 800174c:	681b      	ldr	r3, [r3, #0]
 800174e:	4618      	mov	r0, r3
 8001750:	f7ff f96e 	bl	8000a30 <HAL_InitTick>
 8001754:	2300      	movs	r3, #0
 8001756:	4618      	mov	r0, r3
 8001758:	3710      	adds	r7, #16
 800175a:	46bd      	mov	sp, r7
 800175c:	bd80      	pop	{r7, pc}
 800175e:	bf00      	nop
 8001760:	40022000 	.word	0x40022000
 8001764:	40021000 	.word	0x40021000
 8001768:	0800903c 	.word	0x0800903c
 800176c:	20000008 	.word	0x20000008
 8001770:	20000000 	.word	0x20000000

08001774 <HAL_RCC_GetSysClockFreq>:
 8001774:	b490      	push	{r4, r7}
 8001776:	b08a      	sub	sp, #40	; 0x28
 8001778:	af00      	add	r7, sp, #0
 800177a:	4b2a      	ldr	r3, [pc, #168]	; (8001824 <HAL_RCC_GetSysClockFreq+0xb0>)
 800177c:	1d3c      	adds	r4, r7, #4
 800177e:	cb0f      	ldmia	r3, {r0, r1, r2, r3}
 8001780:	e884 000f 	stmia.w	r4, {r0, r1, r2, r3}
 8001784:	4b28      	ldr	r3, [pc, #160]	; (8001828 <HAL_RCC_GetSysClockFreq+0xb4>)
 8001786:	881b      	ldrh	r3, [r3, #0]
 8001788:	803b      	strh	r3, [r7, #0]
 800178a:	2300      	movs	r3, #0
 800178c:	61fb      	str	r3, [r7, #28]
 800178e:	2300      	movs	r3, #0
 8001790:	61bb      	str	r3, [r7, #24]
 8001792:	2300      	movs	r3, #0
 8001794:	627b      	str	r3, [r7, #36]	; 0x24
 8001796:	2300      	movs	r3, #0
 8001798:	617b      	str	r3, [r7, #20]
 800179a:	2300      	movs	r3, #0
 800179c:	623b      	str	r3, [r7, #32]
 800179e:	4b23      	ldr	r3, [pc, #140]	; (800182c <HAL_RCC_GetSysClockFreq+0xb8>)
 80017a0:	685b      	ldr	r3, [r3, #4]
 80017a2:	61fb      	str	r3, [r7, #28]
 80017a4:	69fb      	ldr	r3, [r7, #28]
 80017a6:	f003 030c 	and.w	r3, r3, #12
 80017aa:	2b04      	cmp	r3, #4
 80017ac:	d002      	beq.n	80017b4 <HAL_RCC_GetSysClockFreq+0x40>
 80017ae:	2b08      	cmp	r3, #8
 80017b0:	d003      	beq.n	80017ba <HAL_RCC_GetSysClockFreq+0x46>
 80017b2:	e02d      	b.n	8001810 <HAL_RCC_GetSysClockFreq+0x9c>
 80017b4:	4b1e      	ldr	r3, [pc, #120]	; (8001830 <HAL_RCC_GetSysClockFreq+0xbc>)
 80017b6:	623b      	str	r3, [r7, #32]
 80017b8:	e02d      	b.n	8001816 <HAL_RCC_GetSysClockFreq+0xa2>
 80017ba:	69fb      	ldr	r3, [r7, #28]
 80017bc:	0c9b      	lsrs	r3, r3, #18
 80017be:	f003 030f 	and.w	r3, r3, #15
 80017c2:	f107 0228 	add.w	r2, r7, #40	; 0x28
 80017c6:	4413      	add	r3, r2
 80017c8:	f813 3c24 	ldrb.w	r3, [r3, #-36]
 80017cc:	617b      	str	r3, [r7, #20]
 80017ce:	69fb      	ldr	r3, [r7, #28]
 80017d0:	f403 3380 	and.w	r3, r3, #65536	; 0x10000
 80017d4:	2b00      	cmp	r3, #0
 80017d6:	d013      	beq.n	8001800 <HAL_RCC_GetSysClockFreq+0x8c>
 80017d8:	4b14      	ldr	r3, [pc, #80]	; (800182c <HAL_RCC_GetSysClockFreq+0xb8>)
 80017da:	685b      	ldr	r3, [r3, #4]
 80017dc:	0c5b      	lsrs	r3, r3, #17
 80017de:	f003 0301 	and.w	r3, r3, #1
 80017e2:	f107 0228 	add.w	r2, r7, #40	; 0x28
 80017e6:	4413      	add	r3, r2
 80017e8:	f813 3c28 	ldrb.w	r3, [r3, #-40]
 80017ec:	61bb      	str	r3, [r7, #24]
 80017ee:	697b      	ldr	r3, [r7, #20]
 80017f0:	4a0f      	ldr	r2, [pc, #60]	; (8001830 <HAL_RCC_GetSysClockFreq+0xbc>)
 80017f2:	fb02 f203 	mul.w	r2, r2, r3
 80017f6:	69bb      	ldr	r3, [r7, #24]
 80017f8:	fbb2 f3f3 	udiv	r3, r2, r3
 80017fc:	627b      	str	r3, [r7, #36]	; 0x24
 80017fe:	e004      	b.n	800180a <HAL_RCC_GetSysClockFreq+0x96>
 8001800:	697b      	ldr	r3, [r7, #20]
 8001802:	4a0c      	ldr	r2, [pc, #48]	; (8001834 <HAL_RCC_GetSysClockFreq+0xc0>)
 8001804:	fb02 f303 	mul.w	r3, r2, r3
 8001808:	627b      	str	r3, [r7, #36]	; 0x24
 800180a:	6a7b      	ldr	r3, [r7, #36]	; 0x24
 800180c:	623b      	str	r3, [r7, #32]
 800180e:	e002      	b.n	8001816 <HAL_RCC_GetSysClockFreq+0xa2>
 8001810:	4b07      	ldr	r3, [pc, #28]	; (8001830 <HAL_RCC_GetSysClockFreq+0xbc>)
 8001812:	623b      	str	r3, [r7, #32]
 8001814:	bf00      	nop
 8001816:	6a3b      	ldr	r3, [r7, #32]
 8001818:	4618      	mov	r0, r3
 800181a:	3728      	adds	r7, #40	; 0x28
 800181c:	46bd      	mov	sp, r7
 800181e:	bc90      	pop	{r4, r7}
 8001820:	4770      	bx	lr
 8001822:	bf00      	nop
 8001824:	08007850 	.word	0x08007850
 8001828:	08007860 	.word	0x08007860
 800182c:	40021000 	.word	0x40021000
 8001830:	007a1200 	.word	0x007a1200
 8001834:	003d0900 	.word	0x003d0900

08001838 <RCC_Delay>:
 8001838:	b480      	push	{r7}
 800183a:	b085      	sub	sp, #20
 800183c:	af00      	add	r7, sp, #0
 800183e:	6078      	str	r0, [r7, #4]
 8001840:	4b0a      	ldr	r3, [pc, #40]	; (800186c <RCC_Delay+0x34>)
 8001842:	681b      	ldr	r3, [r3, #0]
 8001844:	4a0a      	ldr	r2, [pc, #40]	; (8001870 <RCC_Delay+0x38>)
 8001846:	fba2 2303 	umull	r2, r3, r2, r3
 800184a:	0a5b      	lsrs	r3, r3, #9
 800184c:	687a      	ldr	r2, [r7, #4]
 800184e:	fb02 f303 	mul.w	r3, r2, r3
 8001852:	60fb      	str	r3, [r7, #12]
 8001854:	bf00      	nop
 8001856:	68fb      	ldr	r3, [r7, #12]
 8001858:	1e5a      	subs	r2, r3, #1
 800185a:	60fa      	str	r2, [r7, #12]
 800185c:	2b00      	cmp	r3, #0
 800185e:	d1f9      	bne.n	8001854 <RCC_Delay+0x1c>
 8001860:	bf00      	nop
 8001862:	3714      	adds	r7, #20
 8001864:	46bd      	mov	sp, r7
 8001866:	bc80      	pop	{r7}
 8001868:	4770      	bx	lr
 800186a:	bf00      	nop
 800186c:	20000008 	.word	0x20000008
 8001870:	10624dd3 	.word	0x10624dd3

08001874 <MX_GPIO_Init>:
 8001874:	b580      	push	{r7, lr}
 8001876:	b088      	sub	sp, #32
 8001878:	af00      	add	r7, sp, #0
 800187a:	f107 0310 	add.w	r3, r7, #16
 800187e:	2200      	movs	r2, #0
 8001880:	601a      	str	r2, [r3, #0]
 8001882:	605a      	str	r2, [r3, #4]
 8001884:	609a      	str	r2, [r3, #8]
 8001886:	60da      	str	r2, [r3, #12]
 8001888:	4b46      	ldr	r3, [pc, #280]	; (80019a4 <MX_GPIO_Init+0x130>)
 800188a:	699b      	ldr	r3, [r3, #24]
 800188c:	4a45      	ldr	r2, [pc, #276]	; (80019a4 <MX_GPIO_Init+0x130>)
 800188e:	f043 0320 	orr.w	r3, r3, #32
 8001892:	6193      	str	r3, [r2, #24]
 8001894:	4b43      	ldr	r3, [pc, #268]	; (80019a4 <MX_GPIO_Init+0x130>)
 8001896:	699b      	ldr	r3, [r3, #24]
 8001898:	f003 0320 	and.w	r3, r3, #32
 800189c:	60fb      	str	r3, [r7, #12]
 800189e:	68fb      	ldr	r3, [r7, #12]
 80018a0:	4b40      	ldr	r3, [pc, #256]	; (80019a4 <MX_GPIO_Init+0x130>)
 80018a2:	699b      	ldr	r3, [r3, #24]
 80018a4:	4a3f      	ldr	r2, [pc, #252]	; (80019a4 <MX_GPIO_Init+0x130>)
 80018a6:	f043 0304 	orr.w	r3, r3, #4
 80018aa:	6193      	str	r3, [r2, #24]
 80018ac:	4b3d      	ldr	r3, [pc, #244]	; (80019a4 <MX_GPIO_Init+0x130>)
 80018ae:	699b      	ldr	r3, [r3, #24]
 80018b0:	f003 0304 	and.w	r3, r3, #4
 80018b4:	60bb      	str	r3, [r7, #8]
 80018b6:	68bb      	ldr	r3, [r7, #8]
 80018b8:	4b3a      	ldr	r3, [pc, #232]	; (80019a4 <MX_GPIO_Init+0x130>)
 80018ba:	699b      	ldr	r3, [r3, #24]
 80018bc:	4a39      	ldr	r2, [pc, #228]	; (80019a4 <MX_GPIO_Init+0x130>)
 80018be:	f043 0310 	orr.w	r3, r3, #16
 80018c2:	6193      	str	r3, [r2, #24]
 80018c4:	4b37      	ldr	r3, [pc, #220]	; (80019a4 <MX_GPIO_Init+0x130>)
 80018c6:	699b      	ldr	r3, [r3, #24]
 80018c8:	f003 0310 	and.w	r3, r3, #16
 80018cc:	607b      	str	r3, [r7, #4]
 80018ce:	687b      	ldr	r3, [r7, #4]
 80018d0:	2200      	movs	r2, #0
 80018d2:	f44f 7180 	mov.w	r1, #256	; 0x100
 80018d6:	4834      	ldr	r0, [pc, #208]	; (80019a8 <MX_GPIO_Init+0x134>)
 80018d8:	f7ff fba7 	bl	800102a <HAL_GPIO_WritePin>
 80018dc:	2200      	movs	r2, #0
 80018de:	2104      	movs	r1, #4
 80018e0:	4832      	ldr	r0, [pc, #200]	; (80019ac <MX_GPIO_Init+0x138>)
 80018e2:	f7ff fba2 	bl	800102a <HAL_GPIO_WritePin>
 80018e6:	2301      	movs	r3, #1
 80018e8:	613b      	str	r3, [r7, #16]
 80018ea:	4b31      	ldr	r3, [pc, #196]	; (80019b0 <MX_GPIO_Init+0x13c>)
 80018ec:	617b      	str	r3, [r7, #20]
 80018ee:	2302      	movs	r3, #2
 80018f0:	61bb      	str	r3, [r7, #24]
 80018f2:	f107 0310 	add.w	r3, r7, #16
 80018f6:	4619      	mov	r1, r3
 80018f8:	482b      	ldr	r0, [pc, #172]	; (80019a8 <MX_GPIO_Init+0x134>)
 80018fa:	f7ff fa15 	bl	8000d28 <HAL_GPIO_Init>
 80018fe:	2320      	movs	r3, #32
 8001900:	613b      	str	r3, [r7, #16]
 8001902:	4b2b      	ldr	r3, [pc, #172]	; (80019b0 <MX_GPIO_Init+0x13c>)
 8001904:	617b      	str	r3, [r7, #20]
 8001906:	2301      	movs	r3, #1
 8001908:	61bb      	str	r3, [r7, #24]
 800190a:	f107 0310 	add.w	r3, r7, #16
 800190e:	4619      	mov	r1, r3
 8001910:	4828      	ldr	r0, [pc, #160]	; (80019b4 <MX_GPIO_Init+0x140>)
 8001912:	f7ff fa09 	bl	8000d28 <HAL_GPIO_Init>
 8001916:	f44f 7380 	mov.w	r3, #256	; 0x100
 800191a:	613b      	str	r3, [r7, #16]
 800191c:	2301      	movs	r3, #1
 800191e:	617b      	str	r3, [r7, #20]
 8001920:	2300      	movs	r3, #0
 8001922:	61bb      	str	r3, [r7, #24]
 8001924:	2302      	movs	r3, #2
 8001926:	61fb      	str	r3, [r7, #28]
 8001928:	f107 0310 	add.w	r3, r7, #16
 800192c:	4619      	mov	r1, r3
 800192e:	481e      	ldr	r0, [pc, #120]	; (80019a8 <MX_GPIO_Init+0x134>)
 8001930:	f7ff f9fa 	bl	8000d28 <HAL_GPIO_Init>
 8001934:	f44f 4300 	mov.w	r3, #32768	; 0x8000
 8001938:	613b      	str	r3, [r7, #16]
 800193a:	4b1d      	ldr	r3, [pc, #116]	; (80019b0 <MX_GPIO_Init+0x13c>)
 800193c:	617b      	str	r3, [r7, #20]
 800193e:	2301      	movs	r3, #1
 8001940:	61bb      	str	r3, [r7, #24]
 8001942:	f107 0310 	add.w	r3, r7, #16
 8001946:	4619      	mov	r1, r3
 8001948:	4817      	ldr	r0, [pc, #92]	; (80019a8 <MX_GPIO_Init+0x134>)
 800194a:	f7ff f9ed 	bl	8000d28 <HAL_GPIO_Init>
 800194e:	2304      	movs	r3, #4
 8001950:	613b      	str	r3, [r7, #16]
 8001952:	2301      	movs	r3, #1
 8001954:	617b      	str	r3, [r7, #20]
 8001956:	2300      	movs	r3, #0
 8001958:	61bb      	str	r3, [r7, #24]
 800195a:	2302      	movs	r3, #2
 800195c:	61fb      	str	r3, [r7, #28]
 800195e:	f107 0310 	add.w	r3, r7, #16
 8001962:	4619      	mov	r1, r3
 8001964:	4811      	ldr	r0, [pc, #68]	; (80019ac <MX_GPIO_Init+0x138>)
 8001966:	f7ff f9df 	bl	8000d28 <HAL_GPIO_Init>
 800196a:	2200      	movs	r2, #0
 800196c:	2101      	movs	r1, #1
 800196e:	2006      	movs	r0, #6
 8001970:	f7ff f9a3 	bl	8000cba <HAL_NVIC_SetPriority>
 8001974:	2006      	movs	r0, #6
 8001976:	f7ff f9bc 	bl	8000cf2 <HAL_NVIC_EnableIRQ>
 800197a:	2201      	movs	r2, #1
 800197c:	2101      	movs	r1, #1
 800197e:	2017      	movs	r0, #23
 8001980:	f7ff f99b 	bl	8000cba <HAL_NVIC_SetPriority>
 8001984:	2017      	movs	r0, #23
 8001986:	f7ff f9b4 	bl	8000cf2 <HAL_NVIC_EnableIRQ>
 800198a:	2202      	movs	r2, #2
 800198c:	2101      	movs	r1, #1
 800198e:	2028      	movs	r0, #40	; 0x28
 8001990:	f7ff f993 	bl	8000cba <HAL_NVIC_SetPriority>
 8001994:	2028      	movs	r0, #40	; 0x28
 8001996:	f7ff f9ac 	bl	8000cf2 <HAL_NVIC_EnableIRQ>
 800199a:	bf00      	nop
 800199c:	3720      	adds	r7, #32
 800199e:	46bd      	mov	sp, r7
 80019a0:	bd80      	pop	{r7, pc}
 80019a2:	bf00      	nop
 80019a4:	40021000 	.word	0x40021000
 80019a8:	40010800 	.word	0x40010800
 80019ac:	40011400 	.word	0x40011400
 80019b0:	10110000 	.word	0x10110000
 80019b4:	40011000 	.word	0x40011000

080019b8 <LCD_WR_REG>:
 80019b8:	b480      	push	{r7}
 80019ba:	b083      	sub	sp, #12
 80019bc:	af00      	add	r7, sp, #0
 80019be:	4603      	mov	r3, r0
 80019c0:	80fb      	strh	r3, [r7, #6]
 80019c2:	4b0d      	ldr	r3, [pc, #52]	; (80019f8 <LCD_WR_REG+0x40>)
 80019c4:	f44f 7280 	mov.w	r2, #256	; 0x100
 80019c8:	615a      	str	r2, [r3, #20]
 80019ca:	4b0b      	ldr	r3, [pc, #44]	; (80019f8 <LCD_WR_REG+0x40>)
 80019cc:	f44f 7200 	mov.w	r2, #512	; 0x200
 80019d0:	615a      	str	r2, [r3, #20]
 80019d2:	4a0a      	ldr	r2, [pc, #40]	; (80019fc <LCD_WR_REG+0x44>)
 80019d4:	88fb      	ldrh	r3, [r7, #6]
 80019d6:	60d3      	str	r3, [r2, #12]
 80019d8:	4b07      	ldr	r3, [pc, #28]	; (80019f8 <LCD_WR_REG+0x40>)
 80019da:	2280      	movs	r2, #128	; 0x80
 80019dc:	615a      	str	r2, [r3, #20]
 80019de:	4b06      	ldr	r3, [pc, #24]	; (80019f8 <LCD_WR_REG+0x40>)
 80019e0:	2280      	movs	r2, #128	; 0x80
 80019e2:	611a      	str	r2, [r3, #16]
 80019e4:	4b04      	ldr	r3, [pc, #16]	; (80019f8 <LCD_WR_REG+0x40>)
 80019e6:	f44f 7200 	mov.w	r2, #512	; 0x200
 80019ea:	611a      	str	r2, [r3, #16]
 80019ec:	bf00      	nop
 80019ee:	370c      	adds	r7, #12
 80019f0:	46bd      	mov	sp, r7
 80019f2:	bc80      	pop	{r7}
 80019f4:	4770      	bx	lr
 80019f6:	bf00      	nop
 80019f8:	40011000 	.word	0x40011000
 80019fc:	40010c00 	.word	0x40010c00

08001a00 <LCD_WR_DATAX>:
 8001a00:	b480      	push	{r7}
 8001a02:	b083      	sub	sp, #12
 8001a04:	af00      	add	r7, sp, #0
 8001a06:	4603      	mov	r3, r0
 8001a08:	80fb      	strh	r3, [r7, #6]
 8001a0a:	4b0d      	ldr	r3, [pc, #52]	; (8001a40 <LCD_WR_DATAX+0x40>)
 8001a0c:	f44f 7280 	mov.w	r2, #256	; 0x100
 8001a10:	611a      	str	r2, [r3, #16]
 8001a12:	4b0b      	ldr	r3, [pc, #44]	; (8001a40 <LCD_WR_DATAX+0x40>)
 8001a14:	f44f 7200 	mov.w	r2, #512	; 0x200
 8001a18:	615a      	str	r2, [r3, #20]
 8001a1a:	4a0a      	ldr	r2, [pc, #40]	; (8001a44 <LCD_WR_DATAX+0x44>)
 8001a1c:	88fb      	ldrh	r3, [r7, #6]
 8001a1e:	60d3      	str	r3, [r2, #12]
 8001a20:	4b07      	ldr	r3, [pc, #28]	; (8001a40 <LCD_WR_DATAX+0x40>)
 8001a22:	2280      	movs	r2, #128	; 0x80
 8001a24:	615a      	str	r2, [r3, #20]
 8001a26:	4b06      	ldr	r3, [pc, #24]	; (8001a40 <LCD_WR_DATAX+0x40>)
 8001a28:	2280      	movs	r2, #128	; 0x80
 8001a2a:	611a      	str	r2, [r3, #16]
 8001a2c:	4b04      	ldr	r3, [pc, #16]	; (8001a40 <LCD_WR_DATAX+0x40>)
 8001a2e:	f44f 7200 	mov.w	r2, #512	; 0x200
 8001a32:	611a      	str	r2, [r3, #16]
 8001a34:	bf00      	nop
 8001a36:	370c      	adds	r7, #12
 8001a38:	46bd      	mov	sp, r7
 8001a3a:	bc80      	pop	{r7}
 8001a3c:	4770      	bx	lr
 8001a3e:	bf00      	nop
 8001a40:	40011000 	.word	0x40011000
 8001a44:	40010c00 	.word	0x40010c00

08001a48 <LCD_RD_DATA>:
 8001a48:	b580      	push	{r7, lr}
 8001a4a:	b082      	sub	sp, #8
 8001a4c:	af00      	add	r7, sp, #0
 8001a4e:	4b1d      	ldr	r3, [pc, #116]	; (8001ac4 <LCD_RD_DATA+0x7c>)
 8001a50:	f04f 3288 	mov.w	r2, #2290649224	; 0x88888888
 8001a54:	601a      	str	r2, [r3, #0]
 8001a56:	4b1b      	ldr	r3, [pc, #108]	; (8001ac4 <LCD_RD_DATA+0x7c>)
 8001a58:	f04f 3288 	mov.w	r2, #2290649224	; 0x88888888
 8001a5c:	605a      	str	r2, [r3, #4]
 8001a5e:	4b19      	ldr	r3, [pc, #100]	; (8001ac4 <LCD_RD_DATA+0x7c>)
 8001a60:	2200      	movs	r2, #0
 8001a62:	60da      	str	r2, [r3, #12]
 8001a64:	4b18      	ldr	r3, [pc, #96]	; (8001ac8 <LCD_RD_DATA+0x80>)
 8001a66:	f44f 7280 	mov.w	r2, #256	; 0x100
 8001a6a:	611a      	str	r2, [r3, #16]
 8001a6c:	4b16      	ldr	r3, [pc, #88]	; (8001ac8 <LCD_RD_DATA+0x80>)
 8001a6e:	f44f 7200 	mov.w	r2, #512	; 0x200
 8001a72:	615a      	str	r2, [r3, #20]
 8001a74:	4b14      	ldr	r3, [pc, #80]	; (8001ac8 <LCD_RD_DATA+0x80>)
 8001a76:	2240      	movs	r2, #64	; 0x40
 8001a78:	615a      	str	r2, [r3, #20]
 8001a7a:	4b14      	ldr	r3, [pc, #80]	; (8001acc <LCD_RD_DATA+0x84>)
 8001a7c:	889b      	ldrh	r3, [r3, #4]
 8001a7e:	f648 1289 	movw	r2, #35209	; 0x8989
 8001a82:	4293      	cmp	r3, r2
 8001a84:	d102      	bne.n	8001a8c <LCD_RD_DATA+0x44>
 8001a86:	2001      	movs	r0, #1
 8001a88:	f7ff f81e 	bl	8000ac8 <HAL_Delay>
 8001a8c:	4b0d      	ldr	r3, [pc, #52]	; (8001ac4 <LCD_RD_DATA+0x7c>)
 8001a8e:	689b      	ldr	r3, [r3, #8]
 8001a90:	80fb      	strh	r3, [r7, #6]
 8001a92:	4b0d      	ldr	r3, [pc, #52]	; (8001ac8 <LCD_RD_DATA+0x80>)
 8001a94:	2240      	movs	r2, #64	; 0x40
 8001a96:	611a      	str	r2, [r3, #16]
 8001a98:	4b0b      	ldr	r3, [pc, #44]	; (8001ac8 <LCD_RD_DATA+0x80>)
 8001a9a:	f44f 7200 	mov.w	r2, #512	; 0x200
 8001a9e:	611a      	str	r2, [r3, #16]
 8001aa0:	4b08      	ldr	r3, [pc, #32]	; (8001ac4 <LCD_RD_DATA+0x7c>)
 8001aa2:	f04f 3233 	mov.w	r2, #858993459	; 0x33333333
 8001aa6:	601a      	str	r2, [r3, #0]
 8001aa8:	4b06      	ldr	r3, [pc, #24]	; (8001ac4 <LCD_RD_DATA+0x7c>)
 8001aaa:	f04f 3233 	mov.w	r2, #858993459	; 0x33333333
 8001aae:	605a      	str	r2, [r3, #4]
 8001ab0:	4b04      	ldr	r3, [pc, #16]	; (8001ac4 <LCD_RD_DATA+0x7c>)
 8001ab2:	f64f 72ff 	movw	r2, #65535	; 0xffff
 8001ab6:	60da      	str	r2, [r3, #12]
 8001ab8:	88fb      	ldrh	r3, [r7, #6]
 8001aba:	4618      	mov	r0, r3
 8001abc:	3708      	adds	r7, #8
 8001abe:	46bd      	mov	sp, r7
 8001ac0:	bd80      	pop	{r7, pc}
 8001ac2:	bf00      	nop
 8001ac4:	40010c00 	.word	0x40010c00
 8001ac8:	40011000 	.word	0x40011000
 8001acc:	20000030 	.word	0x20000030

08001ad0 <LCD_WriteReg>:
 8001ad0:	b580      	push	{r7, lr}
 8001ad2:	b082      	sub	sp, #8
 8001ad4:	af00      	add	r7, sp, #0
 8001ad6:	4603      	mov	r3, r0
 8001ad8:	460a      	mov	r2, r1
 8001ada:	80fb      	strh	r3, [r7, #6]
 8001adc:	4613      	mov	r3, r2
 8001ade:	80bb      	strh	r3, [r7, #4]
 8001ae0:	88fb      	ldrh	r3, [r7, #6]
 8001ae2:	4618      	mov	r0, r3
 8001ae4:	f7ff ff68 	bl	80019b8 <LCD_WR_REG>
 8001ae8:	4b0c      	ldr	r3, [pc, #48]	; (8001b1c <LCD_WriteReg+0x4c>)
 8001aea:	f44f 7280 	mov.w	r2, #256	; 0x100
 8001aee:	611a      	str	r2, [r3, #16]
 8001af0:	4b0a      	ldr	r3, [pc, #40]	; (8001b1c <LCD_WriteReg+0x4c>)
 8001af2:	f44f 7200 	mov.w	r2, #512	; 0x200
 8001af6:	615a      	str	r2, [r3, #20]
 8001af8:	4a09      	ldr	r2, [pc, #36]	; (8001b20 <LCD_WriteReg+0x50>)
 8001afa:	88bb      	ldrh	r3, [r7, #4]
 8001afc:	60d3      	str	r3, [r2, #12]
 8001afe:	4b07      	ldr	r3, [pc, #28]	; (8001b1c <LCD_WriteReg+0x4c>)
 8001b00:	2280      	movs	r2, #128	; 0x80
 8001b02:	615a      	str	r2, [r3, #20]
 8001b04:	4b05      	ldr	r3, [pc, #20]	; (8001b1c <LCD_WriteReg+0x4c>)
 8001b06:	2280      	movs	r2, #128	; 0x80
 8001b08:	611a      	str	r2, [r3, #16]
 8001b0a:	4b04      	ldr	r3, [pc, #16]	; (8001b1c <LCD_WriteReg+0x4c>)
 8001b0c:	f44f 7200 	mov.w	r2, #512	; 0x200
 8001b10:	611a      	str	r2, [r3, #16]
 8001b12:	bf00      	nop
 8001b14:	3708      	adds	r7, #8
 8001b16:	46bd      	mov	sp, r7
 8001b18:	bd80      	pop	{r7, pc}
 8001b1a:	bf00      	nop
 8001b1c:	40011000 	.word	0x40011000
 8001b20:	40010c00 	.word	0x40010c00

08001b24 <LCD_ReadReg>:
 8001b24:	b580      	push	{r7, lr}
 8001b26:	b082      	sub	sp, #8
 8001b28:	af00      	add	r7, sp, #0
 8001b2a:	4603      	mov	r3, r0
 8001b2c:	80fb      	strh	r3, [r7, #6]
 8001b2e:	88fb      	ldrh	r3, [r7, #6]
 8001b30:	4618      	mov	r0, r3
 8001b32:	f7ff ff41 	bl	80019b8 <LCD_WR_REG>
 8001b36:	f7ff ff87 	bl	8001a48 <LCD_RD_DATA>
 8001b3a:	4603      	mov	r3, r0
 8001b3c:	4618      	mov	r0, r3
 8001b3e:	3708      	adds	r7, #8
 8001b40:	46bd      	mov	sp, r7
 8001b42:	bd80      	pop	{r7, pc}

08001b44 <LCD_WriteRAM_Prepare>:
 8001b44:	b580      	push	{r7, lr}
 8001b46:	af00      	add	r7, sp, #0
 8001b48:	4b03      	ldr	r3, [pc, #12]	; (8001b58 <LCD_WriteRAM_Prepare+0x14>)
 8001b4a:	891b      	ldrh	r3, [r3, #8]
 8001b4c:	4618      	mov	r0, r3
 8001b4e:	f7ff ff33 	bl	80019b8 <LCD_WR_REG>
 8001b52:	bf00      	nop
 8001b54:	bd80      	pop	{r7, pc}
 8001b56:	bf00      	nop
 8001b58:	20000030 	.word	0x20000030

08001b5c <LCD_SetCursor>:
 8001b5c:	b580      	push	{r7, lr}
 8001b5e:	b082      	sub	sp, #8
 8001b60:	af00      	add	r7, sp, #0
 8001b62:	4603      	mov	r3, r0
 8001b64:	460a      	mov	r2, r1
 8001b66:	80fb      	strh	r3, [r7, #6]
 8001b68:	4613      	mov	r3, r2
 8001b6a:	80bb      	strh	r3, [r7, #4]
 8001b6c:	4b73      	ldr	r3, [pc, #460]	; (8001d3c <LCD_SetCursor+0x1e0>)
 8001b6e:	889b      	ldrh	r3, [r3, #4]
 8001b70:	f249 3241 	movw	r2, #37697	; 0x9341
 8001b74:	4293      	cmp	r3, r2
 8001b76:	d005      	beq.n	8001b84 <LCD_SetCursor+0x28>
 8001b78:	4b70      	ldr	r3, [pc, #448]	; (8001d3c <LCD_SetCursor+0x1e0>)
 8001b7a:	889b      	ldrh	r3, [r3, #4]
 8001b7c:	f245 3210 	movw	r2, #21264	; 0x5310
 8001b80:	4293      	cmp	r3, r2
 8001b82:	d164      	bne.n	8001c4e <LCD_SetCursor+0xf2>
 8001b84:	4b6d      	ldr	r3, [pc, #436]	; (8001d3c <LCD_SetCursor+0x1e0>)
 8001b86:	895b      	ldrh	r3, [r3, #10]
 8001b88:	4618      	mov	r0, r3
 8001b8a:	f7ff ff15 	bl	80019b8 <LCD_WR_REG>
 8001b8e:	4b6c      	ldr	r3, [pc, #432]	; (8001d40 <LCD_SetCursor+0x1e4>)
 8001b90:	f44f 7280 	mov.w	r2, #256	; 0x100
 8001b94:	611a      	str	r2, [r3, #16]
 8001b96:	4b6a      	ldr	r3, [pc, #424]	; (8001d40 <LCD_SetCursor+0x1e4>)
 8001b98:	f44f 7200 	mov.w	r2, #512	; 0x200
 8001b9c:	615a      	str	r2, [r3, #20]
 8001b9e:	88fb      	ldrh	r3, [r7, #6]
 8001ba0:	0a1b      	lsrs	r3, r3, #8
 8001ba2:	b29a      	uxth	r2, r3
 8001ba4:	4b67      	ldr	r3, [pc, #412]	; (8001d44 <LCD_SetCursor+0x1e8>)
 8001ba6:	60da      	str	r2, [r3, #12]
 8001ba8:	4b65      	ldr	r3, [pc, #404]	; (8001d40 <LCD_SetCursor+0x1e4>)
 8001baa:	2280      	movs	r2, #128	; 0x80
 8001bac:	615a      	str	r2, [r3, #20]
 8001bae:	4b64      	ldr	r3, [pc, #400]	; (8001d40 <LCD_SetCursor+0x1e4>)
 8001bb0:	2280      	movs	r2, #128	; 0x80
 8001bb2:	611a      	str	r2, [r3, #16]
 8001bb4:	4b62      	ldr	r3, [pc, #392]	; (8001d40 <LCD_SetCursor+0x1e4>)
 8001bb6:	f44f 7200 	mov.w	r2, #512	; 0x200
 8001bba:	611a      	str	r2, [r3, #16]
 8001bbc:	4b60      	ldr	r3, [pc, #384]	; (8001d40 <LCD_SetCursor+0x1e4>)
 8001bbe:	f44f 7280 	mov.w	r2, #256	; 0x100
 8001bc2:	611a      	str	r2, [r3, #16]
 8001bc4:	4b5e      	ldr	r3, [pc, #376]	; (8001d40 <LCD_SetCursor+0x1e4>)
 8001bc6:	f44f 7200 	mov.w	r2, #512	; 0x200
 8001bca:	615a      	str	r2, [r3, #20]
 8001bcc:	88fb      	ldrh	r3, [r7, #6]
 8001bce:	4a5d      	ldr	r2, [pc, #372]	; (8001d44 <LCD_SetCursor+0x1e8>)
 8001bd0:	b2db      	uxtb	r3, r3
 8001bd2:	60d3      	str	r3, [r2, #12]
 8001bd4:	4b5a      	ldr	r3, [pc, #360]	; (8001d40 <LCD_SetCursor+0x1e4>)
 8001bd6:	2280      	movs	r2, #128	; 0x80
 8001bd8:	615a      	str	r2, [r3, #20]
 8001bda:	4b59      	ldr	r3, [pc, #356]	; (8001d40 <LCD_SetCursor+0x1e4>)
 8001bdc:	2280      	movs	r2, #128	; 0x80
 8001bde:	611a      	str	r2, [r3, #16]
 8001be0:	4b57      	ldr	r3, [pc, #348]	; (8001d40 <LCD_SetCursor+0x1e4>)
 8001be2:	f44f 7200 	mov.w	r2, #512	; 0x200
 8001be6:	611a      	str	r2, [r3, #16]
 8001be8:	4b54      	ldr	r3, [pc, #336]	; (8001d3c <LCD_SetCursor+0x1e0>)
 8001bea:	899b      	ldrh	r3, [r3, #12]
 8001bec:	4618      	mov	r0, r3
 8001bee:	f7ff fee3 	bl	80019b8 <LCD_WR_REG>
 8001bf2:	4b53      	ldr	r3, [pc, #332]	; (8001d40 <LCD_SetCursor+0x1e4>)
 8001bf4:	f44f 7280 	mov.w	r2, #256	; 0x100
 8001bf8:	611a      	str	r2, [r3, #16]
 8001bfa:	4b51      	ldr	r3, [pc, #324]	; (8001d40 <LCD_SetCursor+0x1e4>)
 8001bfc:	f44f 7200 	mov.w	r2, #512	; 0x200
 8001c00:	615a      	str	r2, [r3, #20]
 8001c02:	88bb      	ldrh	r3, [r7, #4]
 8001c04:	0a1b      	lsrs	r3, r3, #8
 8001c06:	b29a      	uxth	r2, r3
 8001c08:	4b4e      	ldr	r3, [pc, #312]	; (8001d44 <LCD_SetCursor+0x1e8>)
 8001c0a:	60da      	str	r2, [r3, #12]
 8001c0c:	4b4c      	ldr	r3, [pc, #304]	; (8001d40 <LCD_SetCursor+0x1e4>)
 8001c0e:	2280      	movs	r2, #128	; 0x80
 8001c10:	615a      	str	r2, [r3, #20]
 8001c12:	4b4b      	ldr	r3, [pc, #300]	; (8001d40 <LCD_SetCursor+0x1e4>)
 8001c14:	2280      	movs	r2, #128	; 0x80
 8001c16:	611a      	str	r2, [r3, #16]
 8001c18:	4b49      	ldr	r3, [pc, #292]	; (8001d40 <LCD_SetCursor+0x1e4>)
 8001c1a:	f44f 7200 	mov.w	r2, #512	; 0x200
 8001c1e:	611a      	str	r2, [r3, #16]
 8001c20:	4b47      	ldr	r3, [pc, #284]	; (8001d40 <LCD_SetCursor+0x1e4>)
 8001c22:	f44f 7280 	mov.w	r2, #256	; 0x100
 8001c26:	611a      	str	r2, [r3, #16]
 8001c28:	4b45      	ldr	r3, [pc, #276]	; (8001d40 <LCD_SetCursor+0x1e4>)
 8001c2a:	f44f 7200 	mov.w	r2, #512	; 0x200
 8001c2e:	615a      	str	r2, [r3, #20]
 8001c30:	88bb      	ldrh	r3, [r7, #4]
 8001c32:	4a44      	ldr	r2, [pc, #272]	; (8001d44 <LCD_SetCursor+0x1e8>)
 8001c34:	b2db      	uxtb	r3, r3
 8001c36:	60d3      	str	r3, [r2, #12]
 8001c38:	4b41      	ldr	r3, [pc, #260]	; (8001d40 <LCD_SetCursor+0x1e4>)
 8001c3a:	2280      	movs	r2, #128	; 0x80
 8001c3c:	615a      	str	r2, [r3, #20]
 8001c3e:	4b40      	ldr	r3, [pc, #256]	; (8001d40 <LCD_SetCursor+0x1e4>)
 8001c40:	2280      	movs	r2, #128	; 0x80
 8001c42:	611a      	str	r2, [r3, #16]
 8001c44:	4b3e      	ldr	r3, [pc, #248]	; (8001d40 <LCD_SetCursor+0x1e4>)
 8001c46:	f44f 7200 	mov.w	r2, #512	; 0x200
 8001c4a:	611a      	str	r2, [r3, #16]
 8001c4c:	e248      	b.n	80020e0 <LCD_SetCursor+0x584>
 8001c4e:	4b3b      	ldr	r3, [pc, #236]	; (8001d3c <LCD_SetCursor+0x1e0>)
 8001c50:	889b      	ldrh	r3, [r3, #4]
 8001c52:	f646 0204 	movw	r2, #26628	; 0x6804
 8001c56:	4293      	cmp	r3, r2
 8001c58:	d176      	bne.n	8001d48 <LCD_SetCursor+0x1ec>
 8001c5a:	4b38      	ldr	r3, [pc, #224]	; (8001d3c <LCD_SetCursor+0x1e0>)
 8001c5c:	799b      	ldrb	r3, [r3, #6]
 8001c5e:	2b01      	cmp	r3, #1
 8001c60:	d106      	bne.n	8001c70 <LCD_SetCursor+0x114>
 8001c62:	4b36      	ldr	r3, [pc, #216]	; (8001d3c <LCD_SetCursor+0x1e0>)
 8001c64:	881a      	ldrh	r2, [r3, #0]
 8001c66:	88fb      	ldrh	r3, [r7, #6]
 8001c68:	1ad3      	subs	r3, r2, r3
 8001c6a:	b29b      	uxth	r3, r3
 8001c6c:	3b01      	subs	r3, #1
 8001c6e:	80fb      	strh	r3, [r7, #6]
 8001c70:	4b32      	ldr	r3, [pc, #200]	; (8001d3c <LCD_SetCursor+0x1e0>)
 8001c72:	895b      	ldrh	r3, [r3, #10]
 8001c74:	4618      	mov	r0, r3
 8001c76:	f7ff fe9f 	bl	80019b8 <LCD_WR_REG>
 8001c7a:	4b31      	ldr	r3, [pc, #196]	; (8001d40 <LCD_SetCursor+0x1e4>)
 8001c7c:	f44f 7280 	mov.w	r2, #256	; 0x100
 8001c80:	611a      	str	r2, [r3, #16]
 8001c82:	4b2f      	ldr	r3, [pc, #188]	; (8001d40 <LCD_SetCursor+0x1e4>)
 8001c84:	f44f 7200 	mov.w	r2, #512	; 0x200
 8001c88:	615a      	str	r2, [r3, #20]
 8001c8a:	88fb      	ldrh	r3, [r7, #6]
 8001c8c:	0a1b      	lsrs	r3, r3, #8
 8001c8e:	b29a      	uxth	r2, r3
 8001c90:	4b2c      	ldr	r3, [pc, #176]	; (8001d44 <LCD_SetCursor+0x1e8>)
 8001c92:	60da      	str	r2, [r3, #12]
 8001c94:	4b2a      	ldr	r3, [pc, #168]	; (8001d40 <LCD_SetCursor+0x1e4>)
 8001c96:	2280      	movs	r2, #128	; 0x80
 8001c98:	615a      	str	r2, [r3, #20]
 8001c9a:	4b29      	ldr	r3, [pc, #164]	; (8001d40 <LCD_SetCursor+0x1e4>)
 8001c9c:	2280      	movs	r2, #128	; 0x80
 8001c9e:	611a      	str	r2, [r3, #16]
 8001ca0:	4b27      	ldr	r3, [pc, #156]	; (8001d40 <LCD_SetCursor+0x1e4>)
 8001ca2:	f44f 7200 	mov.w	r2, #512	; 0x200
 8001ca6:	611a      	str	r2, [r3, #16]
 8001ca8:	4b25      	ldr	r3, [pc, #148]	; (8001d40 <LCD_SetCursor+0x1e4>)
 8001caa:	f44f 7280 	mov.w	r2, #256	; 0x100
 8001cae:	611a      	str	r2, [r3, #16]
 8001cb0:	4b23      	ldr	r3, [pc, #140]	; (8001d40 <LCD_SetCursor+0x1e4>)
 8001cb2:	f44f 7200 	mov.w	r2, #512	; 0x200
 8001cb6:	615a      	str	r2, [r3, #20]
 8001cb8:	88fb      	ldrh	r3, [r7, #6]
 8001cba:	4a22      	ldr	r2, [pc, #136]	; (8001d44 <LCD_SetCursor+0x1e8>)
 8001cbc:	b2db      	uxtb	r3, r3
 8001cbe:	60d3      	str	r3, [r2, #12]
 8001cc0:	4b1f      	ldr	r3, [pc, #124]	; (8001d40 <LCD_SetCursor+0x1e4>)
 8001cc2:	2280      	movs	r2, #128	; 0x80
 8001cc4:	615a      	str	r2, [r3, #20]
 8001cc6:	4b1e      	ldr	r3, [pc, #120]	; (8001d40 <LCD_SetCursor+0x1e4>)
 8001cc8:	2280      	movs	r2, #128	; 0x80
 8001cca:	611a      	str	r2, [r3, #16]
 8001ccc:	4b1c      	ldr	r3, [pc, #112]	; (8001d40 <LCD_SetCursor+0x1e4>)
 8001cce:	f44f 7200 	mov.w	r2, #512	; 0x200
 8001cd2:	611a      	str	r2, [r3, #16]
 8001cd4:	4b19      	ldr	r3, [pc, #100]	; (8001d3c <LCD_SetCursor+0x1e0>)
 8001cd6:	899b      	ldrh	r3, [r3, #12]
 8001cd8:	4618      	mov	r0, r3
 8001cda:	f7ff fe6d 	bl	80019b8 <LCD_WR_REG>
 8001cde:	4b18      	ldr	r3, [pc, #96]	; (8001d40 <LCD_SetCursor+0x1e4>)
 8001ce0:	f44f 7280 	mov.w	r2, #256	; 0x100
 8001ce4:	611a      	str	r2, [r3, #16]
 8001ce6:	4b16      	ldr	r3, [pc, #88]	; (8001d40 <LCD_SetCursor+0x1e4>)
 8001ce8:	f44f 7200 	mov.w	r2, #512	; 0x200
 8001cec:	615a      	str	r2, [r3, #20]
 8001cee:	88bb      	ldrh	r3, [r7, #4]
 8001cf0:	0a1b      	lsrs	r3, r3, #8
 8001cf2:	b29a      	uxth	r2, r3
 8001cf4:	4b13      	ldr	r3, [pc, #76]	; (8001d44 <LCD_SetCursor+0x1e8>)
 8001cf6:	60da      	str	r2, [r3, #12]
 8001cf8:	4b11      	ldr	r3, [pc, #68]	; (8001d40 <LCD_SetCursor+0x1e4>)
 8001cfa:	2280      	movs	r2, #128	; 0x80
 8001cfc:	615a      	str	r2, [r3, #20]
 8001cfe:	4b10      	ldr	r3, [pc, #64]	; (8001d40 <LCD_SetCursor+0x1e4>)
 8001d00:	2280      	movs	r2, #128	; 0x80
 8001d02:	611a      	str	r2, [r3, #16]
 8001d04:	4b0e      	ldr	r3, [pc, #56]	; (8001d40 <LCD_SetCursor+0x1e4>)
 8001d06:	f44f 7200 	mov.w	r2, #512	; 0x200
 8001d0a:	611a      	str	r2, [r3, #16]
 8001d0c:	4b0c      	ldr	r3, [pc, #48]	; (8001d40 <LCD_SetCursor+0x1e4>)
 8001d0e:	f44f 7280 	mov.w	r2, #256	; 0x100
 8001d12:	611a      	str	r2, [r3, #16]
 8001d14:	4b0a      	ldr	r3, [pc, #40]	; (8001d40 <LCD_SetCursor+0x1e4>)
 8001d16:	f44f 7200 	mov.w	r2, #512	; 0x200
 8001d1a:	615a      	str	r2, [r3, #20]
 8001d1c:	88bb      	ldrh	r3, [r7, #4]
 8001d1e:	4a09      	ldr	r2, [pc, #36]	; (8001d44 <LCD_SetCursor+0x1e8>)
 8001d20:	b2db      	uxtb	r3, r3
 8001d22:	60d3      	str	r3, [r2, #12]
 8001d24:	4b06      	ldr	r3, [pc, #24]	; (8001d40 <LCD_SetCursor+0x1e4>)
 8001d26:	2280      	movs	r2, #128	; 0x80
 8001d28:	615a      	str	r2, [r3, #20]
 8001d2a:	4b05      	ldr	r3, [pc, #20]	; (8001d40 <LCD_SetCursor+0x1e4>)
 8001d2c:	2280      	movs	r2, #128	; 0x80
 8001d2e:	611a      	str	r2, [r3, #16]
 8001d30:	4b03      	ldr	r3, [pc, #12]	; (8001d40 <LCD_SetCursor+0x1e4>)
 8001d32:	f44f 7200 	mov.w	r2, #512	; 0x200
 8001d36:	611a      	str	r2, [r3, #16]
 8001d38:	e1d2      	b.n	80020e0 <LCD_SetCursor+0x584>
 8001d3a:	bf00      	nop
 8001d3c:	20000030 	.word	0x20000030
 8001d40:	40011000 	.word	0x40011000
 8001d44:	40010c00 	.word	0x40010c00
 8001d48:	4b99      	ldr	r3, [pc, #612]	; (8001fb0 <LCD_SetCursor+0x454>)
 8001d4a:	889b      	ldrh	r3, [r3, #4]
 8001d4c:	f641 1263 	movw	r2, #6499	; 0x1963
 8001d50:	4293      	cmp	r3, r2
 8001d52:	f040 8133 	bne.w	8001fbc <LCD_SetCursor+0x460>
 8001d56:	4b96      	ldr	r3, [pc, #600]	; (8001fb0 <LCD_SetCursor+0x454>)
 8001d58:	799b      	ldrb	r3, [r3, #6]
 8001d5a:	2b00      	cmp	r3, #0
 8001d5c:	d163      	bne.n	8001e26 <LCD_SetCursor+0x2ca>
 8001d5e:	4b94      	ldr	r3, [pc, #592]	; (8001fb0 <LCD_SetCursor+0x454>)
 8001d60:	881a      	ldrh	r2, [r3, #0]
 8001d62:	88fb      	ldrh	r3, [r7, #6]
 8001d64:	1ad3      	subs	r3, r2, r3
 8001d66:	b29b      	uxth	r3, r3
 8001d68:	3b01      	subs	r3, #1
 8001d6a:	80fb      	strh	r3, [r7, #6]
 8001d6c:	4b90      	ldr	r3, [pc, #576]	; (8001fb0 <LCD_SetCursor+0x454>)
 8001d6e:	895b      	ldrh	r3, [r3, #10]
 8001d70:	4618      	mov	r0, r3
 8001d72:	f7ff fe21 	bl	80019b8 <LCD_WR_REG>
 8001d76:	4b8f      	ldr	r3, [pc, #572]	; (8001fb4 <LCD_SetCursor+0x458>)
 8001d78:	f44f 7280 	mov.w	r2, #256	; 0x100
 8001d7c:	611a      	str	r2, [r3, #16]
 8001d7e:	4b8d      	ldr	r3, [pc, #564]	; (8001fb4 <LCD_SetCursor+0x458>)
 8001d80:	f44f 7200 	mov.w	r2, #512	; 0x200
 8001d84:	615a      	str	r2, [r3, #20]
 8001d86:	4b8c      	ldr	r3, [pc, #560]	; (8001fb8 <LCD_SetCursor+0x45c>)
 8001d88:	2200      	movs	r2, #0
 8001d8a:	60da      	str	r2, [r3, #12]
 8001d8c:	4b89      	ldr	r3, [pc, #548]	; (8001fb4 <LCD_SetCursor+0x458>)
 8001d8e:	2280      	movs	r2, #128	; 0x80
 8001d90:	615a      	str	r2, [r3, #20]
 8001d92:	4b88      	ldr	r3, [pc, #544]	; (8001fb4 <LCD_SetCursor+0x458>)
 8001d94:	2280      	movs	r2, #128	; 0x80
 8001d96:	611a      	str	r2, [r3, #16]
 8001d98:	4b86      	ldr	r3, [pc, #536]	; (8001fb4 <LCD_SetCursor+0x458>)
 8001d9a:	f44f 7200 	mov.w	r2, #512	; 0x200
 8001d9e:	611a      	str	r2, [r3, #16]
 8001da0:	4b84      	ldr	r3, [pc, #528]	; (8001fb4 <LCD_SetCursor+0x458>)
 8001da2:	f44f 7280 	mov.w	r2, #256	; 0x100
 8001da6:	611a      	str	r2, [r3, #16]
 8001da8:	4b82      	ldr	r3, [pc, #520]	; (8001fb4 <LCD_SetCursor+0x458>)
 8001daa:	f44f 7200 	mov.w	r2, #512	; 0x200
 8001dae:	615a      	str	r2, [r3, #20]
 8001db0:	4b81      	ldr	r3, [pc, #516]	; (8001fb8 <LCD_SetCursor+0x45c>)
 8001db2:	2200      	movs	r2, #0
 8001db4:	60da      	str	r2, [r3, #12]
 8001db6:	4b7f      	ldr	r3, [pc, #508]	; (8001fb4 <LCD_SetCursor+0x458>)
 8001db8:	2280      	movs	r2, #128	; 0x80
 8001dba:	615a      	str	r2, [r3, #20]
 8001dbc:	4b7d      	ldr	r3, [pc, #500]	; (8001fb4 <LCD_SetCursor+0x458>)
 8001dbe:	2280      	movs	r2, #128	; 0x80
 8001dc0:	611a      	str	r2, [r3, #16]
 8001dc2:	4b7c      	ldr	r3, [pc, #496]	; (8001fb4 <LCD_SetCursor+0x458>)
 8001dc4:	f44f 7200 	mov.w	r2, #512	; 0x200
 8001dc8:	611a      	str	r2, [r3, #16]
 8001dca:	4b7a      	ldr	r3, [pc, #488]	; (8001fb4 <LCD_SetCursor+0x458>)
 8001dcc:	f44f 7280 	mov.w	r2, #256	; 0x100
 8001dd0:	611a      	str	r2, [r3, #16]
 8001dd2:	4b78      	ldr	r3, [pc, #480]	; (8001fb4 <LCD_SetCursor+0x458>)
 8001dd4:	f44f 7200 	mov.w	r2, #512	; 0x200
 8001dd8:	615a      	str	r2, [r3, #20]
 8001dda:	88fb      	ldrh	r3, [r7, #6]
 8001ddc:	0a1b      	lsrs	r3, r3, #8
 8001dde:	b29a      	uxth	r2, r3
 8001de0:	4b75      	ldr	r3, [pc, #468]	; (8001fb8 <LCD_SetCursor+0x45c>)
 8001de2:	60da      	str	r2, [r3, #12]
 8001de4:	4b73      	ldr	r3, [pc, #460]	; (8001fb4 <LCD_SetCursor+0x458>)
 8001de6:	2280      	movs	r2, #128	; 0x80
 8001de8:	615a      	str	r2, [r3, #20]
 8001dea:	4b72      	ldr	r3, [pc, #456]	; (8001fb4 <LCD_SetCursor+0x458>)
 8001dec:	2280      	movs	r2, #128	; 0x80
 8001dee:	611a      	str	r2, [r3, #16]
 8001df0:	4b70      	ldr	r3, [pc, #448]	; (8001fb4 <LCD_SetCursor+0x458>)
 8001df2:	f44f 7200 	mov.w	r2, #512	; 0x200
 8001df6:	611a      	str	r2, [r3, #16]
 8001df8:	4b6e      	ldr	r3, [pc, #440]	; (8001fb4 <LCD_SetCursor+0x458>)
 8001dfa:	f44f 7280 	mov.w	r2, #256	; 0x100
 8001dfe:	611a      	str	r2, [r3, #16]
 8001e00:	4b6c      	ldr	r3, [pc, #432]	; (8001fb4 <LCD_SetCursor+0x458>)
 8001e02:	f44f 7200 	mov.w	r2, #512	; 0x200
 8001e06:	615a      	str	r2, [r3, #20]
 8001e08:	88fb      	ldrh	r3, [r7, #6]
 8001e0a:	4a6b      	ldr	r2, [pc, #428]	; (8001fb8 <LCD_SetCursor+0x45c>)
 8001e0c:	b2db      	uxtb	r3, r3
 8001e0e:	60d3      	str	r3, [r2, #12]
 8001e10:	4b68      	ldr	r3, [pc, #416]	; (8001fb4 <LCD_SetCursor+0x458>)
 8001e12:	2280      	movs	r2, #128	; 0x80
 8001e14:	615a      	str	r2, [r3, #20]
 8001e16:	4b67      	ldr	r3, [pc, #412]	; (8001fb4 <LCD_SetCursor+0x458>)
 8001e18:	2280      	movs	r2, #128	; 0x80
 8001e1a:	611a      	str	r2, [r3, #16]
 8001e1c:	4b65      	ldr	r3, [pc, #404]	; (8001fb4 <LCD_SetCursor+0x458>)
 8001e1e:	f44f 7200 	mov.w	r2, #512	; 0x200
 8001e22:	611a      	str	r2, [r3, #16]
 8001e24:	e061      	b.n	8001eea <LCD_SetCursor+0x38e>
 8001e26:	4b62      	ldr	r3, [pc, #392]	; (8001fb0 <LCD_SetCursor+0x454>)
 8001e28:	895b      	ldrh	r3, [r3, #10]
 8001e2a:	4618      	mov	r0, r3
 8001e2c:	f7ff fdc4 	bl	80019b8 <LCD_WR_REG>
 8001e30:	4b60      	ldr	r3, [pc, #384]	; (8001fb4 <LCD_SetCursor+0x458>)
 8001e32:	f44f 7280 	mov.w	r2, #256	; 0x100
 8001e36:	611a      	str	r2, [r3, #16]
 8001e38:	4b5e      	ldr	r3, [pc, #376]	; (8001fb4 <LCD_SetCursor+0x458>)
 8001e3a:	f44f 7200 	mov.w	r2, #512	; 0x200
 8001e3e:	615a      	str	r2, [r3, #20]
 8001e40:	88fb      	ldrh	r3, [r7, #6]
 8001e42:	0a1b      	lsrs	r3, r3, #8
 8001e44:	b29a      	uxth	r2, r3
 8001e46:	4b5c      	ldr	r3, [pc, #368]	; (8001fb8 <LCD_SetCursor+0x45c>)
 8001e48:	60da      	str	r2, [r3, #12]
 8001e4a:	4b5a      	ldr	r3, [pc, #360]	; (8001fb4 <LCD_SetCursor+0x458>)
 8001e4c:	2280      	movs	r2, #128	; 0x80
 8001e4e:	615a      	str	r2, [r3, #20]
 8001e50:	4b58      	ldr	r3, [pc, #352]	; (8001fb4 <LCD_SetCursor+0x458>)
 8001e52:	2280      	movs	r2, #128	; 0x80
 8001e54:	611a      	str	r2, [r3, #16]
 8001e56:	4b57      	ldr	r3, [pc, #348]	; (8001fb4 <LCD_SetCursor+0x458>)
 8001e58:	f44f 7200 	mov.w	r2, #512	; 0x200
 8001e5c:	611a      	str	r2, [r3, #16]
 8001e5e:	4b55      	ldr	r3, [pc, #340]	; (8001fb4 <LCD_SetCursor+0x458>)
 8001e60:	f44f 7280 	mov.w	r2, #256	; 0x100
 8001e64:	611a      	str	r2, [r3, #16]
 8001e66:	4b53      	ldr	r3, [pc, #332]	; (8001fb4 <LCD_SetCursor+0x458>)
 8001e68:	f44f 7200 	mov.w	r2, #512	; 0x200
 8001e6c:	615a      	str	r2, [r3, #20]
 8001e6e:	88fb      	ldrh	r3, [r7, #6]
 8001e70:	4a51      	ldr	r2, [pc, #324]	; (8001fb8 <LCD_SetCursor+0x45c>)
 8001e72:	b2db      	uxtb	r3, r3
 8001e74:	60d3      	str	r3, [r2, #12]
 8001e76:	4b4f      	ldr	r3, [pc, #316]	; (8001fb4 <LCD_SetCursor+0x458>)
 8001e78:	2280      	movs	r2, #128	; 0x80
 8001e7a:	615a      	str	r2, [r3, #20]
 8001e7c:	4b4d      	ldr	r3, [pc, #308]	; (8001fb4 <LCD_SetCursor+0x458>)
 8001e7e:	2280      	movs	r2, #128	; 0x80
 8001e80:	611a      	str	r2, [r3, #16]
 8001e82:	4b4c      	ldr	r3, [pc, #304]	; (8001fb4 <LCD_SetCursor+0x458>)
 8001e84:	f44f 7200 	mov.w	r2, #512	; 0x200
 8001e88:	611a      	str	r2, [r3, #16]
 8001e8a:	4b4a      	ldr	r3, [pc, #296]	; (8001fb4 <LCD_SetCursor+0x458>)
 8001e8c:	f44f 7280 	mov.w	r2, #256	; 0x100
 8001e90:	611a      	str	r2, [r3, #16]
 8001e92:	4b48      	ldr	r3, [pc, #288]	; (8001fb4 <LCD_SetCursor+0x458>)
 8001e94:	f44f 7200 	mov.w	r2, #512	; 0x200
 8001e98:	615a      	str	r2, [r3, #20]
 8001e9a:	4b45      	ldr	r3, [pc, #276]	; (8001fb0 <LCD_SetCursor+0x454>)
 8001e9c:	881b      	ldrh	r3, [r3, #0]
 8001e9e:	3b01      	subs	r3, #1
 8001ea0:	121a      	asrs	r2, r3, #8
 8001ea2:	4b45      	ldr	r3, [pc, #276]	; (8001fb8 <LCD_SetCursor+0x45c>)
 8001ea4:	60da      	str	r2, [r3, #12]
 8001ea6:	4b43      	ldr	r3, [pc, #268]	; (8001fb4 <LCD_SetCursor+0x458>)
 8001ea8:	2280      	movs	r2, #128	; 0x80
 8001eaa:	615a      	str	r2, [r3, #20]
 8001eac:	4b41      	ldr	r3, [pc, #260]	; (8001fb4 <LCD_SetCursor+0x458>)
 8001eae:	2280      	movs	r2, #128	; 0x80
 8001eb0:	611a      	str	r2, [r3, #16]
 8001eb2:	4b40      	ldr	r3, [pc, #256]	; (8001fb4 <LCD_SetCursor+0x458>)
 8001eb4:	f44f 7200 	mov.w	r2, #512	; 0x200
 8001eb8:	611a      	str	r2, [r3, #16]
 8001eba:	4b3e      	ldr	r3, [pc, #248]	; (8001fb4 <LCD_SetCursor+0x458>)
 8001ebc:	f44f 7280 	mov.w	r2, #256	; 0x100
 8001ec0:	611a      	str	r2, [r3, #16]
 8001ec2:	4b3c      	ldr	r3, [pc, #240]	; (8001fb4 <LCD_SetCursor+0x458>)
 8001ec4:	f44f 7200 	mov.w	r2, #512	; 0x200
 8001ec8:	615a      	str	r2, [r3, #20]
 8001eca:	4b39      	ldr	r3, [pc, #228]	; (8001fb0 <LCD_SetCursor+0x454>)
 8001ecc:	881b      	ldrh	r3, [r3, #0]
 8001ece:	3b01      	subs	r3, #1
 8001ed0:	4a39      	ldr	r2, [pc, #228]	; (8001fb8 <LCD_SetCursor+0x45c>)
 8001ed2:	b2db      	uxtb	r3, r3
 8001ed4:	60d3      	str	r3, [r2, #12]
 8001ed6:	4b37      	ldr	r3, [pc, #220]	; (8001fb4 <LCD_SetCursor+0x458>)
 8001ed8:	2280      	movs	r2, #128	; 0x80
 8001eda:	615a      	str	r2, [r3, #20]
 8001edc:	4b35      	ldr	r3, [pc, #212]	; (8001fb4 <LCD_SetCursor+0x458>)
 8001ede:	2280      	movs	r2, #128	; 0x80
 8001ee0:	611a      	str	r2, [r3, #16]
 8001ee2:	4b34      	ldr	r3, [pc, #208]	; (8001fb4 <LCD_SetCursor+0x458>)
 8001ee4:	f44f 7200 	mov.w	r2, #512	; 0x200
 8001ee8:	611a      	str	r2, [r3, #16]
 8001eea:	4b31      	ldr	r3, [pc, #196]	; (8001fb0 <LCD_SetCursor+0x454>)
 8001eec:	899b      	ldrh	r3, [r3, #12]
 8001eee:	4618      	mov	r0, r3
 8001ef0:	f7ff fd62 	bl	80019b8 <LCD_WR_REG>
 8001ef4:	4b2f      	ldr	r3, [pc, #188]	; (8001fb4 <LCD_SetCursor+0x458>)
 8001ef6:	f44f 7280 	mov.w	r2, #256	; 0x100
 8001efa:	611a      	str	r2, [r3, #16]
 8001efc:	4b2d      	ldr	r3, [pc, #180]	; (8001fb4 <LCD_SetCursor+0x458>)
 8001efe:	f44f 7200 	mov.w	r2, #512	; 0x200
 8001f02:	615a      	str	r2, [r3, #20]
 8001f04:	88bb      	ldrh	r3, [r7, #4]
 8001f06:	0a1b      	lsrs	r3, r3, #8
 8001f08:	b29a      	uxth	r2, r3
 8001f0a:	4b2b      	ldr	r3, [pc, #172]	; (8001fb8 <LCD_SetCursor+0x45c>)
 8001f0c:	60da      	str	r2, [r3, #12]
 8001f0e:	4b29      	ldr	r3, [pc, #164]	; (8001fb4 <LCD_SetCursor+0x458>)
 8001f10:	2280      	movs	r2, #128	; 0x80
 8001f12:	615a      	str	r2, [r3, #20]
 8001f14:	4b27      	ldr	r3, [pc, #156]	; (8001fb4 <LCD_SetCursor+0x458>)
 8001f16:	2280      	movs	r2, #128	; 0x80
 8001f18:	611a      	str	r2, [r3, #16]
 8001f1a:	4b26      	ldr	r3, [pc, #152]	; (8001fb4 <LCD_SetCursor+0x458>)
 8001f1c:	f44f 7200 	mov.w	r2, #512	; 0x200
 8001f20:	611a      	str	r2, [r3, #16]
 8001f22:	4b24      	ldr	r3, [pc, #144]	; (8001fb4 <LCD_SetCursor+0x458>)
 8001f24:	f44f 7280 	mov.w	r2, #256	; 0x100
 8001f28:	611a      	str	r2, [r3, #16]
 8001f2a:	4b22      	ldr	r3, [pc, #136]	; (8001fb4 <LCD_SetCursor+0x458>)
 8001f2c:	f44f 7200 	mov.w	r2, #512	; 0x200
 8001f30:	615a      	str	r2, [r3, #20]
 8001f32:	88bb      	ldrh	r3, [r7, #4]
 8001f34:	4a20      	ldr	r2, [pc, #128]	; (8001fb8 <LCD_SetCursor+0x45c>)
 8001f36:	b2db      	uxtb	r3, r3
 8001f38:	60d3      	str	r3, [r2, #12]
 8001f3a:	4b1e      	ldr	r3, [pc, #120]	; (8001fb4 <LCD_SetCursor+0x458>)
 8001f3c:	2280      	movs	r2, #128	; 0x80
 8001f3e:	615a      	str	r2, [r3, #20]
 8001f40:	4b1c      	ldr	r3, [pc, #112]	; (8001fb4 <LCD_SetCursor+0x458>)
 8001f42:	2280      	movs	r2, #128	; 0x80
 8001f44:	611a      	str	r2, [r3, #16]
 8001f46:	4b1b      	ldr	r3, [pc, #108]	; (8001fb4 <LCD_SetCursor+0x458>)
 8001f48:	f44f 7200 	mov.w	r2, #512	; 0x200
 8001f4c:	611a      	str	r2, [r3, #16]
 8001f4e:	4b19      	ldr	r3, [pc, #100]	; (8001fb4 <LCD_SetCursor+0x458>)
 8001f50:	f44f 7280 	mov.w	r2, #256	; 0x100
 8001f54:	611a      	str	r2, [r3, #16]
 8001f56:	4b17      	ldr	r3, [pc, #92]	; (8001fb4 <LCD_SetCursor+0x458>)
 8001f58:	f44f 7200 	mov.w	r2, #512	; 0x200
 8001f5c:	615a      	str	r2, [r3, #20]
 8001f5e:	4b14      	ldr	r3, [pc, #80]	; (8001fb0 <LCD_SetCursor+0x454>)
 8001f60:	885b      	ldrh	r3, [r3, #2]
 8001f62:	3b01      	subs	r3, #1
 8001f64:	121a      	asrs	r2, r3, #8
 8001f66:	4b14      	ldr	r3, [pc, #80]	; (8001fb8 <LCD_SetCursor+0x45c>)
 8001f68:	60da      	str	r2, [r3, #12]
 8001f6a:	4b12      	ldr	r3, [pc, #72]	; (8001fb4 <LCD_SetCursor+0x458>)
 8001f6c:	2280      	movs	r2, #128	; 0x80
 8001f6e:	615a      	str	r2, [r3, #20]
 8001f70:	4b10      	ldr	r3, [pc, #64]	; (8001fb4 <LCD_SetCursor+0x458>)
 8001f72:	2280      	movs	r2, #128	; 0x80
 8001f74:	611a      	str	r2, [r3, #16]
 8001f76:	4b0f      	ldr	r3, [pc, #60]	; (8001fb4 <LCD_SetCursor+0x458>)
 8001f78:	f44f 7200 	mov.w	r2, #512	; 0x200
 8001f7c:	611a      	str	r2, [r3, #16]
 8001f7e:	4b0d      	ldr	r3, [pc, #52]	; (8001fb4 <LCD_SetCursor+0x458>)
 8001f80:	f44f 7280 	mov.w	r2, #256	; 0x100
 8001f84:	611a      	str	r2, [r3, #16]
 8001f86:	4b0b      	ldr	r3, [pc, #44]	; (8001fb4 <LCD_SetCursor+0x458>)
 8001f88:	f44f 7200 	mov.w	r2, #512	; 0x200
 8001f8c:	615a      	str	r2, [r3, #20]
 8001f8e:	4b08      	ldr	r3, [pc, #32]	; (8001fb0 <LCD_SetCursor+0x454>)
 8001f90:	885b      	ldrh	r3, [r3, #2]
 8001f92:	3b01      	subs	r3, #1
 8001f94:	4a08      	ldr	r2, [pc, #32]	; (8001fb8 <LCD_SetCursor+0x45c>)
 8001f96:	b2db      	uxtb	r3, r3
 8001f98:	60d3      	str	r3, [r2, #12]
 8001f9a:	4b06      	ldr	r3, [pc, #24]	; (8001fb4 <LCD_SetCursor+0x458>)
 8001f9c:	2280      	movs	r2, #128	; 0x80
 8001f9e:	615a      	str	r2, [r3, #20]
 8001fa0:	4b04      	ldr	r3, [pc, #16]	; (8001fb4 <LCD_SetCursor+0x458>)
 8001fa2:	2280      	movs	r2, #128	; 0x80
 8001fa4:	611a      	str	r2, [r3, #16]
 8001fa6:	4b03      	ldr	r3, [pc, #12]	; (8001fb4 <LCD_SetCursor+0x458>)
 8001fa8:	f44f 7200 	mov.w	r2, #512	; 0x200
 8001fac:	611a      	str	r2, [r3, #16]
 8001fae:	e097      	b.n	80020e0 <LCD_SetCursor+0x584>
 8001fb0:	20000030 	.word	0x20000030
 8001fb4:	40011000 	.word	0x40011000
 8001fb8:	40010c00 	.word	0x40010c00
 8001fbc:	4b4a      	ldr	r3, [pc, #296]	; (80020e8 <LCD_SetCursor+0x58c>)
 8001fbe:	889b      	ldrh	r3, [r3, #4]
 8001fc0:	f245 5210 	movw	r2, #21776	; 0x5510
 8001fc4:	4293      	cmp	r3, r2
 8001fc6:	d172      	bne.n	80020ae <LCD_SetCursor+0x552>
 8001fc8:	4b47      	ldr	r3, [pc, #284]	; (80020e8 <LCD_SetCursor+0x58c>)
 8001fca:	895b      	ldrh	r3, [r3, #10]
 8001fcc:	4618      	mov	r0, r3
 8001fce:	f7ff fcf3 	bl	80019b8 <LCD_WR_REG>
 8001fd2:	4b46      	ldr	r3, [pc, #280]	; (80020ec <LCD_SetCursor+0x590>)
 8001fd4:	f44f 7280 	mov.w	r2, #256	; 0x100
 8001fd8:	611a      	str	r2, [r3, #16]
 8001fda:	4b44      	ldr	r3, [pc, #272]	; (80020ec <LCD_SetCursor+0x590>)
 8001fdc:	f44f 7200 	mov.w	r2, #512	; 0x200
 8001fe0:	615a      	str	r2, [r3, #20]
 8001fe2:	88fb      	ldrh	r3, [r7, #6]
 8001fe4:	0a1b      	lsrs	r3, r3, #8
 8001fe6:	b29a      	uxth	r2, r3
 8001fe8:	4b41      	ldr	r3, [pc, #260]	; (80020f0 <LCD_SetCursor+0x594>)
 8001fea:	60da      	str	r2, [r3, #12]
 8001fec:	4b3f      	ldr	r3, [pc, #252]	; (80020ec <LCD_SetCursor+0x590>)
 8001fee:	2280      	movs	r2, #128	; 0x80
 8001ff0:	615a      	str	r2, [r3, #20]
 8001ff2:	4b3e      	ldr	r3, [pc, #248]	; (80020ec <LCD_SetCursor+0x590>)
 8001ff4:	2280      	movs	r2, #128	; 0x80
 8001ff6:	611a      	str	r2, [r3, #16]
 8001ff8:	4b3c      	ldr	r3, [pc, #240]	; (80020ec <LCD_SetCursor+0x590>)
 8001ffa:	f44f 7200 	mov.w	r2, #512	; 0x200
 8001ffe:	611a      	str	r2, [r3, #16]
 8002000:	4b39      	ldr	r3, [pc, #228]	; (80020e8 <LCD_SetCursor+0x58c>)
 8002002:	895b      	ldrh	r3, [r3, #10]
 8002004:	3301      	adds	r3, #1
 8002006:	b29b      	uxth	r3, r3
 8002008:	4618      	mov	r0, r3
 800200a:	f7ff fcd5 	bl	80019b8 <LCD_WR_REG>
 800200e:	4b37      	ldr	r3, [pc, #220]	; (80020ec <LCD_SetCursor+0x590>)
 8002010:	f44f 7280 	mov.w	r2, #256	; 0x100
 8002014:	611a      	str	r2, [r3, #16]
 8002016:	4b35      	ldr	r3, [pc, #212]	; (80020ec <LCD_SetCursor+0x590>)
 8002018:	f44f 7200 	mov.w	r2, #512	; 0x200
 800201c:	615a      	str	r2, [r3, #20]
 800201e:	88fb      	ldrh	r3, [r7, #6]
 8002020:	4a33      	ldr	r2, [pc, #204]	; (80020f0 <LCD_SetCursor+0x594>)
 8002022:	b2db      	uxtb	r3, r3
 8002024:	60d3      	str	r3, [r2, #12]
 8002026:	4b31      	ldr	r3, [pc, #196]	; (80020ec <LCD_SetCursor+0x590>)
 8002028:	2280      	movs	r2, #128	; 0x80
 800202a:	615a      	str	r2, [r3, #20]
 800202c:	4b2f      	ldr	r3, [pc, #188]	; (80020ec <LCD_SetCursor+0x590>)
 800202e:	2280      	movs	r2, #128	; 0x80
 8002030:	611a      	str	r2, [r3, #16]
 8002032:	4b2e      	ldr	r3, [pc, #184]	; (80020ec <LCD_SetCursor+0x590>)
 8002034:	f44f 7200 	mov.w	r2, #512	; 0x200
 8002038:	611a      	str	r2, [r3, #16]
 800203a:	4b2b      	ldr	r3, [pc, #172]	; (80020e8 <LCD_SetCursor+0x58c>)
 800203c:	899b      	ldrh	r3, [r3, #12]
 800203e:	4618      	mov	r0, r3
 8002040:	f7ff fcba 	bl	80019b8 <LCD_WR_REG>
 8002044:	4b29      	ldr	r3, [pc, #164]	; (80020ec <LCD_SetCursor+0x590>)
 8002046:	f44f 7280 	mov.w	r2, #256	; 0x100
 800204a:	611a      	str	r2, [r3, #16]
 800204c:	4b27      	ldr	r3, [pc, #156]	; (80020ec <LCD_SetCursor+0x590>)
 800204e:	f44f 7200 	mov.w	r2, #512	; 0x200
 8002052:	615a      	str	r2, [r3, #20]
 8002054:	88bb      	ldrh	r3, [r7, #4]
 8002056:	0a1b      	lsrs	r3, r3, #8
 8002058:	b29a      	uxth	r2, r3
 800205a:	4b25      	ldr	r3, [pc, #148]	; (80020f0 <LCD_SetCursor+0x594>)
 800205c:	60da      	str	r2, [r3, #12]
 800205e:	4b23      	ldr	r3, [pc, #140]	; (80020ec <LCD_SetCursor+0x590>)
 8002060:	2280      	movs	r2, #128	; 0x80
 8002062:	615a      	str	r2, [r3, #20]
 8002064:	4b21      	ldr	r3, [pc, #132]	; (80020ec <LCD_SetCursor+0x590>)
 8002066:	2280      	movs	r2, #128	; 0x80
 8002068:	611a      	str	r2, [r3, #16]
 800206a:	4b20      	ldr	r3, [pc, #128]	; (80020ec <LCD_SetCursor+0x590>)
 800206c:	f44f 7200 	mov.w	r2, #512	; 0x200
 8002070:	611a      	str	r2, [r3, #16]
 8002072:	4b1d      	ldr	r3, [pc, #116]	; (80020e8 <LCD_SetCursor+0x58c>)
 8002074:	899b      	ldrh	r3, [r3, #12]
 8002076:	3301      	adds	r3, #1
 8002078:	b29b      	uxth	r3, r3
 800207a:	4618      	mov	r0, r3
 800207c:	f7ff fc9c 	bl	80019b8 <LCD_WR_REG>
 8002080:	4b1a      	ldr	r3, [pc, #104]	; (80020ec <LCD_SetCursor+0x590>)
 8002082:	f44f 7280 	mov.w	r2, #256	; 0x100
 8002086:	611a      	str	r2, [r3, #16]
 8002088:	4b18      	ldr	r3, [pc, #96]	; (80020ec <LCD_SetCursor+0x590>)
 800208a:	f44f 7200 	mov.w	r2, #512	; 0x200
 800208e:	615a      	str	r2, [r3, #20]
 8002090:	88bb      	ldrh	r3, [r7, #4]
 8002092:	4a17      	ldr	r2, [pc, #92]	; (80020f0 <LCD_SetCursor+0x594>)
 8002094:	b2db      	uxtb	r3, r3
 8002096:	60d3      	str	r3, [r2, #12]
 8002098:	4b14      	ldr	r3, [pc, #80]	; (80020ec <LCD_SetCursor+0x590>)
 800209a:	2280      	movs	r2, #128	; 0x80
 800209c:	615a      	str	r2, [r3, #20]
 800209e:	4b13      	ldr	r3, [pc, #76]	; (80020ec <LCD_SetCursor+0x590>)
 80020a0:	2280      	movs	r2, #128	; 0x80
 80020a2:	611a      	str	r2, [r3, #16]
 80020a4:	4b11      	ldr	r3, [pc, #68]	; (80020ec <LCD_SetCursor+0x590>)
 80020a6:	f44f 7200 	mov.w	r2, #512	; 0x200
 80020aa:	611a      	str	r2, [r3, #16]
 80020ac:	e018      	b.n	80020e0 <LCD_SetCursor+0x584>
 80020ae:	4b0e      	ldr	r3, [pc, #56]	; (80020e8 <LCD_SetCursor+0x58c>)
 80020b0:	799b      	ldrb	r3, [r3, #6]
 80020b2:	2b01      	cmp	r3, #1
 80020b4:	d106      	bne.n	80020c4 <LCD_SetCursor+0x568>
 80020b6:	4b0c      	ldr	r3, [pc, #48]	; (80020e8 <LCD_SetCursor+0x58c>)
 80020b8:	881a      	ldrh	r2, [r3, #0]
 80020ba:	88fb      	ldrh	r3, [r7, #6]
 80020bc:	1ad3      	subs	r3, r2, r3
 80020be:	b29b      	uxth	r3, r3
 80020c0:	3b01      	subs	r3, #1
 80020c2:	80fb      	strh	r3, [r7, #6]
 80020c4:	4b08      	ldr	r3, [pc, #32]	; (80020e8 <LCD_SetCursor+0x58c>)
 80020c6:	895b      	ldrh	r3, [r3, #10]
 80020c8:	88fa      	ldrh	r2, [r7, #6]
 80020ca:	4611      	mov	r1, r2
 80020cc:	4618      	mov	r0, r3
 80020ce:	f7ff fcff 	bl	8001ad0 <LCD_WriteReg>
 80020d2:	4b05      	ldr	r3, [pc, #20]	; (80020e8 <LCD_SetCursor+0x58c>)
 80020d4:	899b      	ldrh	r3, [r3, #12]
 80020d6:	88ba      	ldrh	r2, [r7, #4]
 80020d8:	4611      	mov	r1, r2
 80020da:	4618      	mov	r0, r3
 80020dc:	f7ff fcf8 	bl	8001ad0 <LCD_WriteReg>
 80020e0:	bf00      	nop
 80020e2:	3708      	adds	r7, #8
 80020e4:	46bd      	mov	sp, r7
 80020e6:	bd80      	pop	{r7, pc}
 80020e8:	20000030 	.word	0x20000030
 80020ec:	40011000 	.word	0x40011000
 80020f0:	40010c00 	.word	0x40010c00

080020f4 <LCD_Scan_Dir>:
 80020f4:	b580      	push	{r7, lr}
 80020f6:	b084      	sub	sp, #16
 80020f8:	af00      	add	r7, sp, #0
 80020fa:	4603      	mov	r3, r0
 80020fc:	71fb      	strb	r3, [r7, #7]
 80020fe:	2300      	movs	r3, #0
 8002100:	81fb      	strh	r3, [r7, #14]
 8002102:	2300      	movs	r3, #0
 8002104:	81bb      	strh	r3, [r7, #12]
 8002106:	4b78      	ldr	r3, [pc, #480]	; (80022e8 <LCD_Scan_Dir+0x1f4>)
 8002108:	799b      	ldrb	r3, [r3, #6]
 800210a:	2b01      	cmp	r3, #1
 800210c:	d10b      	bne.n	8002126 <LCD_Scan_Dir+0x32>
 800210e:	4b76      	ldr	r3, [pc, #472]	; (80022e8 <LCD_Scan_Dir+0x1f4>)
 8002110:	889b      	ldrh	r3, [r3, #4]
 8002112:	f646 0204 	movw	r2, #26628	; 0x6804
 8002116:	4293      	cmp	r3, r2
 8002118:	d005      	beq.n	8002126 <LCD_Scan_Dir+0x32>
 800211a:	4b73      	ldr	r3, [pc, #460]	; (80022e8 <LCD_Scan_Dir+0x1f4>)
 800211c:	889b      	ldrh	r3, [r3, #4]
 800211e:	f641 1263 	movw	r2, #6499	; 0x1963
 8002122:	4293      	cmp	r3, r2
 8002124:	d109      	bne.n	800213a <LCD_Scan_Dir+0x46>
 8002126:	4b70      	ldr	r3, [pc, #448]	; (80022e8 <LCD_Scan_Dir+0x1f4>)
 8002128:	799b      	ldrb	r3, [r3, #6]
 800212a:	2b00      	cmp	r3, #0
 800212c:	d134      	bne.n	8002198 <LCD_Scan_Dir+0xa4>
 800212e:	4b6e      	ldr	r3, [pc, #440]	; (80022e8 <LCD_Scan_Dir+0x1f4>)
 8002130:	889b      	ldrh	r3, [r3, #4]
 8002132:	f641 1263 	movw	r2, #6499	; 0x1963
 8002136:	4293      	cmp	r3, r2
 8002138:	d12e      	bne.n	8002198 <LCD_Scan_Dir+0xa4>
 800213a:	79fb      	ldrb	r3, [r7, #7]
 800213c:	2b07      	cmp	r3, #7
 800213e:	d82b      	bhi.n	8002198 <LCD_Scan_Dir+0xa4>
 8002140:	a201      	add	r2, pc, #4	; (adr r2, 8002148 <LCD_Scan_Dir+0x54>)
 8002142:	f852 f023 	ldr.w	pc, [r2, r3, lsl #2]
 8002146:	bf00      	nop
 8002148:	08002169 	.word	0x08002169
 800214c:	0800216f 	.word	0x0800216f
 8002150:	08002175 	.word	0x08002175
 8002154:	0800217b 	.word	0x0800217b
 8002158:	08002181 	.word	0x08002181
 800215c:	08002187 	.word	0x08002187
 8002160:	0800218d 	.word	0x0800218d
 8002164:	08002193 	.word	0x08002193
 8002168:	2306      	movs	r3, #6
 800216a:	71fb      	strb	r3, [r7, #7]
 800216c:	e014      	b.n	8002198 <LCD_Scan_Dir+0xa4>
 800216e:	2307      	movs	r3, #7
 8002170:	71fb      	strb	r3, [r7, #7]
 8002172:	e011      	b.n	8002198 <LCD_Scan_Dir+0xa4>
 8002174:	2304      	movs	r3, #4
 8002176:	71fb      	strb	r3, [r7, #7]
 8002178:	e00e      	b.n	8002198 <LCD_Scan_Dir+0xa4>
 800217a:	2305      	movs	r3, #5
 800217c:	71fb      	strb	r3, [r7, #7]
 800217e:	e00b      	b.n	8002198 <LCD_Scan_Dir+0xa4>
 8002180:	2301      	movs	r3, #1
 8002182:	71fb      	strb	r3, [r7, #7]
 8002184:	e008      	b.n	8002198 <LCD_Scan_Dir+0xa4>
 8002186:	2300      	movs	r3, #0
 8002188:	71fb      	strb	r3, [r7, #7]
 800218a:	e005      	b.n	8002198 <LCD_Scan_Dir+0xa4>
 800218c:	2303      	movs	r3, #3
 800218e:	71fb      	strb	r3, [r7, #7]
 8002190:	e002      	b.n	8002198 <LCD_Scan_Dir+0xa4>
 8002192:	2302      	movs	r3, #2
 8002194:	71fb      	strb	r3, [r7, #7]
 8002196:	bf00      	nop
 8002198:	4b53      	ldr	r3, [pc, #332]	; (80022e8 <LCD_Scan_Dir+0x1f4>)
 800219a:	889b      	ldrh	r3, [r3, #4]
 800219c:	f249 3241 	movw	r2, #37697	; 0x9341
 80021a0:	4293      	cmp	r3, r2
 80021a2:	d018      	beq.n	80021d6 <LCD_Scan_Dir+0xe2>
 80021a4:	4b50      	ldr	r3, [pc, #320]	; (80022e8 <LCD_Scan_Dir+0x1f4>)
 80021a6:	889b      	ldrh	r3, [r3, #4]
 80021a8:	f646 0204 	movw	r2, #26628	; 0x6804
 80021ac:	4293      	cmp	r3, r2
 80021ae:	d012      	beq.n	80021d6 <LCD_Scan_Dir+0xe2>
 80021b0:	4b4d      	ldr	r3, [pc, #308]	; (80022e8 <LCD_Scan_Dir+0x1f4>)
 80021b2:	889b      	ldrh	r3, [r3, #4]
 80021b4:	f245 3210 	movw	r2, #21264	; 0x5310
 80021b8:	4293      	cmp	r3, r2
 80021ba:	d00c      	beq.n	80021d6 <LCD_Scan_Dir+0xe2>
 80021bc:	4b4a      	ldr	r3, [pc, #296]	; (80022e8 <LCD_Scan_Dir+0x1f4>)
 80021be:	889b      	ldrh	r3, [r3, #4]
 80021c0:	f245 5210 	movw	r2, #21776	; 0x5510
 80021c4:	4293      	cmp	r3, r2
 80021c6:	d006      	beq.n	80021d6 <LCD_Scan_Dir+0xe2>
 80021c8:	4b47      	ldr	r3, [pc, #284]	; (80022e8 <LCD_Scan_Dir+0x1f4>)
 80021ca:	889b      	ldrh	r3, [r3, #4]
 80021cc:	f641 1263 	movw	r2, #6499	; 0x1963
 80021d0:	4293      	cmp	r3, r2
 80021d2:	f040 8250 	bne.w	8002676 <LCD_Scan_Dir+0x582>
 80021d6:	79fb      	ldrb	r3, [r7, #7]
 80021d8:	2b07      	cmp	r3, #7
 80021da:	d836      	bhi.n	800224a <LCD_Scan_Dir+0x156>
 80021dc:	a201      	add	r2, pc, #4	; (adr r2, 80021e4 <LCD_Scan_Dir+0xf0>)
 80021de:	f852 f023 	ldr.w	pc, [r2, r3, lsl #2]
 80021e2:	bf00      	nop
 80021e4:	0800224b 	.word	0x0800224b
 80021e8:	08002205 	.word	0x08002205
 80021ec:	0800220f 	.word	0x0800220f
 80021f0:	08002219 	.word	0x08002219
 80021f4:	08002223 	.word	0x08002223
 80021f8:	0800222d 	.word	0x0800222d
 80021fc:	08002237 	.word	0x08002237
 8002200:	08002241 	.word	0x08002241
 8002204:	89fb      	ldrh	r3, [r7, #14]
 8002206:	f043 0380 	orr.w	r3, r3, #128	; 0x80
 800220a:	81fb      	strh	r3, [r7, #14]
 800220c:	e01d      	b.n	800224a <LCD_Scan_Dir+0x156>
 800220e:	89fb      	ldrh	r3, [r7, #14]
 8002210:	f043 0340 	orr.w	r3, r3, #64	; 0x40
 8002214:	81fb      	strh	r3, [r7, #14]
 8002216:	e018      	b.n	800224a <LCD_Scan_Dir+0x156>
 8002218:	89fb      	ldrh	r3, [r7, #14]
 800221a:	f043 03c0 	orr.w	r3, r3, #192	; 0xc0
 800221e:	81fb      	strh	r3, [r7, #14]
 8002220:	e013      	b.n	800224a <LCD_Scan_Dir+0x156>
 8002222:	89fb      	ldrh	r3, [r7, #14]
 8002224:	f043 0320 	orr.w	r3, r3, #32
 8002228:	81fb      	strh	r3, [r7, #14]
 800222a:	e00e      	b.n	800224a <LCD_Scan_Dir+0x156>
 800222c:	89fb      	ldrh	r3, [r7, #14]
 800222e:	f043 0360 	orr.w	r3, r3, #96	; 0x60
 8002232:	81fb      	strh	r3, [r7, #14]
 8002234:	e009      	b.n	800224a <LCD_Scan_Dir+0x156>
 8002236:	89fb      	ldrh	r3, [r7, #14]
 8002238:	f043 03a0 	orr.w	r3, r3, #160	; 0xa0
 800223c:	81fb      	strh	r3, [r7, #14]
 800223e:	e004      	b.n	800224a <LCD_Scan_Dir+0x156>
 8002240:	89fb      	ldrh	r3, [r7, #14]
 8002242:	f043 03e0 	orr.w	r3, r3, #224	; 0xe0
 8002246:	81fb      	strh	r3, [r7, #14]
 8002248:	bf00      	nop
 800224a:	4b27      	ldr	r3, [pc, #156]	; (80022e8 <LCD_Scan_Dir+0x1f4>)
 800224c:	889b      	ldrh	r3, [r3, #4]
 800224e:	f245 5210 	movw	r2, #21776	; 0x5510
 8002252:	4293      	cmp	r3, r2
 8002254:	d103      	bne.n	800225e <LCD_Scan_Dir+0x16a>
 8002256:	f44f 5358 	mov.w	r3, #13824	; 0x3600
 800225a:	81bb      	strh	r3, [r7, #12]
 800225c:	e001      	b.n	8002262 <LCD_Scan_Dir+0x16e>
 800225e:	2336      	movs	r3, #54	; 0x36
 8002260:	81bb      	strh	r3, [r7, #12]
 8002262:	4b21      	ldr	r3, [pc, #132]	; (80022e8 <LCD_Scan_Dir+0x1f4>)
 8002264:	889b      	ldrh	r3, [r3, #4]
 8002266:	f245 3210 	movw	r2, #21264	; 0x5310
 800226a:	4293      	cmp	r3, r2
 800226c:	d00f      	beq.n	800228e <LCD_Scan_Dir+0x19a>
 800226e:	4b1e      	ldr	r3, [pc, #120]	; (80022e8 <LCD_Scan_Dir+0x1f4>)
 8002270:	889b      	ldrh	r3, [r3, #4]
 8002272:	f245 5210 	movw	r2, #21776	; 0x5510
 8002276:	4293      	cmp	r3, r2
 8002278:	d009      	beq.n	800228e <LCD_Scan_Dir+0x19a>
 800227a:	4b1b      	ldr	r3, [pc, #108]	; (80022e8 <LCD_Scan_Dir+0x1f4>)
 800227c:	889b      	ldrh	r3, [r3, #4]
 800227e:	f641 1263 	movw	r2, #6499	; 0x1963
 8002282:	4293      	cmp	r3, r2
 8002284:	d003      	beq.n	800228e <LCD_Scan_Dir+0x19a>
 8002286:	89fb      	ldrh	r3, [r7, #14]
 8002288:	f043 0308 	orr.w	r3, r3, #8
 800228c:	81fb      	strh	r3, [r7, #14]
 800228e:	4b16      	ldr	r3, [pc, #88]	; (80022e8 <LCD_Scan_Dir+0x1f4>)
 8002290:	889b      	ldrh	r3, [r3, #4]
 8002292:	f646 0204 	movw	r2, #26628	; 0x6804
 8002296:	4293      	cmp	r3, r2
 8002298:	d103      	bne.n	80022a2 <LCD_Scan_Dir+0x1ae>
 800229a:	89fb      	ldrh	r3, [r7, #14]
 800229c:	f043 0302 	orr.w	r3, r3, #2
 80022a0:	81fb      	strh	r3, [r7, #14]
 80022a2:	89fa      	ldrh	r2, [r7, #14]
 80022a4:	89bb      	ldrh	r3, [r7, #12]
 80022a6:	4611      	mov	r1, r2
 80022a8:	4618      	mov	r0, r3
 80022aa:	f7ff fc11 	bl	8001ad0 <LCD_WriteReg>
 80022ae:	4b0e      	ldr	r3, [pc, #56]	; (80022e8 <LCD_Scan_Dir+0x1f4>)
 80022b0:	889b      	ldrh	r3, [r3, #4]
 80022b2:	f641 1263 	movw	r2, #6499	; 0x1963
 80022b6:	4293      	cmp	r3, r2
 80022b8:	d028      	beq.n	800230c <LCD_Scan_Dir+0x218>
 80022ba:	89fb      	ldrh	r3, [r7, #14]
 80022bc:	f003 0320 	and.w	r3, r3, #32
 80022c0:	2b00      	cmp	r3, #0
 80022c2:	d013      	beq.n	80022ec <LCD_Scan_Dir+0x1f8>
 80022c4:	4b08      	ldr	r3, [pc, #32]	; (80022e8 <LCD_Scan_Dir+0x1f4>)
 80022c6:	881a      	ldrh	r2, [r3, #0]
 80022c8:	4b07      	ldr	r3, [pc, #28]	; (80022e8 <LCD_Scan_Dir+0x1f4>)
 80022ca:	885b      	ldrh	r3, [r3, #2]
 80022cc:	429a      	cmp	r2, r3
 80022ce:	d21d      	bcs.n	800230c <LCD_Scan_Dir+0x218>
 80022d0:	4b05      	ldr	r3, [pc, #20]	; (80022e8 <LCD_Scan_Dir+0x1f4>)
 80022d2:	881b      	ldrh	r3, [r3, #0]
 80022d4:	817b      	strh	r3, [r7, #10]
 80022d6:	4b04      	ldr	r3, [pc, #16]	; (80022e8 <LCD_Scan_Dir+0x1f4>)
 80022d8:	885a      	ldrh	r2, [r3, #2]
 80022da:	4b03      	ldr	r3, [pc, #12]	; (80022e8 <LCD_Scan_Dir+0x1f4>)
 80022dc:	801a      	strh	r2, [r3, #0]
 80022de:	4a02      	ldr	r2, [pc, #8]	; (80022e8 <LCD_Scan_Dir+0x1f4>)
 80022e0:	897b      	ldrh	r3, [r7, #10]
 80022e2:	8053      	strh	r3, [r2, #2]
 80022e4:	e012      	b.n	800230c <LCD_Scan_Dir+0x218>
 80022e6:	bf00      	nop
 80022e8:	20000030 	.word	0x20000030
 80022ec:	4b7f      	ldr	r3, [pc, #508]	; (80024ec <LCD_Scan_Dir+0x3f8>)
 80022ee:	881a      	ldrh	r2, [r3, #0]
 80022f0:	4b7e      	ldr	r3, [pc, #504]	; (80024ec <LCD_Scan_Dir+0x3f8>)
 80022f2:	885b      	ldrh	r3, [r3, #2]
 80022f4:	429a      	cmp	r2, r3
 80022f6:	d909      	bls.n	800230c <LCD_Scan_Dir+0x218>
 80022f8:	4b7c      	ldr	r3, [pc, #496]	; (80024ec <LCD_Scan_Dir+0x3f8>)
 80022fa:	881b      	ldrh	r3, [r3, #0]
 80022fc:	817b      	strh	r3, [r7, #10]
 80022fe:	4b7b      	ldr	r3, [pc, #492]	; (80024ec <LCD_Scan_Dir+0x3f8>)
 8002300:	885a      	ldrh	r2, [r3, #2]
 8002302:	4b7a      	ldr	r3, [pc, #488]	; (80024ec <LCD_Scan_Dir+0x3f8>)
 8002304:	801a      	strh	r2, [r3, #0]
 8002306:	4a79      	ldr	r2, [pc, #484]	; (80024ec <LCD_Scan_Dir+0x3f8>)
 8002308:	897b      	ldrh	r3, [r7, #10]
 800230a:	8053      	strh	r3, [r2, #2]
 800230c:	4b77      	ldr	r3, [pc, #476]	; (80024ec <LCD_Scan_Dir+0x3f8>)
 800230e:	889b      	ldrh	r3, [r3, #4]
 8002310:	f245 5210 	movw	r2, #21776	; 0x5510
 8002314:	4293      	cmp	r3, r2
 8002316:	f040 80ef 	bne.w	80024f8 <LCD_Scan_Dir+0x404>
 800231a:	4b74      	ldr	r3, [pc, #464]	; (80024ec <LCD_Scan_Dir+0x3f8>)
 800231c:	895b      	ldrh	r3, [r3, #10]
 800231e:	4618      	mov	r0, r3
 8002320:	f7ff fb4a 	bl	80019b8 <LCD_WR_REG>
 8002324:	4b72      	ldr	r3, [pc, #456]	; (80024f0 <LCD_Scan_Dir+0x3fc>)
 8002326:	f44f 7280 	mov.w	r2, #256	; 0x100
 800232a:	611a      	str	r2, [r3, #16]
 800232c:	4b70      	ldr	r3, [pc, #448]	; (80024f0 <LCD_Scan_Dir+0x3fc>)
 800232e:	f44f 7200 	mov.w	r2, #512	; 0x200
 8002332:	615a      	str	r2, [r3, #20]
 8002334:	4b6f      	ldr	r3, [pc, #444]	; (80024f4 <LCD_Scan_Dir+0x400>)
 8002336:	2200      	movs	r2, #0
 8002338:	60da      	str	r2, [r3, #12]
 800233a:	4b6d      	ldr	r3, [pc, #436]	; (80024f0 <LCD_Scan_Dir+0x3fc>)
 800233c:	2280      	movs	r2, #128	; 0x80
 800233e:	615a      	str	r2, [r3, #20]
 8002340:	4b6b      	ldr	r3, [pc, #428]	; (80024f0 <LCD_Scan_Dir+0x3fc>)
 8002342:	2280      	movs	r2, #128	; 0x80
 8002344:	611a      	str	r2, [r3, #16]
 8002346:	4b6a      	ldr	r3, [pc, #424]	; (80024f0 <LCD_Scan_Dir+0x3fc>)
 8002348:	f44f 7200 	mov.w	r2, #512	; 0x200
 800234c:	611a      	str	r2, [r3, #16]
 800234e:	4b67      	ldr	r3, [pc, #412]	; (80024ec <LCD_Scan_Dir+0x3f8>)
 8002350:	895b      	ldrh	r3, [r3, #10]
 8002352:	3301      	adds	r3, #1
 8002354:	b29b      	uxth	r3, r3
 8002356:	4618      	mov	r0, r3
 8002358:	f7ff fb2e 	bl	80019b8 <LCD_WR_REG>
 800235c:	4b64      	ldr	r3, [pc, #400]	; (80024f0 <LCD_Scan_Dir+0x3fc>)
 800235e:	f44f 7280 	mov.w	r2, #256	; 0x100
 8002362:	611a      	str	r2, [r3, #16]
 8002364:	4b62      	ldr	r3, [pc, #392]	; (80024f0 <LCD_Scan_Dir+0x3fc>)
 8002366:	f44f 7200 	mov.w	r2, #512	; 0x200
 800236a:	615a      	str	r2, [r3, #20]
 800236c:	4b61      	ldr	r3, [pc, #388]	; (80024f4 <LCD_Scan_Dir+0x400>)
 800236e:	2200      	movs	r2, #0
 8002370:	60da      	str	r2, [r3, #12]
 8002372:	4b5f      	ldr	r3, [pc, #380]	; (80024f0 <LCD_Scan_Dir+0x3fc>)
 8002374:	2280      	movs	r2, #128	; 0x80
 8002376:	615a      	str	r2, [r3, #20]
 8002378:	4b5d      	ldr	r3, [pc, #372]	; (80024f0 <LCD_Scan_Dir+0x3fc>)
 800237a:	2280      	movs	r2, #128	; 0x80
 800237c:	611a      	str	r2, [r3, #16]
 800237e:	4b5c      	ldr	r3, [pc, #368]	; (80024f0 <LCD_Scan_Dir+0x3fc>)
 8002380:	f44f 7200 	mov.w	r2, #512	; 0x200
 8002384:	611a      	str	r2, [r3, #16]
 8002386:	4b59      	ldr	r3, [pc, #356]	; (80024ec <LCD_Scan_Dir+0x3f8>)
 8002388:	895b      	ldrh	r3, [r3, #10]
 800238a:	3302      	adds	r3, #2
 800238c:	b29b      	uxth	r3, r3
 800238e:	4618      	mov	r0, r3
 8002390:	f7ff fb12 	bl	80019b8 <LCD_WR_REG>
 8002394:	4b56      	ldr	r3, [pc, #344]	; (80024f0 <LCD_Scan_Dir+0x3fc>)
 8002396:	f44f 7280 	mov.w	r2, #256	; 0x100
 800239a:	611a      	str	r2, [r3, #16]
 800239c:	4b54      	ldr	r3, [pc, #336]	; (80024f0 <LCD_Scan_Dir+0x3fc>)
 800239e:	f44f 7200 	mov.w	r2, #512	; 0x200
 80023a2:	615a      	str	r2, [r3, #20]
 80023a4:	4b51      	ldr	r3, [pc, #324]	; (80024ec <LCD_Scan_Dir+0x3f8>)
 80023a6:	881b      	ldrh	r3, [r3, #0]
 80023a8:	3b01      	subs	r3, #1
 80023aa:	121a      	asrs	r2, r3, #8
 80023ac:	4b51      	ldr	r3, [pc, #324]	; (80024f4 <LCD_Scan_Dir+0x400>)
 80023ae:	60da      	str	r2, [r3, #12]
 80023b0:	4b4f      	ldr	r3, [pc, #316]	; (80024f0 <LCD_Scan_Dir+0x3fc>)
 80023b2:	2280      	movs	r2, #128	; 0x80
 80023b4:	615a      	str	r2, [r3, #20]
 80023b6:	4b4e      	ldr	r3, [pc, #312]	; (80024f0 <LCD_Scan_Dir+0x3fc>)
 80023b8:	2280      	movs	r2, #128	; 0x80
 80023ba:	611a      	str	r2, [r3, #16]
 80023bc:	4b4c      	ldr	r3, [pc, #304]	; (80024f0 <LCD_Scan_Dir+0x3fc>)
 80023be:	f44f 7200 	mov.w	r2, #512	; 0x200
 80023c2:	611a      	str	r2, [r3, #16]
 80023c4:	4b49      	ldr	r3, [pc, #292]	; (80024ec <LCD_Scan_Dir+0x3f8>)
 80023c6:	895b      	ldrh	r3, [r3, #10]
 80023c8:	3303      	adds	r3, #3
 80023ca:	b29b      	uxth	r3, r3
 80023cc:	4618      	mov	r0, r3
 80023ce:	f7ff faf3 	bl	80019b8 <LCD_WR_REG>
 80023d2:	4b47      	ldr	r3, [pc, #284]	; (80024f0 <LCD_Scan_Dir+0x3fc>)
 80023d4:	f44f 7280 	mov.w	r2, #256	; 0x100
 80023d8:	611a      	str	r2, [r3, #16]
 80023da:	4b45      	ldr	r3, [pc, #276]	; (80024f0 <LCD_Scan_Dir+0x3fc>)
 80023dc:	f44f 7200 	mov.w	r2, #512	; 0x200
 80023e0:	615a      	str	r2, [r3, #20]
 80023e2:	4b42      	ldr	r3, [pc, #264]	; (80024ec <LCD_Scan_Dir+0x3f8>)
 80023e4:	881b      	ldrh	r3, [r3, #0]
 80023e6:	3b01      	subs	r3, #1
 80023e8:	4a42      	ldr	r2, [pc, #264]	; (80024f4 <LCD_Scan_Dir+0x400>)
 80023ea:	b2db      	uxtb	r3, r3
 80023ec:	60d3      	str	r3, [r2, #12]
 80023ee:	4b40      	ldr	r3, [pc, #256]	; (80024f0 <LCD_Scan_Dir+0x3fc>)
 80023f0:	2280      	movs	r2, #128	; 0x80
 80023f2:	615a      	str	r2, [r3, #20]
 80023f4:	4b3e      	ldr	r3, [pc, #248]	; (80024f0 <LCD_Scan_Dir+0x3fc>)
 80023f6:	2280      	movs	r2, #128	; 0x80
 80023f8:	611a      	str	r2, [r3, #16]
 80023fa:	4b3d      	ldr	r3, [pc, #244]	; (80024f0 <LCD_Scan_Dir+0x3fc>)
 80023fc:	f44f 7200 	mov.w	r2, #512	; 0x200
 8002400:	611a      	str	r2, [r3, #16]
 8002402:	4b3a      	ldr	r3, [pc, #232]	; (80024ec <LCD_Scan_Dir+0x3f8>)
 8002404:	899b      	ldrh	r3, [r3, #12]
 8002406:	4618      	mov	r0, r3
 8002408:	f7ff fad6 	bl	80019b8 <LCD_WR_REG>
 800240c:	4b38      	ldr	r3, [pc, #224]	; (80024f0 <LCD_Scan_Dir+0x3fc>)
 800240e:	f44f 7280 	mov.w	r2, #256	; 0x100
 8002412:	611a      	str	r2, [r3, #16]
 8002414:	4b36      	ldr	r3, [pc, #216]	; (80024f0 <LCD_Scan_Dir+0x3fc>)
 8002416:	f44f 7200 	mov.w	r2, #512	; 0x200
 800241a:	615a      	str	r2, [r3, #20]
 800241c:	4b35      	ldr	r3, [pc, #212]	; (80024f4 <LCD_Scan_Dir+0x400>)
 800241e:	2200      	movs	r2, #0
 8002420:	60da      	str	r2, [r3, #12]
 8002422:	4b33      	ldr	r3, [pc, #204]	; (80024f0 <LCD_Scan_Dir+0x3fc>)
 8002424:	2280      	movs	r2, #128	; 0x80
 8002426:	615a      	str	r2, [r3, #20]
 8002428:	4b31      	ldr	r3, [pc, #196]	; (80024f0 <LCD_Scan_Dir+0x3fc>)
 800242a:	2280      	movs	r2, #128	; 0x80
 800242c:	611a      	str	r2, [r3, #16]
 800242e:	4b30      	ldr	r3, [pc, #192]	; (80024f0 <LCD_Scan_Dir+0x3fc>)
 8002430:	f44f 7200 	mov.w	r2, #512	; 0x200
 8002434:	611a      	str	r2, [r3, #16]
 8002436:	4b2d      	ldr	r3, [pc, #180]	; (80024ec <LCD_Scan_Dir+0x3f8>)
 8002438:	899b      	ldrh	r3, [r3, #12]
 800243a:	3301      	adds	r3, #1
 800243c:	b29b      	uxth	r3, r3
 800243e:	4618      	mov	r0, r3
 8002440:	f7ff faba 	bl	80019b8 <LCD_WR_REG>
 8002444:	4b2a      	ldr	r3, [pc, #168]	; (80024f0 <LCD_Scan_Dir+0x3fc>)
 8002446:	f44f 7280 	mov.w	r2, #256	; 0x100
 800244a:	611a      	str	r2, [r3, #16]
 800244c:	4b28      	ldr	r3, [pc, #160]	; (80024f0 <LCD_Scan_Dir+0x3fc>)
 800244e:	f44f 7200 	mov.w	r2, #512	; 0x200
 8002452:	615a      	str	r2, [r3, #20]
 8002454:	4b27      	ldr	r3, [pc, #156]	; (80024f4 <LCD_Scan_Dir+0x400>)
 8002456:	2200      	movs	r2, #0
 8002458:	60da      	str	r2, [r3, #12]
 800245a:	4b25      	ldr	r3, [pc, #148]	; (80024f0 <LCD_Scan_Dir+0x3fc>)
 800245c:	2280      	movs	r2, #128	; 0x80
 800245e:	615a      	str	r2, [r3, #20]
 8002460:	4b23      	ldr	r3, [pc, #140]	; (80024f0 <LCD_Scan_Dir+0x3fc>)
 8002462:	2280      	movs	r2, #128	; 0x80
 8002464:	611a      	str	r2, [r3, #16]
 8002466:	4b22      	ldr	r3, [pc, #136]	; (80024f0 <LCD_Scan_Dir+0x3fc>)
 8002468:	f44f 7200 	mov.w	r2, #512	; 0x200
 800246c:	611a      	str	r2, [r3, #16]
 800246e:	4b1f      	ldr	r3, [pc, #124]	; (80024ec <LCD_Scan_Dir+0x3f8>)
 8002470:	899b      	ldrh	r3, [r3, #12]
 8002472:	3302      	adds	r3, #2
 8002474:	b29b      	uxth	r3, r3
 8002476:	4618      	mov	r0, r3
 8002478:	f7ff fa9e 	bl	80019b8 <LCD_WR_REG>
 800247c:	4b1c      	ldr	r3, [pc, #112]	; (80024f0 <LCD_Scan_Dir+0x3fc>)
 800247e:	f44f 7280 	mov.w	r2, #256	; 0x100
 8002482:	611a      	str	r2, [r3, #16]
 8002484:	4b1a      	ldr	r3, [pc, #104]	; (80024f0 <LCD_Scan_Dir+0x3fc>)
 8002486:	f44f 7200 	mov.w	r2, #512	; 0x200
 800248a:	615a      	str	r2, [r3, #20]
 800248c:	4b17      	ldr	r3, [pc, #92]	; (80024ec <LCD_Scan_Dir+0x3f8>)
 800248e:	885b      	ldrh	r3, [r3, #2]
 8002490:	3b01      	subs	r3, #1
 8002492:	121a      	asrs	r2, r3, #8
 8002494:	4b17      	ldr	r3, [pc, #92]	; (80024f4 <LCD_Scan_Dir+0x400>)
 8002496:	60da      	str	r2, [r3, #12]
 8002498:	4b15      	ldr	r3, [pc, #84]	; (80024f0 <LCD_Scan_Dir+0x3fc>)
 800249a:	2280      	movs	r2, #128	; 0x80
 800249c:	615a      	str	r2, [r3, #20]
 800249e:	4b14      	ldr	r3, [pc, #80]	; (80024f0 <LCD_Scan_Dir+0x3fc>)
 80024a0:	2280      	movs	r2, #128	; 0x80
 80024a2:	611a      	str	r2, [r3, #16]
 80024a4:	4b12      	ldr	r3, [pc, #72]	; (80024f0 <LCD_Scan_Dir+0x3fc>)
 80024a6:	f44f 7200 	mov.w	r2, #512	; 0x200
 80024aa:	611a      	str	r2, [r3, #16]
 80024ac:	4b0f      	ldr	r3, [pc, #60]	; (80024ec <LCD_Scan_Dir+0x3f8>)
 80024ae:	899b      	ldrh	r3, [r3, #12]
 80024b0:	3303      	adds	r3, #3
 80024b2:	b29b      	uxth	r3, r3
 80024b4:	4618      	mov	r0, r3
 80024b6:	f7ff fa7f 	bl	80019b8 <LCD_WR_REG>
 80024ba:	4b0d      	ldr	r3, [pc, #52]	; (80024f0 <LCD_Scan_Dir+0x3fc>)
 80024bc:	f44f 7280 	mov.w	r2, #256	; 0x100
 80024c0:	611a      	str	r2, [r3, #16]
 80024c2:	4b0b      	ldr	r3, [pc, #44]	; (80024f0 <LCD_Scan_Dir+0x3fc>)
 80024c4:	f44f 7200 	mov.w	r2, #512	; 0x200
 80024c8:	615a      	str	r2, [r3, #20]
 80024ca:	4b08      	ldr	r3, [pc, #32]	; (80024ec <LCD_Scan_Dir+0x3f8>)
 80024cc:	885b      	ldrh	r3, [r3, #2]
 80024ce:	3b01      	subs	r3, #1
 80024d0:	4a08      	ldr	r2, [pc, #32]	; (80024f4 <LCD_Scan_Dir+0x400>)
 80024d2:	b2db      	uxtb	r3, r3
 80024d4:	60d3      	str	r3, [r2, #12]
 80024d6:	4b06      	ldr	r3, [pc, #24]	; (80024f0 <LCD_Scan_Dir+0x3fc>)
 80024d8:	2280      	movs	r2, #128	; 0x80
 80024da:	615a      	str	r2, [r3, #20]
 80024dc:	4b04      	ldr	r3, [pc, #16]	; (80024f0 <LCD_Scan_Dir+0x3fc>)
 80024de:	2280      	movs	r2, #128	; 0x80
 80024e0:	611a      	str	r2, [r3, #16]
 80024e2:	4b03      	ldr	r3, [pc, #12]	; (80024f0 <LCD_Scan_Dir+0x3fc>)
 80024e4:	f44f 7200 	mov.w	r2, #512	; 0x200
 80024e8:	611a      	str	r2, [r3, #16]
 80024ea:	e10a      	b.n	8002702 <LCD_Scan_Dir+0x60e>
 80024ec:	20000030 	.word	0x20000030
 80024f0:	40011000 	.word	0x40011000
 80024f4:	40010c00 	.word	0x40010c00
 80024f8:	4b84      	ldr	r3, [pc, #528]	; (800270c <LCD_Scan_Dir+0x618>)
 80024fa:	895b      	ldrh	r3, [r3, #10]
 80024fc:	4618      	mov	r0, r3
 80024fe:	f7ff fa5b 	bl	80019b8 <LCD_WR_REG>
 8002502:	4b83      	ldr	r3, [pc, #524]	; (8002710 <LCD_Scan_Dir+0x61c>)
 8002504:	f44f 7280 	mov.w	r2, #256	; 0x100
 8002508:	611a      	str	r2, [r3, #16]
 800250a:	4b81      	ldr	r3, [pc, #516]	; (8002710 <LCD_Scan_Dir+0x61c>)
 800250c:	f44f 7200 	mov.w	r2, #512	; 0x200
 8002510:	615a      	str	r2, [r3, #20]
 8002512:	4b80      	ldr	r3, [pc, #512]	; (8002714 <LCD_Scan_Dir+0x620>)
 8002514:	2200      	movs	r2, #0
 8002516:	60da      	str	r2, [r3, #12]
 8002518:	4b7d      	ldr	r3, [pc, #500]	; (8002710 <LCD_Scan_Dir+0x61c>)
 800251a:	2280      	movs	r2, #128	; 0x80
 800251c:	615a      	str	r2, [r3, #20]
 800251e:	4b7c      	ldr	r3, [pc, #496]	; (8002710 <LCD_Scan_Dir+0x61c>)
 8002520:	2280      	movs	r2, #128	; 0x80
 8002522:	611a      	str	r2, [r3, #16]
 8002524:	4b7a      	ldr	r3, [pc, #488]	; (8002710 <LCD_Scan_Dir+0x61c>)
 8002526:	f44f 7200 	mov.w	r2, #512	; 0x200
 800252a:	611a      	str	r2, [r3, #16]
 800252c:	4b78      	ldr	r3, [pc, #480]	; (8002710 <LCD_Scan_Dir+0x61c>)
 800252e:	f44f 7280 	mov.w	r2, #256	; 0x100
 8002532:	611a      	str	r2, [r3, #16]
 8002534:	4b76      	ldr	r3, [pc, #472]	; (8002710 <LCD_Scan_Dir+0x61c>)
 8002536:	f44f 7200 	mov.w	r2, #512	; 0x200
 800253a:	615a      	str	r2, [r3, #20]
 800253c:	4b75      	ldr	r3, [pc, #468]	; (8002714 <LCD_Scan_Dir+0x620>)
 800253e:	2200      	movs	r2, #0
 8002540:	60da      	str	r2, [r3, #12]
 8002542:	4b73      	ldr	r3, [pc, #460]	; (8002710 <LCD_Scan_Dir+0x61c>)
 8002544:	2280      	movs	r2, #128	; 0x80
 8002546:	615a      	str	r2, [r3, #20]
 8002548:	4b71      	ldr	r3, [pc, #452]	; (8002710 <LCD_Scan_Dir+0x61c>)
 800254a:	2280      	movs	r2, #128	; 0x80
 800254c:	611a      	str	r2, [r3, #16]
 800254e:	4b70      	ldr	r3, [pc, #448]	; (8002710 <LCD_Scan_Dir+0x61c>)
 8002550:	f44f 7200 	mov.w	r2, #512	; 0x200
 8002554:	611a      	str	r2, [r3, #16]
 8002556:	4b6e      	ldr	r3, [pc, #440]	; (8002710 <LCD_Scan_Dir+0x61c>)
 8002558:	f44f 7280 	mov.w	r2, #256	; 0x100
 800255c:	611a      	str	r2, [r3, #16]
 800255e:	4b6c      	ldr	r3, [pc, #432]	; (8002710 <LCD_Scan_Dir+0x61c>)
 8002560:	f44f 7200 	mov.w	r2, #512	; 0x200
 8002564:	615a      	str	r2, [r3, #20]
 8002566:	4b69      	ldr	r3, [pc, #420]	; (800270c <LCD_Scan_Dir+0x618>)
 8002568:	881b      	ldrh	r3, [r3, #0]
 800256a:	3b01      	subs	r3, #1
 800256c:	121a      	asrs	r2, r3, #8
 800256e:	4b69      	ldr	r3, [pc, #420]	; (8002714 <LCD_Scan_Dir+0x620>)
 8002570:	60da      	str	r2, [r3, #12]
 8002572:	4b67      	ldr	r3, [pc, #412]	; (8002710 <LCD_Scan_Dir+0x61c>)
 8002574:	2280      	movs	r2, #128	; 0x80
 8002576:	615a      	str	r2, [r3, #20]
 8002578:	4b65      	ldr	r3, [pc, #404]	; (8002710 <LCD_Scan_Dir+0x61c>)
 800257a:	2280      	movs	r2, #128	; 0x80
 800257c:	611a      	str	r2, [r3, #16]
 800257e:	4b64      	ldr	r3, [pc, #400]	; (8002710 <LCD_Scan_Dir+0x61c>)
 8002580:	f44f 7200 	mov.w	r2, #512	; 0x200
 8002584:	611a      	str	r2, [r3, #16]
 8002586:	4b62      	ldr	r3, [pc, #392]	; (8002710 <LCD_Scan_Dir+0x61c>)
 8002588:	f44f 7280 	mov.w	r2, #256	; 0x100
 800258c:	611a      	str	r2, [r3, #16]
 800258e:	4b60      	ldr	r3, [pc, #384]	; (8002710 <LCD_Scan_Dir+0x61c>)
 8002590:	f44f 7200 	mov.w	r2, #512	; 0x200
 8002594:	615a      	str	r2, [r3, #20]
 8002596:	4b5d      	ldr	r3, [pc, #372]	; (800270c <LCD_Scan_Dir+0x618>)
 8002598:	881b      	ldrh	r3, [r3, #0]
 800259a:	3b01      	subs	r3, #1
 800259c:	4a5d      	ldr	r2, [pc, #372]	; (8002714 <LCD_Scan_Dir+0x620>)
 800259e:	b2db      	uxtb	r3, r3
 80025a0:	60d3      	str	r3, [r2, #12]
 80025a2:	4b5b      	ldr	r3, [pc, #364]	; (8002710 <LCD_Scan_Dir+0x61c>)
 80025a4:	2280      	movs	r2, #128	; 0x80
 80025a6:	615a      	str	r2, [r3, #20]
 80025a8:	4b59      	ldr	r3, [pc, #356]	; (8002710 <LCD_Scan_Dir+0x61c>)
 80025aa:	2280      	movs	r2, #128	; 0x80
 80025ac:	611a      	str	r2, [r3, #16]
 80025ae:	4b58      	ldr	r3, [pc, #352]	; (8002710 <LCD_Scan_Dir+0x61c>)
 80025b0:	f44f 7200 	mov.w	r2, #512	; 0x200
 80025b4:	611a      	str	r2, [r3, #16]
 80025b6:	4b55      	ldr	r3, [pc, #340]	; (800270c <LCD_Scan_Dir+0x618>)
 80025b8:	899b      	ldrh	r3, [r3, #12]
 80025ba:	4618      	mov	r0, r3
 80025bc:	f7ff f9fc 	bl	80019b8 <LCD_WR_REG>
 80025c0:	4b53      	ldr	r3, [pc, #332]	; (8002710 <LCD_Scan_Dir+0x61c>)
 80025c2:	f44f 7280 	mov.w	r2, #256	; 0x100
 80025c6:	611a      	str	r2, [r3, #16]
 80025c8:	4b51      	ldr	r3, [pc, #324]	; (8002710 <LCD_Scan_Dir+0x61c>)
 80025ca:	f44f 7200 	mov.w	r2, #512	; 0x200
 80025ce:	615a      	str	r2, [r3, #20]
 80025d0:	4b50      	ldr	r3, [pc, #320]	; (8002714 <LCD_Scan_Dir+0x620>)
 80025d2:	2200      	movs	r2, #0
 80025d4:	60da      	str	r2, [r3, #12]
 80025d6:	4b4e      	ldr	r3, [pc, #312]	; (8002710 <LCD_Scan_Dir+0x61c>)
 80025d8:	2280      	movs	r2, #128	; 0x80
 80025da:	615a      	str	r2, [r3, #20]
 80025dc:	4b4c      	ldr	r3, [pc, #304]	; (8002710 <LCD_Scan_Dir+0x61c>)
 80025de:	2280      	movs	r2, #128	; 0x80
 80025e0:	611a      	str	r2, [r3, #16]
 80025e2:	4b4b      	ldr	r3, [pc, #300]	; (8002710 <LCD_Scan_Dir+0x61c>)
 80025e4:	f44f 7200 	mov.w	r2, #512	; 0x200
 80025e8:	611a      	str	r2, [r3, #16]
 80025ea:	4b49      	ldr	r3, [pc, #292]	; (8002710 <LCD_Scan_Dir+0x61c>)
 80025ec:	f44f 7280 	mov.w	r2, #256	; 0x100
 80025f0:	611a      	str	r2, [r3, #16]
 80025f2:	4b47      	ldr	r3, [pc, #284]	; (8002710 <LCD_Scan_Dir+0x61c>)
 80025f4:	f44f 7200 	mov.w	r2, #512	; 0x200
 80025f8:	615a      	str	r2, [r3, #20]
 80025fa:	4b46      	ldr	r3, [pc, #280]	; (8002714 <LCD_Scan_Dir+0x620>)
 80025fc:	2200      	movs	r2, #0
 80025fe:	60da      	str	r2, [r3, #12]
 8002600:	4b43      	ldr	r3, [pc, #268]	; (8002710 <LCD_Scan_Dir+0x61c>)
 8002602:	2280      	movs	r2, #128	; 0x80
 8002604:	615a      	str	r2, [r3, #20]
 8002606:	4b42      	ldr	r3, [pc, #264]	; (8002710 <LCD_Scan_Dir+0x61c>)
 8002608:	2280      	movs	r2, #128	; 0x80
 800260a:	611a      	str	r2, [r3, #16]
 800260c:	4b40      	ldr	r3, [pc, #256]	; (8002710 <LCD_Scan_Dir+0x61c>)
 800260e:	f44f 7200 	mov.w	r2, #512	; 0x200
 8002612:	611a      	str	r2, [r3, #16]
 8002614:	4b3e      	ldr	r3, [pc, #248]	; (8002710 <LCD_Scan_Dir+0x61c>)
 8002616:	f44f 7280 	mov.w	r2, #256	; 0x100
 800261a:	611a      	str	r2, [r3, #16]
 800261c:	4b3c      	ldr	r3, [pc, #240]	; (8002710 <LCD_Scan_Dir+0x61c>)
 800261e:	f44f 7200 	mov.w	r2, #512	; 0x200
 8002622:	615a      	str	r2, [r3, #20]
 8002624:	4b39      	ldr	r3, [pc, #228]	; (800270c <LCD_Scan_Dir+0x618>)
 8002626:	885b      	ldrh	r3, [r3, #2]
 8002628:	3b01      	subs	r3, #1
 800262a:	121a      	asrs	r2, r3, #8
 800262c:	4b39      	ldr	r3, [pc, #228]	; (8002714 <LCD_Scan_Dir+0x620>)
 800262e:	60da      	str	r2, [r3, #12]
 8002630:	4b37      	ldr	r3, [pc, #220]	; (8002710 <LCD_Scan_Dir+0x61c>)
 8002632:	2280      	movs	r2, #128	; 0x80
 8002634:	615a      	str	r2, [r3, #20]
 8002636:	4b36      	ldr	r3, [pc, #216]	; (8002710 <LCD_Scan_Dir+0x61c>)
 8002638:	2280      	movs	r2, #128	; 0x80
 800263a:	611a      	str	r2, [r3, #16]
 800263c:	4b34      	ldr	r3, [pc, #208]	; (8002710 <LCD_Scan_Dir+0x61c>)
 800263e:	f44f 7200 	mov.w	r2, #512	; 0x200
 8002642:	611a      	str	r2, [r3, #16]
 8002644:	4b32      	ldr	r3, [pc, #200]	; (8002710 <LCD_Scan_Dir+0x61c>)
 8002646:	f44f 7280 	mov.w	r2, #256	; 0x100
 800264a:	611a      	str	r2, [r3, #16]
 800264c:	4b30      	ldr	r3, [pc, #192]	; (8002710 <LCD_Scan_Dir+0x61c>)
 800264e:	f44f 7200 	mov.w	r2, #512	; 0x200
 8002652:	615a      	str	r2, [r3, #20]
 8002654:	4b2d      	ldr	r3, [pc, #180]	; (800270c <LCD_Scan_Dir+0x618>)
 8002656:	885b      	ldrh	r3, [r3, #2]
 8002658:	3b01      	subs	r3, #1
 800265a:	4a2e      	ldr	r2, [pc, #184]	; (8002714 <LCD_Scan_Dir+0x620>)
 800265c:	b2db      	uxtb	r3, r3
 800265e:	60d3      	str	r3, [r2, #12]
 8002660:	4b2b      	ldr	r3, [pc, #172]	; (8002710 <LCD_Scan_Dir+0x61c>)
 8002662:	2280      	movs	r2, #128	; 0x80
 8002664:	615a      	str	r2, [r3, #20]
 8002666:	4b2a      	ldr	r3, [pc, #168]	; (8002710 <LCD_Scan_Dir+0x61c>)
 8002668:	2280      	movs	r2, #128	; 0x80
 800266a:	611a      	str	r2, [r3, #16]
 800266c:	4b28      	ldr	r3, [pc, #160]	; (8002710 <LCD_Scan_Dir+0x61c>)
 800266e:	f44f 7200 	mov.w	r2, #512	; 0x200
 8002672:	611a      	str	r2, [r3, #16]
 8002674:	e045      	b.n	8002702 <LCD_Scan_Dir+0x60e>
 8002676:	79fb      	ldrb	r3, [r7, #7]
 8002678:	2b07      	cmp	r3, #7
 800267a:	d836      	bhi.n	80026ea <LCD_Scan_Dir+0x5f6>
 800267c:	a201      	add	r2, pc, #4	; (adr r2, 8002684 <LCD_Scan_Dir+0x590>)
 800267e:	f852 f023 	ldr.w	pc, [r2, r3, lsl #2]
 8002682:	bf00      	nop
 8002684:	080026a5 	.word	0x080026a5
 8002688:	080026af 	.word	0x080026af
 800268c:	080026b9 	.word	0x080026b9
 8002690:	080026eb 	.word	0x080026eb
 8002694:	080026c3 	.word	0x080026c3
 8002698:	080026cd 	.word	0x080026cd
 800269c:	080026d7 	.word	0x080026d7
 80026a0:	080026e1 	.word	0x080026e1
 80026a4:	89fb      	ldrh	r3, [r7, #14]
 80026a6:	f043 0330 	orr.w	r3, r3, #48	; 0x30
 80026aa:	81fb      	strh	r3, [r7, #14]
 80026ac:	e01d      	b.n	80026ea <LCD_Scan_Dir+0x5f6>
 80026ae:	89fb      	ldrh	r3, [r7, #14]
 80026b0:	f043 0310 	orr.w	r3, r3, #16
 80026b4:	81fb      	strh	r3, [r7, #14]
 80026b6:	e018      	b.n	80026ea <LCD_Scan_Dir+0x5f6>
 80026b8:	89fb      	ldrh	r3, [r7, #14]
 80026ba:	f043 0320 	orr.w	r3, r3, #32
 80026be:	81fb      	strh	r3, [r7, #14]
 80026c0:	e013      	b.n	80026ea <LCD_Scan_Dir+0x5f6>
 80026c2:	89fb      	ldrh	r3, [r7, #14]
 80026c4:	f043 0338 	orr.w	r3, r3, #56	; 0x38
 80026c8:	81fb      	strh	r3, [r7, #14]
 80026ca:	e00e      	b.n	80026ea <LCD_Scan_Dir+0x5f6>
 80026cc:	89fb      	ldrh	r3, [r7, #14]
 80026ce:	f043 0328 	orr.w	r3, r3, #40	; 0x28
 80026d2:	81fb      	strh	r3, [r7, #14]
 80026d4:	e009      	b.n	80026ea <LCD_Scan_Dir+0x5f6>
 80026d6:	89fb      	ldrh	r3, [r7, #14]
 80026d8:	f043 0318 	orr.w	r3, r3, #24
 80026dc:	81fb      	strh	r3, [r7, #14]
 80026de:	e004      	b.n	80026ea <LCD_Scan_Dir+0x5f6>
 80026e0:	89fb      	ldrh	r3, [r7, #14]
 80026e2:	f043 0308 	orr.w	r3, r3, #8
 80026e6:	81fb      	strh	r3, [r7, #14]
 80026e8:	bf00      	nop
 80026ea:	2303      	movs	r3, #3
 80026ec:	81bb      	strh	r3, [r7, #12]
 80026ee:	89fb      	ldrh	r3, [r7, #14]
 80026f0:	f443 5380 	orr.w	r3, r3, #4096	; 0x1000
 80026f4:	81fb      	strh	r3, [r7, #14]
 80026f6:	89fa      	ldrh	r2, [r7, #14]
 80026f8:	89bb      	ldrh	r3, [r7, #12]
 80026fa:	4611      	mov	r1, r2
 80026fc:	4618      	mov	r0, r3
 80026fe:	f7ff f9e7 	bl	8001ad0 <LCD_WriteReg>
 8002702:	bf00      	nop
 8002704:	3710      	adds	r7, #16
 8002706:	46bd      	mov	sp, r7
 8002708:	bd80      	pop	{r7, pc}
 800270a:	bf00      	nop
 800270c:	20000030 	.word	0x20000030
 8002710:	40011000 	.word	0x40011000
 8002714:	40010c00 	.word	0x40010c00

08002718 <LCD_DrawPoint>:
 8002718:	b580      	push	{r7, lr}
 800271a:	b082      	sub	sp, #8
 800271c:	af00      	add	r7, sp, #0
 800271e:	4603      	mov	r3, r0
 8002720:	460a      	mov	r2, r1
 8002722:	80fb      	strh	r3, [r7, #6]
 8002724:	4613      	mov	r3, r2
 8002726:	80bb      	strh	r3, [r7, #4]
 8002728:	88ba      	ldrh	r2, [r7, #4]
 800272a:	88fb      	ldrh	r3, [r7, #6]
 800272c:	4611      	mov	r1, r2
 800272e:	4618      	mov	r0, r3
 8002730:	f7ff fa14 	bl	8001b5c <LCD_SetCursor>
 8002734:	f7ff fa06 	bl	8001b44 <LCD_WriteRAM_Prepare>
 8002738:	4b0c      	ldr	r3, [pc, #48]	; (800276c <LCD_DrawPoint+0x54>)
 800273a:	f44f 7280 	mov.w	r2, #256	; 0x100
 800273e:	611a      	str	r2, [r3, #16]
 8002740:	4b0a      	ldr	r3, [pc, #40]	; (800276c <LCD_DrawPoint+0x54>)
 8002742:	f44f 7200 	mov.w	r2, #512	; 0x200
 8002746:	615a      	str	r2, [r3, #20]
 8002748:	4b09      	ldr	r3, [pc, #36]	; (8002770 <LCD_DrawPoint+0x58>)
 800274a:	881a      	ldrh	r2, [r3, #0]
 800274c:	4b09      	ldr	r3, [pc, #36]	; (8002774 <LCD_DrawPoint+0x5c>)
 800274e:	60da      	str	r2, [r3, #12]
 8002750:	4b06      	ldr	r3, [pc, #24]	; (800276c <LCD_DrawPoint+0x54>)
 8002752:	2280      	movs	r2, #128	; 0x80
 8002754:	615a      	str	r2, [r3, #20]
 8002756:	4b05      	ldr	r3, [pc, #20]	; (800276c <LCD_DrawPoint+0x54>)
 8002758:	2280      	movs	r2, #128	; 0x80
 800275a:	611a      	str	r2, [r3, #16]
 800275c:	4b03      	ldr	r3, [pc, #12]	; (800276c <LCD_DrawPoint+0x54>)
 800275e:	f44f 7200 	mov.w	r2, #512	; 0x200
 8002762:	611a      	str	r2, [r3, #16]
 8002764:	bf00      	nop
 8002766:	3708      	adds	r7, #8
 8002768:	46bd      	mov	sp, r7
 800276a:	bd80      	pop	{r7, pc}
 800276c:	40011000 	.word	0x40011000
 8002770:	20000028 	.word	0x20000028
 8002774:	40010c00 	.word	0x40010c00

08002778 <LCD_Fast_DrawPoint>:
 8002778:	b580      	push	{r7, lr}
 800277a:	b082      	sub	sp, #8
 800277c:	af00      	add	r7, sp, #0
 800277e:	4603      	mov	r3, r0
 8002780:	80fb      	strh	r3, [r7, #6]
 8002782:	460b      	mov	r3, r1
 8002784:	80bb      	strh	r3, [r7, #4]
 8002786:	4613      	mov	r3, r2
 8002788:	807b      	strh	r3, [r7, #2]
 800278a:	4b75      	ldr	r3, [pc, #468]	; (8002960 <LCD_Fast_DrawPoint+0x1e8>)
 800278c:	889b      	ldrh	r3, [r3, #4]
 800278e:	f249 3241 	movw	r2, #37697	; 0x9341
 8002792:	4293      	cmp	r3, r2
 8002794:	d005      	beq.n	80027a2 <LCD_Fast_DrawPoint+0x2a>
 8002796:	4b72      	ldr	r3, [pc, #456]	; (8002960 <LCD_Fast_DrawPoint+0x1e8>)
 8002798:	889b      	ldrh	r3, [r3, #4]
 800279a:	f245 3210 	movw	r2, #21264	; 0x5310
 800279e:	4293      	cmp	r3, r2
 80027a0:	d164      	bne.n	800286c <LCD_Fast_DrawPoint+0xf4>
 80027a2:	4b6f      	ldr	r3, [pc, #444]	; (8002960 <LCD_Fast_DrawPoint+0x1e8>)
 80027a4:	895b      	ldrh	r3, [r3, #10]
 80027a6:	4618      	mov	r0, r3
 80027a8:	f7ff f906 	bl	80019b8 <LCD_WR_REG>
 80027ac:	4b6d      	ldr	r3, [pc, #436]	; (8002964 <LCD_Fast_DrawPoint+0x1ec>)
 80027ae:	f44f 7280 	mov.w	r2, #256	; 0x100
 80027b2:	611a      	str	r2, [r3, #16]
 80027b4:	4b6b      	ldr	r3, [pc, #428]	; (8002964 <LCD_Fast_DrawPoint+0x1ec>)
 80027b6:	f44f 7200 	mov.w	r2, #512	; 0x200
 80027ba:	615a      	str	r2, [r3, #20]
 80027bc:	88fb      	ldrh	r3, [r7, #6]
 80027be:	0a1b      	lsrs	r3, r3, #8
 80027c0:	b29a      	uxth	r2, r3
 80027c2:	4b69      	ldr	r3, [pc, #420]	; (8002968 <LCD_Fast_DrawPoint+0x1f0>)
 80027c4:	60da      	str	r2, [r3, #12]
 80027c6:	4b67      	ldr	r3, [pc, #412]	; (8002964 <LCD_Fast_DrawPoint+0x1ec>)
 80027c8:	2280      	movs	r2, #128	; 0x80
 80027ca:	615a      	str	r2, [r3, #20]
 80027cc:	4b65      	ldr	r3, [pc, #404]	; (8002964 <LCD_Fast_DrawPoint+0x1ec>)
 80027ce:	2280      	movs	r2, #128	; 0x80
 80027d0:	611a      	str	r2, [r3, #16]
 80027d2:	4b64      	ldr	r3, [pc, #400]	; (8002964 <LCD_Fast_DrawPoint+0x1ec>)
 80027d4:	f44f 7200 	mov.w	r2, #512	; 0x200
 80027d8:	611a      	str	r2, [r3, #16]
 80027da:	4b62      	ldr	r3, [pc, #392]	; (8002964 <LCD_Fast_DrawPoint+0x1ec>)
 80027dc:	f44f 7280 	mov.w	r2, #256	; 0x100
 80027e0:	611a      	str	r2, [r3, #16]
 80027e2:	4b60      	ldr	r3, [pc, #384]	; (8002964 <LCD_Fast_DrawPoint+0x1ec>)
 80027e4:	f44f 7200 	mov.w	r2, #512	; 0x200
 80027e8:	615a      	str	r2, [r3, #20]
 80027ea:	88fb      	ldrh	r3, [r7, #6]
 80027ec:	4a5e      	ldr	r2, [pc, #376]	; (8002968 <LCD_Fast_DrawPoint+0x1f0>)
 80027ee:	b2db      	uxtb	r3, r3
 80027f0:	60d3      	str	r3, [r2, #12]
 80027f2:	4b5c      	ldr	r3, [pc, #368]	; (8002964 <LCD_Fast_DrawPoint+0x1ec>)
 80027f4:	2280      	movs	r2, #128	; 0x80
 80027f6:	615a      	str	r2, [r3, #20]
 80027f8:	4b5a      	ldr	r3, [pc, #360]	; (8002964 <LCD_Fast_DrawPoint+0x1ec>)
 80027fa:	2280      	movs	r2, #128	; 0x80
 80027fc:	611a      	str	r2, [r3, #16]
 80027fe:	4b59      	ldr	r3, [pc, #356]	; (8002964 <LCD_Fast_DrawPoint+0x1ec>)
 8002800:	f44f 7200 	mov.w	r2, #512	; 0x200
 8002804:	611a      	str	r2, [r3, #16]
 8002806:	4b56      	ldr	r3, [pc, #344]	; (8002960 <LCD_Fast_DrawPoint+0x1e8>)
 8002808:	899b      	ldrh	r3, [r3, #12]
 800280a:	4618      	mov	r0, r3
 800280c:	f7ff f8d4 	bl	80019b8 <LCD_WR_REG>
 8002810:	4b54      	ldr	r3, [pc, #336]	; (8002964 <LCD_Fast_DrawPoint+0x1ec>)
 8002812:	f44f 7280 	mov.w	r2, #256	; 0x100
 8002816:	611a      	str	r2, [r3, #16]
 8002818:	4b52      	ldr	r3, [pc, #328]	; (8002964 <LCD_Fast_DrawPoint+0x1ec>)
 800281a:	f44f 7200 	mov.w	r2, #512	; 0x200
 800281e:	615a      	str	r2, [r3, #20]
 8002820:	88bb      	ldrh	r3, [r7, #4]
 8002822:	0a1b      	lsrs	r3, r3, #8
 8002824:	b29a      	uxth	r2, r3
 8002826:	4b50      	ldr	r3, [pc, #320]	; (8002968 <LCD_Fast_DrawPoint+0x1f0>)
 8002828:	60da      	str	r2, [r3, #12]
 800282a:	4b4e      	ldr	r3, [pc, #312]	; (8002964 <LCD_Fast_DrawPoint+0x1ec>)
 800282c:	2280      	movs	r2, #128	; 0x80
 800282e:	615a      	str	r2, [r3, #20]
 8002830:	4b4c      	ldr	r3, [pc, #304]	; (8002964 <LCD_Fast_DrawPoint+0x1ec>)
 8002832:	2280      	movs	r2, #128	; 0x80
 8002834:	611a      	str	r2, [r3, #16]
 8002836:	4b4b      	ldr	r3, [pc, #300]	; (8002964 <LCD_Fast_DrawPoint+0x1ec>)
 8002838:	f44f 7200 	mov.w	r2, #512	; 0x200
 800283c:	611a      	str	r2, [r3, #16]
 800283e:	4b49      	ldr	r3, [pc, #292]	; (8002964 <LCD_Fast_DrawPoint+0x1ec>)
 8002840:	f44f 7280 	mov.w	r2, #256	; 0x100
 8002844:	611a      	str	r2, [r3, #16]
 8002846:	4b47      	ldr	r3, [pc, #284]	; (8002964 <LCD_Fast_DrawPoint+0x1ec>)
 8002848:	f44f 7200 	mov.w	r2, #512	; 0x200
 800284c:	615a      	str	r2, [r3, #20]
 800284e:	88bb      	ldrh	r3, [r7, #4]
 8002850:	4a45      	ldr	r2, [pc, #276]	; (8002968 <LCD_Fast_DrawPoint+0x1f0>)
 8002852:	b2db      	uxtb	r3, r3
 8002854:	60d3      	str	r3, [r2, #12]
 8002856:	4b43      	ldr	r3, [pc, #268]	; (8002964 <LCD_Fast_DrawPoint+0x1ec>)
 8002858:	2280      	movs	r2, #128	; 0x80
 800285a:	615a      	str	r2, [r3, #20]
 800285c:	4b41      	ldr	r3, [pc, #260]	; (8002964 <LCD_Fast_DrawPoint+0x1ec>)
 800285e:	2280      	movs	r2, #128	; 0x80
 8002860:	611a      	str	r2, [r3, #16]
 8002862:	4b40      	ldr	r3, [pc, #256]	; (8002964 <LCD_Fast_DrawPoint+0x1ec>)
 8002864:	f44f 7200 	mov.w	r2, #512	; 0x200
 8002868:	611a      	str	r2, [r3, #16]
 800286a:	e1e6      	b.n	8002c3a <LCD_Fast_DrawPoint+0x4c2>
 800286c:	4b3c      	ldr	r3, [pc, #240]	; (8002960 <LCD_Fast_DrawPoint+0x1e8>)
 800286e:	889b      	ldrh	r3, [r3, #4]
 8002870:	f245 5210 	movw	r2, #21776	; 0x5510
 8002874:	4293      	cmp	r3, r2
 8002876:	d179      	bne.n	800296c <LCD_Fast_DrawPoint+0x1f4>
 8002878:	4b39      	ldr	r3, [pc, #228]	; (8002960 <LCD_Fast_DrawPoint+0x1e8>)
 800287a:	895b      	ldrh	r3, [r3, #10]
 800287c:	4618      	mov	r0, r3
 800287e:	f7ff f89b 	bl	80019b8 <LCD_WR_REG>
 8002882:	4b38      	ldr	r3, [pc, #224]	; (8002964 <LCD_Fast_DrawPoint+0x1ec>)
 8002884:	f44f 7280 	mov.w	r2, #256	; 0x100
 8002888:	611a      	str	r2, [r3, #16]
 800288a:	4b36      	ldr	r3, [pc, #216]	; (8002964 <LCD_Fast_DrawPoint+0x1ec>)
 800288c:	f44f 7200 	mov.w	r2, #512	; 0x200
 8002890:	615a      	str	r2, [r3, #20]
 8002892:	88fb      	ldrh	r3, [r7, #6]
 8002894:	0a1b      	lsrs	r3, r3, #8
 8002896:	b29a      	uxth	r2, r3
 8002898:	4b33      	ldr	r3, [pc, #204]	; (8002968 <LCD_Fast_DrawPoint+0x1f0>)
 800289a:	60da      	str	r2, [r3, #12]
 800289c:	4b31      	ldr	r3, [pc, #196]	; (8002964 <LCD_Fast_DrawPoint+0x1ec>)
 800289e:	2280      	movs	r2, #128	; 0x80
 80028a0:	615a      	str	r2, [r3, #20]
 80028a2:	4b30      	ldr	r3, [pc, #192]	; (8002964 <LCD_Fast_DrawPoint+0x1ec>)
 80028a4:	2280      	movs	r2, #128	; 0x80
 80028a6:	611a      	str	r2, [r3, #16]
 80028a8:	4b2e      	ldr	r3, [pc, #184]	; (8002964 <LCD_Fast_DrawPoint+0x1ec>)
 80028aa:	f44f 7200 	mov.w	r2, #512	; 0x200
 80028ae:	611a      	str	r2, [r3, #16]
 80028b0:	4b2b      	ldr	r3, [pc, #172]	; (8002960 <LCD_Fast_DrawPoint+0x1e8>)
 80028b2:	895b      	ldrh	r3, [r3, #10]
 80028b4:	3301      	adds	r3, #1
 80028b6:	b29b      	uxth	r3, r3
 80028b8:	4618      	mov	r0, r3
 80028ba:	f7ff f87d 	bl	80019b8 <LCD_WR_REG>
 80028be:	4b29      	ldr	r3, [pc, #164]	; (8002964 <LCD_Fast_DrawPoint+0x1ec>)
 80028c0:	f44f 7280 	mov.w	r2, #256	; 0x100
 80028c4:	611a      	str	r2, [r3, #16]
 80028c6:	4b27      	ldr	r3, [pc, #156]	; (8002964 <LCD_Fast_DrawPoint+0x1ec>)
 80028c8:	f44f 7200 	mov.w	r2, #512	; 0x200
 80028cc:	615a      	str	r2, [r3, #20]
 80028ce:	88fb      	ldrh	r3, [r7, #6]
 80028d0:	4a25      	ldr	r2, [pc, #148]	; (8002968 <LCD_Fast_DrawPoint+0x1f0>)
 80028d2:	b2db      	uxtb	r3, r3
 80028d4:	60d3      	str	r3, [r2, #12]
 80028d6:	4b23      	ldr	r3, [pc, #140]	; (8002964 <LCD_Fast_DrawPoint+0x1ec>)
 80028d8:	2280      	movs	r2, #128	; 0x80
 80028da:	615a      	str	r2, [r3, #20]
 80028dc:	4b21      	ldr	r3, [pc, #132]	; (8002964 <LCD_Fast_DrawPoint+0x1ec>)
 80028de:	2280      	movs	r2, #128	; 0x80
 80028e0:	611a      	str	r2, [r3, #16]
 80028e2:	4b20      	ldr	r3, [pc, #128]	; (8002964 <LCD_Fast_DrawPoint+0x1ec>)
 80028e4:	f44f 7200 	mov.w	r2, #512	; 0x200
 80028e8:	611a      	str	r2, [r3, #16]
 80028ea:	4b1d      	ldr	r3, [pc, #116]	; (8002960 <LCD_Fast_DrawPoint+0x1e8>)
 80028ec:	899b      	ldrh	r3, [r3, #12]
 80028ee:	4618      	mov	r0, r3
 80028f0:	f7ff f862 	bl	80019b8 <LCD_WR_REG>
 80028f4:	4b1b      	ldr	r3, [pc, #108]	; (8002964 <LCD_Fast_DrawPoint+0x1ec>)
 80028f6:	f44f 7280 	mov.w	r2, #256	; 0x100
 80028fa:	611a      	str	r2, [r3, #16]
 80028fc:	4b19      	ldr	r3, [pc, #100]	; (8002964 <LCD_Fast_DrawPoint+0x1ec>)
 80028fe:	f44f 7200 	mov.w	r2, #512	; 0x200
 8002902:	615a      	str	r2, [r3, #20]
 8002904:	88bb      	ldrh	r3, [r7, #4]
 8002906:	0a1b      	lsrs	r3, r3, #8
 8002908:	b29a      	uxth	r2, r3
 800290a:	4b17      	ldr	r3, [pc, #92]	; (8002968 <LCD_Fast_DrawPoint+0x1f0>)
 800290c:	60da      	str	r2, [r3, #12]
 800290e:	4b15      	ldr	r3, [pc, #84]	; (8002964 <LCD_Fast_DrawPoint+0x1ec>)
 8002910:	2280      	movs	r2, #128	; 0x80
 8002912:	615a      	str	r2, [r3, #20]
 8002914:	4b13      	ldr	r3, [pc, #76]	; (8002964 <LCD_Fast_DrawPoint+0x1ec>)
 8002916:	2280      	movs	r2, #128	; 0x80
 8002918:	611a      	str	r2, [r3, #16]
 800291a:	4b12      	ldr	r3, [pc, #72]	; (8002964 <LCD_Fast_DrawPoint+0x1ec>)
 800291c:	f44f 7200 	mov.w	r2, #512	; 0x200
 8002920:	611a      	str	r2, [r3, #16]
 8002922:	4b0f      	ldr	r3, [pc, #60]	; (8002960 <LCD_Fast_DrawPoint+0x1e8>)
 8002924:	899b      	ldrh	r3, [r3, #12]
 8002926:	3301      	adds	r3, #1
 8002928:	b29b      	uxth	r3, r3
 800292a:	4618      	mov	r0, r3
 800292c:	f7ff f844 	bl	80019b8 <LCD_WR_REG>
 8002930:	4b0c      	ldr	r3, [pc, #48]	; (8002964 <LCD_Fast_DrawPoint+0x1ec>)
 8002932:	f44f 7280 	mov.w	r2, #256	; 0x100
 8002936:	611a      	str	r2, [r3, #16]
 8002938:	4b0a      	ldr	r3, [pc, #40]	; (8002964 <LCD_Fast_DrawPoint+0x1ec>)
 800293a:	f44f 7200 	mov.w	r2, #512	; 0x200
 800293e:	615a      	str	r2, [r3, #20]
 8002940:	88bb      	ldrh	r3, [r7, #4]
 8002942:	4a09      	ldr	r2, [pc, #36]	; (8002968 <LCD_Fast_DrawPoint+0x1f0>)
 8002944:	b2db      	uxtb	r3, r3
 8002946:	60d3      	str	r3, [r2, #12]
 8002948:	4b06      	ldr	r3, [pc, #24]	; (8002964 <LCD_Fast_DrawPoint+0x1ec>)
 800294a:	2280      	movs	r2, #128	; 0x80
 800294c:	615a      	str	r2, [r3, #20]
 800294e:	4b05      	ldr	r3, [pc, #20]	; (8002964 <LCD_Fast_DrawPoint+0x1ec>)
 8002950:	2280      	movs	r2, #128	; 0x80
 8002952:	611a      	str	r2, [r3, #16]
 8002954:	4b03      	ldr	r3, [pc, #12]	; (8002964 <LCD_Fast_DrawPoint+0x1ec>)
 8002956:	f44f 7200 	mov.w	r2, #512	; 0x200
 800295a:	611a      	str	r2, [r3, #16]
 800295c:	e16d      	b.n	8002c3a <LCD_Fast_DrawPoint+0x4c2>
 800295e:	bf00      	nop
 8002960:	20000030 	.word	0x20000030
 8002964:	40011000 	.word	0x40011000
 8002968:	40010c00 	.word	0x40010c00
 800296c:	4b68      	ldr	r3, [pc, #416]	; (8002b10 <LCD_Fast_DrawPoint+0x398>)
 800296e:	889b      	ldrh	r3, [r3, #4]
 8002970:	f641 1263 	movw	r2, #6499	; 0x1963
 8002974:	4293      	cmp	r3, r2
 8002976:	f040 80d1 	bne.w	8002b1c <LCD_Fast_DrawPoint+0x3a4>
 800297a:	4b65      	ldr	r3, [pc, #404]	; (8002b10 <LCD_Fast_DrawPoint+0x398>)
 800297c:	799b      	ldrb	r3, [r3, #6]
 800297e:	2b00      	cmp	r3, #0
 8002980:	d106      	bne.n	8002990 <LCD_Fast_DrawPoint+0x218>
 8002982:	4b63      	ldr	r3, [pc, #396]	; (8002b10 <LCD_Fast_DrawPoint+0x398>)
 8002984:	881a      	ldrh	r2, [r3, #0]
 8002986:	88fb      	ldrh	r3, [r7, #6]
 8002988:	1ad3      	subs	r3, r2, r3
 800298a:	b29b      	uxth	r3, r3
 800298c:	3b01      	subs	r3, #1
 800298e:	80fb      	strh	r3, [r7, #6]
 8002990:	4b5f      	ldr	r3, [pc, #380]	; (8002b10 <LCD_Fast_DrawPoint+0x398>)
 8002992:	895b      	ldrh	r3, [r3, #10]
 8002994:	4618      	mov	r0, r3
 8002996:	f7ff f80f 	bl	80019b8 <LCD_WR_REG>
 800299a:	4b5e      	ldr	r3, [pc, #376]	; (8002b14 <LCD_Fast_DrawPoint+0x39c>)
 800299c:	f44f 7280 	mov.w	r2, #256	; 0x100
 80029a0:	611a      	str	r2, [r3, #16]
 80029a2:	4b5c      	ldr	r3, [pc, #368]	; (8002b14 <LCD_Fast_DrawPoint+0x39c>)
 80029a4:	f44f 7200 	mov.w	r2, #512	; 0x200
 80029a8:	615a      	str	r2, [r3, #20]
 80029aa:	88fb      	ldrh	r3, [r7, #6]
 80029ac:	0a1b      	lsrs	r3, r3, #8
 80029ae:	b29a      	uxth	r2, r3
 80029b0:	4b59      	ldr	r3, [pc, #356]	; (8002b18 <LCD_Fast_DrawPoint+0x3a0>)
 80029b2:	60da      	str	r2, [r3, #12]
 80029b4:	4b57      	ldr	r3, [pc, #348]	; (8002b14 <LCD_Fast_DrawPoint+0x39c>)
 80029b6:	2280      	movs	r2, #128	; 0x80
 80029b8:	615a      	str	r2, [r3, #20]
 80029ba:	4b56      	ldr	r3, [pc, #344]	; (8002b14 <LCD_Fast_DrawPoint+0x39c>)
 80029bc:	2280      	movs	r2, #128	; 0x80
 80029be:	611a      	str	r2, [r3, #16]
 80029c0:	4b54      	ldr	r3, [pc, #336]	; (8002b14 <LCD_Fast_DrawPoint+0x39c>)
 80029c2:	f44f 7200 	mov.w	r2, #512	; 0x200
 80029c6:	611a      	str	r2, [r3, #16]
 80029c8:	4b52      	ldr	r3, [pc, #328]	; (8002b14 <LCD_Fast_DrawPoint+0x39c>)
 80029ca:	f44f 7280 	mov.w	r2, #256	; 0x100
 80029ce:	611a      	str	r2, [r3, #16]
 80029d0:	4b50      	ldr	r3, [pc, #320]	; (8002b14 <LCD_Fast_DrawPoint+0x39c>)
 80029d2:	f44f 7200 	mov.w	r2, #512	; 0x200
 80029d6:	615a      	str	r2, [r3, #20]
 80029d8:	88fb      	ldrh	r3, [r7, #6]
 80029da:	4a4f      	ldr	r2, [pc, #316]	; (8002b18 <LCD_Fast_DrawPoint+0x3a0>)
 80029dc:	b2db      	uxtb	r3, r3
 80029de:	60d3      	str	r3, [r2, #12]
 80029e0:	4b4c      	ldr	r3, [pc, #304]	; (8002b14 <LCD_Fast_DrawPoint+0x39c>)
 80029e2:	2280      	movs	r2, #128	; 0x80
 80029e4:	615a      	str	r2, [r3, #20]
 80029e6:	4b4b      	ldr	r3, [pc, #300]	; (8002b14 <LCD_Fast_DrawPoint+0x39c>)
 80029e8:	2280      	movs	r2, #128	; 0x80
 80029ea:	611a      	str	r2, [r3, #16]
 80029ec:	4b49      	ldr	r3, [pc, #292]	; (8002b14 <LCD_Fast_DrawPoint+0x39c>)
 80029ee:	f44f 7200 	mov.w	r2, #512	; 0x200
 80029f2:	611a      	str	r2, [r3, #16]
 80029f4:	4b47      	ldr	r3, [pc, #284]	; (8002b14 <LCD_Fast_DrawPoint+0x39c>)
 80029f6:	f44f 7280 	mov.w	r2, #256	; 0x100
 80029fa:	611a      	str	r2, [r3, #16]
 80029fc:	4b45      	ldr	r3, [pc, #276]	; (8002b14 <LCD_Fast_DrawPoint+0x39c>)
 80029fe:	f44f 7200 	mov.w	r2, #512	; 0x200
 8002a02:	615a      	str	r2, [r3, #20]
 8002a04:	88fb      	ldrh	r3, [r7, #6]
 8002a06:	0a1b      	lsrs	r3, r3, #8
 8002a08:	b29a      	uxth	r2, r3
 8002a0a:	4b43      	ldr	r3, [pc, #268]	; (8002b18 <LCD_Fast_DrawPoint+0x3a0>)
 8002a0c:	60da      	str	r2, [r3, #12]
 8002a0e:	4b41      	ldr	r3, [pc, #260]	; (8002b14 <LCD_Fast_DrawPoint+0x39c>)
 8002a10:	2280      	movs	r2, #128	; 0x80
 8002a12:	615a      	str	r2, [r3, #20]
 8002a14:	4b3f      	ldr	r3, [pc, #252]	; (8002b14 <LCD_Fast_DrawPoint+0x39c>)
 8002a16:	2280      	movs	r2, #128	; 0x80
 8002a18:	611a      	str	r2, [r3, #16]
 8002a1a:	4b3e      	ldr	r3, [pc, #248]	; (8002b14 <LCD_Fast_DrawPoint+0x39c>)
 8002a1c:	f44f 7200 	mov.w	r2, #512	; 0x200
 8002a20:	611a      	str	r2, [r3, #16]
 8002a22:	4b3c      	ldr	r3, [pc, #240]	; (8002b14 <LCD_Fast_DrawPoint+0x39c>)
 8002a24:	f44f 7280 	mov.w	r2, #256	; 0x100
 8002a28:	611a      	str	r2, [r3, #16]
 8002a2a:	4b3a      	ldr	r3, [pc, #232]	; (8002b14 <LCD_Fast_DrawPoint+0x39c>)
 8002a2c:	f44f 7200 	mov.w	r2, #512	; 0x200
 8002a30:	615a      	str	r2, [r3, #20]
 8002a32:	88fb      	ldrh	r3, [r7, #6]
 8002a34:	4a38      	ldr	r2, [pc, #224]	; (8002b18 <LCD_Fast_DrawPoint+0x3a0>)
 8002a36:	b2db      	uxtb	r3, r3
 8002a38:	60d3      	str	r3, [r2, #12]
 8002a3a:	4b36      	ldr	r3, [pc, #216]	; (8002b14 <LCD_Fast_DrawPoint+0x39c>)
 8002a3c:	2280      	movs	r2, #128	; 0x80
 8002a3e:	615a      	str	r2, [r3, #20]
 8002a40:	4b34      	ldr	r3, [pc, #208]	; (8002b14 <LCD_Fast_DrawPoint+0x39c>)
 8002a42:	2280      	movs	r2, #128	; 0x80
 8002a44:	611a      	str	r2, [r3, #16]
 8002a46:	4b33      	ldr	r3, [pc, #204]	; (8002b14 <LCD_Fast_DrawPoint+0x39c>)
 8002a48:	f44f 7200 	mov.w	r2, #512	; 0x200
 8002a4c:	611a      	str	r2, [r3, #16]
 8002a4e:	4b30      	ldr	r3, [pc, #192]	; (8002b10 <LCD_Fast_DrawPoint+0x398>)
 8002a50:	899b      	ldrh	r3, [r3, #12]
 8002a52:	4618      	mov	r0, r3
 8002a54:	f7fe ffb0 	bl	80019b8 <LCD_WR_REG>
 8002a58:	4b2e      	ldr	r3, [pc, #184]	; (8002b14 <LCD_Fast_DrawPoint+0x39c>)
 8002a5a:	f44f 7280 	mov.w	r2, #256	; 0x100
 8002a5e:	611a      	str	r2, [r3, #16]
 8002a60:	4b2c      	ldr	r3, [pc, #176]	; (8002b14 <LCD_Fast_DrawPoint+0x39c>)
 8002a62:	f44f 7200 	mov.w	r2, #512	; 0x200
 8002a66:	615a      	str	r2, [r3, #20]
 8002a68:	88bb      	ldrh	r3, [r7, #4]
 8002a6a:	0a1b      	lsrs	r3, r3, #8
 8002a6c:	b29a      	uxth	r2, r3
 8002a6e:	4b2a      	ldr	r3, [pc, #168]	; (8002b18 <LCD_Fast_DrawPoint+0x3a0>)
 8002a70:	60da      	str	r2, [r3, #12]
 8002a72:	4b28      	ldr	r3, [pc, #160]	; (8002b14 <LCD_Fast_DrawPoint+0x39c>)
 8002a74:	2280      	movs	r2, #128	; 0x80
 8002a76:	615a      	str	r2, [r3, #20]
 8002a78:	4b26      	ldr	r3, [pc, #152]	; (8002b14 <LCD_Fast_DrawPoint+0x39c>)
 8002a7a:	2280      	movs	r2, #128	; 0x80
 8002a7c:	611a      	str	r2, [r3, #16]
 8002a7e:	4b25      	ldr	r3, [pc, #148]	; (8002b14 <LCD_Fast_DrawPoint+0x39c>)
 8002a80:	f44f 7200 	mov.w	r2, #512	; 0x200
 8002a84:	611a      	str	r2, [r3, #16]
 8002a86:	4b23      	ldr	r3, [pc, #140]	; (8002b14 <LCD_Fast_DrawPoint+0x39c>)
 8002a88:	f44f 7280 	mov.w	r2, #256	; 0x100
 8002a8c:	611a      	str	r2, [r3, #16]
 8002a8e:	4b21      	ldr	r3, [pc, #132]	; (8002b14 <LCD_Fast_DrawPoint+0x39c>)
 8002a90:	f44f 7200 	mov.w	r2, #512	; 0x200
 8002a94:	615a      	str	r2, [r3, #20]
 8002a96:	88bb      	ldrh	r3, [r7, #4]
 8002a98:	4a1f      	ldr	r2, [pc, #124]	; (8002b18 <LCD_Fast_DrawPoint+0x3a0>)
 8002a9a:	b2db      	uxtb	r3, r3
 8002a9c:	60d3      	str	r3, [r2, #12]
 8002a9e:	4b1d      	ldr	r3, [pc, #116]	; (8002b14 <LCD_Fast_DrawPoint+0x39c>)
 8002aa0:	2280      	movs	r2, #128	; 0x80
 8002aa2:	615a      	str	r2, [r3, #20]
 8002aa4:	4b1b      	ldr	r3, [pc, #108]	; (8002b14 <LCD_Fast_DrawPoint+0x39c>)
 8002aa6:	2280      	movs	r2, #128	; 0x80
 8002aa8:	611a      	str	r2, [r3, #16]
 8002aaa:	4b1a      	ldr	r3, [pc, #104]	; (8002b14 <LCD_Fast_DrawPoint+0x39c>)
 8002aac:	f44f 7200 	mov.w	r2, #512	; 0x200
 8002ab0:	611a      	str	r2, [r3, #16]
 8002ab2:	4b18      	ldr	r3, [pc, #96]	; (8002b14 <LCD_Fast_DrawPoint+0x39c>)
 8002ab4:	f44f 7280 	mov.w	r2, #256	; 0x100
 8002ab8:	611a      	str	r2, [r3, #16]
 8002aba:	4b16      	ldr	r3, [pc, #88]	; (8002b14 <LCD_Fast_DrawPoint+0x39c>)
 8002abc:	f44f 7200 	mov.w	r2, #512	; 0x200
 8002ac0:	615a      	str	r2, [r3, #20]
 8002ac2:	88bb      	ldrh	r3, [r7, #4]
 8002ac4:	0a1b      	lsrs	r3, r3, #8
 8002ac6:	b29a      	uxth	r2, r3
 8002ac8:	4b13      	ldr	r3, [pc, #76]	; (8002b18 <LCD_Fast_DrawPoint+0x3a0>)
 8002aca:	60da      	str	r2, [r3, #12]
 8002acc:	4b11      	ldr	r3, [pc, #68]	; (8002b14 <LCD_Fast_DrawPoint+0x39c>)
 8002ace:	2280      	movs	r2, #128	; 0x80
 8002ad0:	615a      	str	r2, [r3, #20]
 8002ad2:	4b10      	ldr	r3, [pc, #64]	; (8002b14 <LCD_Fast_DrawPoint+0x39c>)
 8002ad4:	2280      	movs	r2, #128	; 0x80
 8002ad6:	611a      	str	r2, [r3, #16]
 8002ad8:	4b0e      	ldr	r3, [pc, #56]	; (8002b14 <LCD_Fast_DrawPoint+0x39c>)
 8002ada:	f44f 7200 	mov.w	r2, #512	; 0x200
 8002ade:	611a      	str	r2, [r3, #16]
 8002ae0:	4b0c      	ldr	r3, [pc, #48]	; (8002b14 <LCD_Fast_DrawPoint+0x39c>)
 8002ae2:	f44f 7280 	mov.w	r2, #256	; 0x100
 8002ae6:	611a      	str	r2, [r3, #16]
 8002ae8:	4b0a      	ldr	r3, [pc, #40]	; (8002b14 <LCD_Fast_DrawPoint+0x39c>)
 8002aea:	f44f 7200 	mov.w	r2, #512	; 0x200
 8002aee:	615a      	str	r2, [r3, #20]
 8002af0:	88bb      	ldrh	r3, [r7, #4]
 8002af2:	4a09      	ldr	r2, [pc, #36]	; (8002b18 <LCD_Fast_DrawPoint+0x3a0>)
 8002af4:	b2db      	uxtb	r3, r3
 8002af6:	60d3      	str	r3, [r2, #12]
 8002af8:	4b06      	ldr	r3, [pc, #24]	; (8002b14 <LCD_Fast_DrawPoint+0x39c>)
 8002afa:	2280      	movs	r2, #128	; 0x80
 8002afc:	615a      	str	r2, [r3, #20]
 8002afe:	4b05      	ldr	r3, [pc, #20]	; (8002b14 <LCD_Fast_DrawPoint+0x39c>)
 8002b00:	2280      	movs	r2, #128	; 0x80
 8002b02:	611a      	str	r2, [r3, #16]
 8002b04:	4b03      	ldr	r3, [pc, #12]	; (8002b14 <LCD_Fast_DrawPoint+0x39c>)
 8002b06:	f44f 7200 	mov.w	r2, #512	; 0x200
 8002b0a:	611a      	str	r2, [r3, #16]
 8002b0c:	e095      	b.n	8002c3a <LCD_Fast_DrawPoint+0x4c2>
 8002b0e:	bf00      	nop
 8002b10:	20000030 	.word	0x20000030
 8002b14:	40011000 	.word	0x40011000
 8002b18:	40010c00 	.word	0x40010c00
 8002b1c:	4b5e      	ldr	r3, [pc, #376]	; (8002c98 <LCD_Fast_DrawPoint+0x520>)
 8002b1e:	889b      	ldrh	r3, [r3, #4]
 8002b20:	f646 0204 	movw	r2, #26628	; 0x6804
 8002b24:	4293      	cmp	r3, r2
 8002b26:	d16f      	bne.n	8002c08 <LCD_Fast_DrawPoint+0x490>
 8002b28:	4b5b      	ldr	r3, [pc, #364]	; (8002c98 <LCD_Fast_DrawPoint+0x520>)
 8002b2a:	799b      	ldrb	r3, [r3, #6]
 8002b2c:	2b01      	cmp	r3, #1
 8002b2e:	d106      	bne.n	8002b3e <LCD_Fast_DrawPoint+0x3c6>
 8002b30:	4b59      	ldr	r3, [pc, #356]	; (8002c98 <LCD_Fast_DrawPoint+0x520>)
 8002b32:	881a      	ldrh	r2, [r3, #0]
 8002b34:	88fb      	ldrh	r3, [r7, #6]
 8002b36:	1ad3      	subs	r3, r2, r3
 8002b38:	b29b      	uxth	r3, r3
 8002b3a:	3b01      	subs	r3, #1
 8002b3c:	80fb      	strh	r3, [r7, #6]
 8002b3e:	4b56      	ldr	r3, [pc, #344]	; (8002c98 <LCD_Fast_DrawPoint+0x520>)
 8002b40:	895b      	ldrh	r3, [r3, #10]
 8002b42:	4618      	mov	r0, r3
 8002b44:	f7fe ff38 	bl	80019b8 <LCD_WR_REG>
 8002b48:	4b54      	ldr	r3, [pc, #336]	; (8002c9c <LCD_Fast_DrawPoint+0x524>)
 8002b4a:	f44f 7280 	mov.w	r2, #256	; 0x100
 8002b4e:	611a      	str	r2, [r3, #16]
 8002b50:	4b52      	ldr	r3, [pc, #328]	; (8002c9c <LCD_Fast_DrawPoint+0x524>)
 8002b52:	f44f 7200 	mov.w	r2, #512	; 0x200
 8002b56:	615a      	str	r2, [r3, #20]
 8002b58:	88fb      	ldrh	r3, [r7, #6]
 8002b5a:	0a1b      	lsrs	r3, r3, #8
 8002b5c:	b29a      	uxth	r2, r3
 8002b5e:	4b50      	ldr	r3, [pc, #320]	; (8002ca0 <LCD_Fast_DrawPoint+0x528>)
 8002b60:	60da      	str	r2, [r3, #12]
 8002b62:	4b4e      	ldr	r3, [pc, #312]	; (8002c9c <LCD_Fast_DrawPoint+0x524>)
 8002b64:	2280      	movs	r2, #128	; 0x80
 8002b66:	615a      	str	r2, [r3, #20]
 8002b68:	4b4c      	ldr	r3, [pc, #304]	; (8002c9c <LCD_Fast_DrawPoint+0x524>)
 8002b6a:	2280      	movs	r2, #128	; 0x80
 8002b6c:	611a      	str	r2, [r3, #16]
 8002b6e:	4b4b      	ldr	r3, [pc, #300]	; (8002c9c <LCD_Fast_DrawPoint+0x524>)
 8002b70:	f44f 7200 	mov.w	r2, #512	; 0x200
 8002b74:	611a      	str	r2, [r3, #16]
 8002b76:	4b49      	ldr	r3, [pc, #292]	; (8002c9c <LCD_Fast_DrawPoint+0x524>)
 8002b78:	f44f 7280 	mov.w	r2, #256	; 0x100
 8002b7c:	611a      	str	r2, [r3, #16]
 8002b7e:	4b47      	ldr	r3, [pc, #284]	; (8002c9c <LCD_Fast_DrawPoint+0x524>)
 8002b80:	f44f 7200 	mov.w	r2, #512	; 0x200
 8002b84:	615a      	str	r2, [r3, #20]
 8002b86:	88fb      	ldrh	r3, [r7, #6]
 8002b88:	4a45      	ldr	r2, [pc, #276]	; (8002ca0 <LCD_Fast_DrawPoint+0x528>)
 8002b8a:	b2db      	uxtb	r3, r3
 8002b8c:	60d3      	str	r3, [r2, #12]
 8002b8e:	4b43      	ldr	r3, [pc, #268]	; (8002c9c <LCD_Fast_DrawPoint+0x524>)
 8002b90:	2280      	movs	r2, #128	; 0x80
 8002b92:	615a      	str	r2, [r3, #20]
 8002b94:	4b41      	ldr	r3, [pc, #260]	; (8002c9c <LCD_Fast_DrawPoint+0x524>)
 8002b96:	2280      	movs	r2, #128	; 0x80
 8002b98:	611a      	str	r2, [r3, #16]
 8002b9a:	4b40      	ldr	r3, [pc, #256]	; (8002c9c <LCD_Fast_DrawPoint+0x524>)
 8002b9c:	f44f 7200 	mov.w	r2, #512	; 0x200
 8002ba0:	611a      	str	r2, [r3, #16]
 8002ba2:	4b3d      	ldr	r3, [pc, #244]	; (8002c98 <LCD_Fast_DrawPoint+0x520>)
 8002ba4:	899b      	ldrh	r3, [r3, #12]
 8002ba6:	4618      	mov	r0, r3
 8002ba8:	f7fe ff06 	bl	80019b8 <LCD_WR_REG>
 8002bac:	4b3b      	ldr	r3, [pc, #236]	; (8002c9c <LCD_Fast_DrawPoint+0x524>)
 8002bae:	f44f 7280 	mov.w	r2, #256	; 0x100
 8002bb2:	611a      	str	r2, [r3, #16]
 8002bb4:	4b39      	ldr	r3, [pc, #228]	; (8002c9c <LCD_Fast_DrawPoint+0x524>)
 8002bb6:	f44f 7200 	mov.w	r2, #512	; 0x200
 8002bba:	615a      	str	r2, [r3, #20]
 8002bbc:	88bb      	ldrh	r3, [r7, #4]
 8002bbe:	0a1b      	lsrs	r3, r3, #8
 8002bc0:	b29a      	uxth	r2, r3
 8002bc2:	4b37      	ldr	r3, [pc, #220]	; (8002ca0 <LCD_Fast_DrawPoint+0x528>)
 8002bc4:	60da      	str	r2, [r3, #12]
 8002bc6:	4b35      	ldr	r3, [pc, #212]	; (8002c9c <LCD_Fast_DrawPoint+0x524>)
 8002bc8:	2280      	movs	r2, #128	; 0x80
 8002bca:	615a      	str	r2, [r3, #20]
 8002bcc:	4b33      	ldr	r3, [pc, #204]	; (8002c9c <LCD_Fast_DrawPoint+0x524>)
 8002bce:	2280      	movs	r2, #128	; 0x80
 8002bd0:	611a      	str	r2, [r3, #16]
 8002bd2:	4b32      	ldr	r3, [pc, #200]	; (8002c9c <LCD_Fast_DrawPoint+0x524>)
 8002bd4:	f44f 7200 	mov.w	r2, #512	; 0x200
 8002bd8:	611a      	str	r2, [r3, #16]
 8002bda:	4b30      	ldr	r3, [pc, #192]	; (8002c9c <LCD_Fast_DrawPoint+0x524>)
 8002bdc:	f44f 7280 	mov.w	r2, #256	; 0x100
 8002be0:	611a      	str	r2, [r3, #16]
 8002be2:	4b2e      	ldr	r3, [pc, #184]	; (8002c9c <LCD_Fast_DrawPoint+0x524>)
 8002be4:	f44f 7200 	mov.w	r2, #512	; 0x200
 8002be8:	615a      	str	r2, [r3, #20]
 8002bea:	88bb      	ldrh	r3, [r7, #4]
 8002bec:	4a2c      	ldr	r2, [pc, #176]	; (8002ca0 <LCD_Fast_DrawPoint+0x528>)
 8002bee:	b2db      	uxtb	r3, r3
 8002bf0:	60d3      	str	r3, [r2, #12]
 8002bf2:	4b2a      	ldr	r3, [pc, #168]	; (8002c9c <LCD_Fast_DrawPoint+0x524>)
 8002bf4:	2280      	movs	r2, #128	; 0x80
 8002bf6:	615a      	str	r2, [r3, #20]
 8002bf8:	4b28      	ldr	r3, [pc, #160]	; (8002c9c <LCD_Fast_DrawPoint+0x524>)
 8002bfa:	2280      	movs	r2, #128	; 0x80
 8002bfc:	611a      	str	r2, [r3, #16]
 8002bfe:	4b27      	ldr	r3, [pc, #156]	; (8002c9c <LCD_Fast_DrawPoint+0x524>)
 8002c00:	f44f 7200 	mov.w	r2, #512	; 0x200
 8002c04:	611a      	str	r2, [r3, #16]
 8002c06:	e018      	b.n	8002c3a <LCD_Fast_DrawPoint+0x4c2>
 8002c08:	4b23      	ldr	r3, [pc, #140]	; (8002c98 <LCD_Fast_DrawPoint+0x520>)
 8002c0a:	799b      	ldrb	r3, [r3, #6]
 8002c0c:	2b01      	cmp	r3, #1
 8002c0e:	d106      	bne.n	8002c1e <LCD_Fast_DrawPoint+0x4a6>
 8002c10:	4b21      	ldr	r3, [pc, #132]	; (8002c98 <LCD_Fast_DrawPoint+0x520>)
 8002c12:	881a      	ldrh	r2, [r3, #0]
 8002c14:	88fb      	ldrh	r3, [r7, #6]
 8002c16:	1ad3      	subs	r3, r2, r3
 8002c18:	b29b      	uxth	r3, r3
 8002c1a:	3b01      	subs	r3, #1
 8002c1c:	80fb      	strh	r3, [r7, #6]
 8002c1e:	4b1e      	ldr	r3, [pc, #120]	; (8002c98 <LCD_Fast_DrawPoint+0x520>)
 8002c20:	895b      	ldrh	r3, [r3, #10]
 8002c22:	88fa      	ldrh	r2, [r7, #6]
 8002c24:	4611      	mov	r1, r2
 8002c26:	4618      	mov	r0, r3
 8002c28:	f7fe ff52 	bl	8001ad0 <LCD_WriteReg>
 8002c2c:	4b1a      	ldr	r3, [pc, #104]	; (8002c98 <LCD_Fast_DrawPoint+0x520>)
 8002c2e:	899b      	ldrh	r3, [r3, #12]
 8002c30:	88ba      	ldrh	r2, [r7, #4]
 8002c32:	4611      	mov	r1, r2
 8002c34:	4618      	mov	r0, r3
 8002c36:	f7fe ff4b 	bl	8001ad0 <LCD_WriteReg>
 8002c3a:	4b18      	ldr	r3, [pc, #96]	; (8002c9c <LCD_Fast_DrawPoint+0x524>)
 8002c3c:	f44f 7280 	mov.w	r2, #256	; 0x100
 8002c40:	615a      	str	r2, [r3, #20]
 8002c42:	4b16      	ldr	r3, [pc, #88]	; (8002c9c <LCD_Fast_DrawPoint+0x524>)
 8002c44:	f44f 7200 	mov.w	r2, #512	; 0x200
 8002c48:	615a      	str	r2, [r3, #20]
 8002c4a:	4b13      	ldr	r3, [pc, #76]	; (8002c98 <LCD_Fast_DrawPoint+0x520>)
 8002c4c:	891a      	ldrh	r2, [r3, #8]
 8002c4e:	4b14      	ldr	r3, [pc, #80]	; (8002ca0 <LCD_Fast_DrawPoint+0x528>)
 8002c50:	60da      	str	r2, [r3, #12]
 8002c52:	4b12      	ldr	r3, [pc, #72]	; (8002c9c <LCD_Fast_DrawPoint+0x524>)
 8002c54:	2280      	movs	r2, #128	; 0x80
 8002c56:	615a      	str	r2, [r3, #20]
 8002c58:	4b10      	ldr	r3, [pc, #64]	; (8002c9c <LCD_Fast_DrawPoint+0x524>)
 8002c5a:	2280      	movs	r2, #128	; 0x80
 8002c5c:	611a      	str	r2, [r3, #16]
 8002c5e:	4b0f      	ldr	r3, [pc, #60]	; (8002c9c <LCD_Fast_DrawPoint+0x524>)
 8002c60:	f44f 7200 	mov.w	r2, #512	; 0x200
 8002c64:	611a      	str	r2, [r3, #16]
 8002c66:	4b0d      	ldr	r3, [pc, #52]	; (8002c9c <LCD_Fast_DrawPoint+0x524>)
 8002c68:	f44f 7280 	mov.w	r2, #256	; 0x100
 8002c6c:	611a      	str	r2, [r3, #16]
 8002c6e:	4b0b      	ldr	r3, [pc, #44]	; (8002c9c <LCD_Fast_DrawPoint+0x524>)
 8002c70:	f44f 7200 	mov.w	r2, #512	; 0x200
 8002c74:	615a      	str	r2, [r3, #20]
 8002c76:	4a0a      	ldr	r2, [pc, #40]	; (8002ca0 <LCD_Fast_DrawPoint+0x528>)
 8002c78:	887b      	ldrh	r3, [r7, #2]
 8002c7a:	60d3      	str	r3, [r2, #12]
 8002c7c:	4b07      	ldr	r3, [pc, #28]	; (8002c9c <LCD_Fast_DrawPoint+0x524>)
 8002c7e:	2280      	movs	r2, #128	; 0x80
 8002c80:	615a      	str	r2, [r3, #20]
 8002c82:	4b06      	ldr	r3, [pc, #24]	; (8002c9c <LCD_Fast_DrawPoint+0x524>)
 8002c84:	2280      	movs	r2, #128	; 0x80
 8002c86:	611a      	str	r2, [r3, #16]
 8002c88:	4b04      	ldr	r3, [pc, #16]	; (8002c9c <LCD_Fast_DrawPoint+0x524>)
 8002c8a:	f44f 7200 	mov.w	r2, #512	; 0x200
 8002c8e:	611a      	str	r2, [r3, #16]
 8002c90:	bf00      	nop
 8002c92:	3708      	adds	r7, #8
 8002c94:	46bd      	mov	sp, r7
 8002c96:	bd80      	pop	{r7, pc}
 8002c98:	20000030 	.word	0x20000030
 8002c9c:	40011000 	.word	0x40011000
 8002ca0:	40010c00 	.word	0x40010c00
 8002ca4:	00000000 	.word	0x00000000

08002ca8 <LCD_SSD_BackLightSet>:
 8002ca8:	b590      	push	{r4, r7, lr}
 8002caa:	b083      	sub	sp, #12
 8002cac:	af00      	add	r7, sp, #0
 8002cae:	4603      	mov	r3, r0
 8002cb0:	71fb      	strb	r3, [r7, #7]
 8002cb2:	20be      	movs	r0, #190	; 0xbe
 8002cb4:	f7fe fe80 	bl	80019b8 <LCD_WR_REG>
 8002cb8:	4b4b      	ldr	r3, [pc, #300]	; (8002de8 <LCD_SSD_BackLightSet+0x140>)
 8002cba:	f44f 7280 	mov.w	r2, #256	; 0x100
 8002cbe:	611a      	str	r2, [r3, #16]
 8002cc0:	4b49      	ldr	r3, [pc, #292]	; (8002de8 <LCD_SSD_BackLightSet+0x140>)
 8002cc2:	f44f 7200 	mov.w	r2, #512	; 0x200
 8002cc6:	615a      	str	r2, [r3, #20]
 8002cc8:	4b48      	ldr	r3, [pc, #288]	; (8002dec <LCD_SSD_BackLightSet+0x144>)
 8002cca:	2205      	movs	r2, #5
 8002ccc:	60da      	str	r2, [r3, #12]
 8002cce:	4b46      	ldr	r3, [pc, #280]	; (8002de8 <LCD_SSD_BackLightSet+0x140>)
 8002cd0:	2280      	movs	r2, #128	; 0x80
 8002cd2:	615a      	str	r2, [r3, #20]
 8002cd4:	4b44      	ldr	r3, [pc, #272]	; (8002de8 <LCD_SSD_BackLightSet+0x140>)
 8002cd6:	2280      	movs	r2, #128	; 0x80
 8002cd8:	611a      	str	r2, [r3, #16]
 8002cda:	4b43      	ldr	r3, [pc, #268]	; (8002de8 <LCD_SSD_BackLightSet+0x140>)
 8002cdc:	f44f 7200 	mov.w	r2, #512	; 0x200
 8002ce0:	611a      	str	r2, [r3, #16]
 8002ce2:	4b41      	ldr	r3, [pc, #260]	; (8002de8 <LCD_SSD_BackLightSet+0x140>)
 8002ce4:	f44f 7280 	mov.w	r2, #256	; 0x100
 8002ce8:	611a      	str	r2, [r3, #16]
 8002cea:	4b3f      	ldr	r3, [pc, #252]	; (8002de8 <LCD_SSD_BackLightSet+0x140>)
 8002cec:	f44f 7200 	mov.w	r2, #512	; 0x200
 8002cf0:	615a      	str	r2, [r3, #20]
 8002cf2:	79fb      	ldrb	r3, [r7, #7]
 8002cf4:	4618      	mov	r0, r3
 8002cf6:	f7fd fbe9 	bl	80004cc <__aeabi_i2d>
 8002cfa:	a339      	add	r3, pc, #228	; (adr r3, 8002de0 <LCD_SSD_BackLightSet+0x138>)
 8002cfc:	e9d3 2300 	ldrd	r2, r3, [r3]
 8002d00:	f7fd fc4e 	bl	80005a0 <__aeabi_dmul>
 8002d04:	4603      	mov	r3, r0
 8002d06:	460c      	mov	r4, r1
 8002d08:	461a      	mov	r2, r3
 8002d0a:	4623      	mov	r3, r4
 8002d0c:	4c37      	ldr	r4, [pc, #220]	; (8002dec <LCD_SSD_BackLightSet+0x144>)
 8002d0e:	4610      	mov	r0, r2
 8002d10:	4619      	mov	r1, r3
 8002d12:	f7fd fe57 	bl	80009c4 <__aeabi_d2uiz>
 8002d16:	4603      	mov	r3, r0
 8002d18:	60e3      	str	r3, [r4, #12]
 8002d1a:	4b33      	ldr	r3, [pc, #204]	; (8002de8 <LCD_SSD_BackLightSet+0x140>)
 8002d1c:	2280      	movs	r2, #128	; 0x80
 8002d1e:	615a      	str	r2, [r3, #20]
 8002d20:	4b31      	ldr	r3, [pc, #196]	; (8002de8 <LCD_SSD_BackLightSet+0x140>)
 8002d22:	2280      	movs	r2, #128	; 0x80
 8002d24:	611a      	str	r2, [r3, #16]
 8002d26:	4b30      	ldr	r3, [pc, #192]	; (8002de8 <LCD_SSD_BackLightSet+0x140>)
 8002d28:	f44f 7200 	mov.w	r2, #512	; 0x200
 8002d2c:	611a      	str	r2, [r3, #16]
 8002d2e:	4b2e      	ldr	r3, [pc, #184]	; (8002de8 <LCD_SSD_BackLightSet+0x140>)
 8002d30:	f44f 7280 	mov.w	r2, #256	; 0x100
 8002d34:	611a      	str	r2, [r3, #16]
 8002d36:	4b2c      	ldr	r3, [pc, #176]	; (8002de8 <LCD_SSD_BackLightSet+0x140>)
 8002d38:	f44f 7200 	mov.w	r2, #512	; 0x200
 8002d3c:	615a      	str	r2, [r3, #20]
 8002d3e:	4b2b      	ldr	r3, [pc, #172]	; (8002dec <LCD_SSD_BackLightSet+0x144>)
 8002d40:	2201      	movs	r2, #1
 8002d42:	60da      	str	r2, [r3, #12]
 8002d44:	4b28      	ldr	r3, [pc, #160]	; (8002de8 <LCD_SSD_BackLightSet+0x140>)
 8002d46:	2280      	movs	r2, #128	; 0x80
 8002d48:	615a      	str	r2, [r3, #20]
 8002d4a:	4b27      	ldr	r3, [pc, #156]	; (8002de8 <LCD_SSD_BackLightSet+0x140>)
 8002d4c:	2280      	movs	r2, #128	; 0x80
 8002d4e:	611a      	str	r2, [r3, #16]
 8002d50:	4b25      	ldr	r3, [pc, #148]	; (8002de8 <LCD_SSD_BackLightSet+0x140>)
 8002d52:	f44f 7200 	mov.w	r2, #512	; 0x200
 8002d56:	611a      	str	r2, [r3, #16]
 8002d58:	4b23      	ldr	r3, [pc, #140]	; (8002de8 <LCD_SSD_BackLightSet+0x140>)
 8002d5a:	f44f 7280 	mov.w	r2, #256	; 0x100
 8002d5e:	611a      	str	r2, [r3, #16]
 8002d60:	4b21      	ldr	r3, [pc, #132]	; (8002de8 <LCD_SSD_BackLightSet+0x140>)
 8002d62:	f44f 7200 	mov.w	r2, #512	; 0x200
 8002d66:	615a      	str	r2, [r3, #20]
 8002d68:	4b20      	ldr	r3, [pc, #128]	; (8002dec <LCD_SSD_BackLightSet+0x144>)
 8002d6a:	22ff      	movs	r2, #255	; 0xff
 8002d6c:	60da      	str	r2, [r3, #12]
 8002d6e:	4b1e      	ldr	r3, [pc, #120]	; (8002de8 <LCD_SSD_BackLightSet+0x140>)
 8002d70:	2280      	movs	r2, #128	; 0x80
 8002d72:	615a      	str	r2, [r3, #20]
 8002d74:	4b1c      	ldr	r3, [pc, #112]	; (8002de8 <LCD_SSD_BackLightSet+0x140>)
 8002d76:	2280      	movs	r2, #128	; 0x80
 8002d78:	611a      	str	r2, [r3, #16]
 8002d7a:	4b1b      	ldr	r3, [pc, #108]	; (8002de8 <LCD_SSD_BackLightSet+0x140>)
 8002d7c:	f44f 7200 	mov.w	r2, #512	; 0x200
 8002d80:	611a      	str	r2, [r3, #16]
 8002d82:	4b19      	ldr	r3, [pc, #100]	; (8002de8 <LCD_SSD_BackLightSet+0x140>)
 8002d84:	f44f 7280 	mov.w	r2, #256	; 0x100
 8002d88:	611a      	str	r2, [r3, #16]
 8002d8a:	4b17      	ldr	r3, [pc, #92]	; (8002de8 <LCD_SSD_BackLightSet+0x140>)
 8002d8c:	f44f 7200 	mov.w	r2, #512	; 0x200
 8002d90:	615a      	str	r2, [r3, #20]
 8002d92:	4b16      	ldr	r3, [pc, #88]	; (8002dec <LCD_SSD_BackLightSet+0x144>)
 8002d94:	2200      	movs	r2, #0
 8002d96:	60da      	str	r2, [r3, #12]
 8002d98:	4b13      	ldr	r3, [pc, #76]	; (8002de8 <LCD_SSD_BackLightSet+0x140>)
 8002d9a:	2280      	movs	r2, #128	; 0x80
 8002d9c:	615a      	str	r2, [r3, #20]
 8002d9e:	4b12      	ldr	r3, [pc, #72]	; (8002de8 <LCD_SSD_BackLightSet+0x140>)
 8002da0:	2280      	movs	r2, #128	; 0x80
 8002da2:	611a      	str	r2, [r3, #16]
 8002da4:	4b10      	ldr	r3, [pc, #64]	; (8002de8 <LCD_SSD_BackLightSet+0x140>)
 8002da6:	f44f 7200 	mov.w	r2, #512	; 0x200
 8002daa:	611a      	str	r2, [r3, #16]
 8002dac:	4b0e      	ldr	r3, [pc, #56]	; (8002de8 <LCD_SSD_BackLightSet+0x140>)
 8002dae:	f44f 7280 	mov.w	r2, #256	; 0x100
 8002db2:	611a      	str	r2, [r3, #16]
 8002db4:	4b0c      	ldr	r3, [pc, #48]	; (8002de8 <LCD_SSD_BackLightSet+0x140>)
 8002db6:	f44f 7200 	mov.w	r2, #512	; 0x200
 8002dba:	615a      	str	r2, [r3, #20]
 8002dbc:	4b0b      	ldr	r3, [pc, #44]	; (8002dec <LCD_SSD_BackLightSet+0x144>)
 8002dbe:	2200      	movs	r2, #0
 8002dc0:	60da      	str	r2, [r3, #12]
 8002dc2:	4b09      	ldr	r3, [pc, #36]	; (8002de8 <LCD_SSD_BackLightSet+0x140>)
 8002dc4:	2280      	movs	r2, #128	; 0x80
 8002dc6:	615a      	str	r2, [r3, #20]
 8002dc8:	4b07      	ldr	r3, [pc, #28]	; (8002de8 <LCD_SSD_BackLightSet+0x140>)
 8002dca:	2280      	movs	r2, #128	; 0x80
 8002dcc:	611a      	str	r2, [r3, #16]
 8002dce:	4b06      	ldr	r3, [pc, #24]	; (8002de8 <LCD_SSD_BackLightSet+0x140>)
 8002dd0:	f44f 7200 	mov.w	r2, #512	; 0x200
 8002dd4:	611a      	str	r2, [r3, #16]
 8002dd6:	bf00      	nop
 8002dd8:	370c      	adds	r7, #12
 8002dda:	46bd      	mov	sp, r7
 8002ddc:	bd90      	pop	{r4, r7, pc}
 8002dde:	bf00      	nop
 8002de0:	66666666 	.word	0x66666666
 8002de4:	40046666 	.word	0x40046666
 8002de8:	40011000 	.word	0x40011000
 8002dec:	40010c00 	.word	0x40010c00

08002df0 <LCD_Display_Dir>:
 8002df0:	b580      	push	{r7, lr}
 8002df2:	b082      	sub	sp, #8
 8002df4:	af00      	add	r7, sp, #0
 8002df6:	4603      	mov	r3, r0
 8002df8:	71fb      	strb	r3, [r7, #7]
 8002dfa:	79fb      	ldrb	r3, [r7, #7]
 8002dfc:	2b00      	cmp	r3, #0
 8002dfe:	d177      	bne.n	8002ef0 <LCD_Display_Dir+0x100>
 8002e00:	4b80      	ldr	r3, [pc, #512]	; (8003004 <LCD_Display_Dir+0x214>)
 8002e02:	2200      	movs	r2, #0
 8002e04:	719a      	strb	r2, [r3, #6]
 8002e06:	4b7f      	ldr	r3, [pc, #508]	; (8003004 <LCD_Display_Dir+0x214>)
 8002e08:	22f0      	movs	r2, #240	; 0xf0
 8002e0a:	801a      	strh	r2, [r3, #0]
 8002e0c:	4b7d      	ldr	r3, [pc, #500]	; (8003004 <LCD_Display_Dir+0x214>)
 8002e0e:	f44f 72a0 	mov.w	r2, #320	; 0x140
 8002e12:	805a      	strh	r2, [r3, #2]
 8002e14:	4b7b      	ldr	r3, [pc, #492]	; (8003004 <LCD_Display_Dir+0x214>)
 8002e16:	889b      	ldrh	r3, [r3, #4]
 8002e18:	f249 3241 	movw	r2, #37697	; 0x9341
 8002e1c:	4293      	cmp	r3, r2
 8002e1e:	d00b      	beq.n	8002e38 <LCD_Display_Dir+0x48>
 8002e20:	4b78      	ldr	r3, [pc, #480]	; (8003004 <LCD_Display_Dir+0x214>)
 8002e22:	889b      	ldrh	r3, [r3, #4]
 8002e24:	f646 0204 	movw	r2, #26628	; 0x6804
 8002e28:	4293      	cmp	r3, r2
 8002e2a:	d005      	beq.n	8002e38 <LCD_Display_Dir+0x48>
 8002e2c:	4b75      	ldr	r3, [pc, #468]	; (8003004 <LCD_Display_Dir+0x214>)
 8002e2e:	889b      	ldrh	r3, [r3, #4]
 8002e30:	f245 3210 	movw	r2, #21264	; 0x5310
 8002e34:	4293      	cmp	r3, r2
 8002e36:	d11e      	bne.n	8002e76 <LCD_Display_Dir+0x86>
 8002e38:	4b72      	ldr	r3, [pc, #456]	; (8003004 <LCD_Display_Dir+0x214>)
 8002e3a:	222c      	movs	r2, #44	; 0x2c
 8002e3c:	811a      	strh	r2, [r3, #8]
 8002e3e:	4b71      	ldr	r3, [pc, #452]	; (8003004 <LCD_Display_Dir+0x214>)
 8002e40:	222a      	movs	r2, #42	; 0x2a
 8002e42:	815a      	strh	r2, [r3, #10]
 8002e44:	4b6f      	ldr	r3, [pc, #444]	; (8003004 <LCD_Display_Dir+0x214>)
 8002e46:	222b      	movs	r2, #43	; 0x2b
 8002e48:	819a      	strh	r2, [r3, #12]
 8002e4a:	4b6e      	ldr	r3, [pc, #440]	; (8003004 <LCD_Display_Dir+0x214>)
 8002e4c:	889b      	ldrh	r3, [r3, #4]
 8002e4e:	f646 0204 	movw	r2, #26628	; 0x6804
 8002e52:	4293      	cmp	r3, r2
 8002e54:	d006      	beq.n	8002e64 <LCD_Display_Dir+0x74>
 8002e56:	4b6b      	ldr	r3, [pc, #428]	; (8003004 <LCD_Display_Dir+0x214>)
 8002e58:	889b      	ldrh	r3, [r3, #4]
 8002e5a:	f245 3210 	movw	r2, #21264	; 0x5310
 8002e5e:	4293      	cmp	r3, r2
 8002e60:	f040 80c7 	bne.w	8002ff2 <LCD_Display_Dir+0x202>
 8002e64:	4b67      	ldr	r3, [pc, #412]	; (8003004 <LCD_Display_Dir+0x214>)
 8002e66:	f44f 72a0 	mov.w	r2, #320	; 0x140
 8002e6a:	801a      	strh	r2, [r3, #0]
 8002e6c:	4b65      	ldr	r3, [pc, #404]	; (8003004 <LCD_Display_Dir+0x214>)
 8002e6e:	f44f 72f0 	mov.w	r2, #480	; 0x1e0
 8002e72:	805a      	strh	r2, [r3, #2]
 8002e74:	e0bd      	b.n	8002ff2 <LCD_Display_Dir+0x202>
 8002e76:	4b63      	ldr	r3, [pc, #396]	; (8003004 <LCD_Display_Dir+0x214>)
 8002e78:	889b      	ldrh	r3, [r3, #4]
 8002e7a:	f245 5210 	movw	r2, #21776	; 0x5510
 8002e7e:	4293      	cmp	r3, r2
 8002e80:	d114      	bne.n	8002eac <LCD_Display_Dir+0xbc>
 8002e82:	4b60      	ldr	r3, [pc, #384]	; (8003004 <LCD_Display_Dir+0x214>)
 8002e84:	f44f 5230 	mov.w	r2, #11264	; 0x2c00
 8002e88:	811a      	strh	r2, [r3, #8]
 8002e8a:	4b5e      	ldr	r3, [pc, #376]	; (8003004 <LCD_Display_Dir+0x214>)
 8002e8c:	f44f 5228 	mov.w	r2, #10752	; 0x2a00
 8002e90:	815a      	strh	r2, [r3, #10]
 8002e92:	4b5c      	ldr	r3, [pc, #368]	; (8003004 <LCD_Display_Dir+0x214>)
 8002e94:	f44f 522c 	mov.w	r2, #11008	; 0x2b00
 8002e98:	819a      	strh	r2, [r3, #12]
 8002e9a:	4b5a      	ldr	r3, [pc, #360]	; (8003004 <LCD_Display_Dir+0x214>)
 8002e9c:	f44f 72f0 	mov.w	r2, #480	; 0x1e0
 8002ea0:	801a      	strh	r2, [r3, #0]
 8002ea2:	4b58      	ldr	r3, [pc, #352]	; (8003004 <LCD_Display_Dir+0x214>)
 8002ea4:	f44f 7248 	mov.w	r2, #800	; 0x320
 8002ea8:	805a      	strh	r2, [r3, #2]
 8002eaa:	e0a3      	b.n	8002ff4 <LCD_Display_Dir+0x204>
 8002eac:	4b55      	ldr	r3, [pc, #340]	; (8003004 <LCD_Display_Dir+0x214>)
 8002eae:	889b      	ldrh	r3, [r3, #4]
 8002eb0:	f641 1263 	movw	r2, #6499	; 0x1963
 8002eb4:	4293      	cmp	r3, r2
 8002eb6:	d111      	bne.n	8002edc <LCD_Display_Dir+0xec>
 8002eb8:	4b52      	ldr	r3, [pc, #328]	; (8003004 <LCD_Display_Dir+0x214>)
 8002eba:	222c      	movs	r2, #44	; 0x2c
 8002ebc:	811a      	strh	r2, [r3, #8]
 8002ebe:	4b51      	ldr	r3, [pc, #324]	; (8003004 <LCD_Display_Dir+0x214>)
 8002ec0:	222b      	movs	r2, #43	; 0x2b
 8002ec2:	815a      	strh	r2, [r3, #10]
 8002ec4:	4b4f      	ldr	r3, [pc, #316]	; (8003004 <LCD_Display_Dir+0x214>)
 8002ec6:	222a      	movs	r2, #42	; 0x2a
 8002ec8:	819a      	strh	r2, [r3, #12]
 8002eca:	4b4e      	ldr	r3, [pc, #312]	; (8003004 <LCD_Display_Dir+0x214>)
 8002ecc:	f44f 72f0 	mov.w	r2, #480	; 0x1e0
 8002ed0:	801a      	strh	r2, [r3, #0]
 8002ed2:	4b4c      	ldr	r3, [pc, #304]	; (8003004 <LCD_Display_Dir+0x214>)
 8002ed4:	f44f 7248 	mov.w	r2, #800	; 0x320
 8002ed8:	805a      	strh	r2, [r3, #2]
 8002eda:	e08b      	b.n	8002ff4 <LCD_Display_Dir+0x204>
 8002edc:	4b49      	ldr	r3, [pc, #292]	; (8003004 <LCD_Display_Dir+0x214>)
 8002ede:	2222      	movs	r2, #34	; 0x22
 8002ee0:	811a      	strh	r2, [r3, #8]
 8002ee2:	4b48      	ldr	r3, [pc, #288]	; (8003004 <LCD_Display_Dir+0x214>)
 8002ee4:	2220      	movs	r2, #32
 8002ee6:	815a      	strh	r2, [r3, #10]
 8002ee8:	4b46      	ldr	r3, [pc, #280]	; (8003004 <LCD_Display_Dir+0x214>)
 8002eea:	2221      	movs	r2, #33	; 0x21
 8002eec:	819a      	strh	r2, [r3, #12]
 8002eee:	e081      	b.n	8002ff4 <LCD_Display_Dir+0x204>
 8002ef0:	4b44      	ldr	r3, [pc, #272]	; (8003004 <LCD_Display_Dir+0x214>)
 8002ef2:	2201      	movs	r2, #1
 8002ef4:	719a      	strb	r2, [r3, #6]
 8002ef6:	4b43      	ldr	r3, [pc, #268]	; (8003004 <LCD_Display_Dir+0x214>)
 8002ef8:	f44f 72a0 	mov.w	r2, #320	; 0x140
 8002efc:	801a      	strh	r2, [r3, #0]
 8002efe:	4b41      	ldr	r3, [pc, #260]	; (8003004 <LCD_Display_Dir+0x214>)
 8002f00:	22f0      	movs	r2, #240	; 0xf0
 8002f02:	805a      	strh	r2, [r3, #2]
 8002f04:	4b3f      	ldr	r3, [pc, #252]	; (8003004 <LCD_Display_Dir+0x214>)
 8002f06:	889b      	ldrh	r3, [r3, #4]
 8002f08:	f249 3241 	movw	r2, #37697	; 0x9341
 8002f0c:	4293      	cmp	r3, r2
 8002f0e:	d005      	beq.n	8002f1c <LCD_Display_Dir+0x12c>
 8002f10:	4b3c      	ldr	r3, [pc, #240]	; (8003004 <LCD_Display_Dir+0x214>)
 8002f12:	889b      	ldrh	r3, [r3, #4]
 8002f14:	f245 3210 	movw	r2, #21264	; 0x5310
 8002f18:	4293      	cmp	r3, r2
 8002f1a:	d109      	bne.n	8002f30 <LCD_Display_Dir+0x140>
 8002f1c:	4b39      	ldr	r3, [pc, #228]	; (8003004 <LCD_Display_Dir+0x214>)
 8002f1e:	222c      	movs	r2, #44	; 0x2c
 8002f20:	811a      	strh	r2, [r3, #8]
 8002f22:	4b38      	ldr	r3, [pc, #224]	; (8003004 <LCD_Display_Dir+0x214>)
 8002f24:	222a      	movs	r2, #42	; 0x2a
 8002f26:	815a      	strh	r2, [r3, #10]
 8002f28:	4b36      	ldr	r3, [pc, #216]	; (8003004 <LCD_Display_Dir+0x214>)
 8002f2a:	222b      	movs	r2, #43	; 0x2b
 8002f2c:	819a      	strh	r2, [r3, #12]
 8002f2e:	e04b      	b.n	8002fc8 <LCD_Display_Dir+0x1d8>
 8002f30:	4b34      	ldr	r3, [pc, #208]	; (8003004 <LCD_Display_Dir+0x214>)
 8002f32:	889b      	ldrh	r3, [r3, #4]
 8002f34:	f646 0204 	movw	r2, #26628	; 0x6804
 8002f38:	4293      	cmp	r3, r2
 8002f3a:	d109      	bne.n	8002f50 <LCD_Display_Dir+0x160>
 8002f3c:	4b31      	ldr	r3, [pc, #196]	; (8003004 <LCD_Display_Dir+0x214>)
 8002f3e:	222c      	movs	r2, #44	; 0x2c
 8002f40:	811a      	strh	r2, [r3, #8]
 8002f42:	4b30      	ldr	r3, [pc, #192]	; (8003004 <LCD_Display_Dir+0x214>)
 8002f44:	222b      	movs	r2, #43	; 0x2b
 8002f46:	815a      	strh	r2, [r3, #10]
 8002f48:	4b2e      	ldr	r3, [pc, #184]	; (8003004 <LCD_Display_Dir+0x214>)
 8002f4a:	222a      	movs	r2, #42	; 0x2a
 8002f4c:	819a      	strh	r2, [r3, #12]
 8002f4e:	e03b      	b.n	8002fc8 <LCD_Display_Dir+0x1d8>
 8002f50:	4b2c      	ldr	r3, [pc, #176]	; (8003004 <LCD_Display_Dir+0x214>)
 8002f52:	889b      	ldrh	r3, [r3, #4]
 8002f54:	f245 5210 	movw	r2, #21776	; 0x5510
 8002f58:	4293      	cmp	r3, r2
 8002f5a:	d114      	bne.n	8002f86 <LCD_Display_Dir+0x196>
 8002f5c:	4b29      	ldr	r3, [pc, #164]	; (8003004 <LCD_Display_Dir+0x214>)
 8002f5e:	f44f 5230 	mov.w	r2, #11264	; 0x2c00
 8002f62:	811a      	strh	r2, [r3, #8]
 8002f64:	4b27      	ldr	r3, [pc, #156]	; (8003004 <LCD_Display_Dir+0x214>)
 8002f66:	f44f 5228 	mov.w	r2, #10752	; 0x2a00
 8002f6a:	815a      	strh	r2, [r3, #10]
 8002f6c:	4b25      	ldr	r3, [pc, #148]	; (8003004 <LCD_Display_Dir+0x214>)
 8002f6e:	f44f 522c 	mov.w	r2, #11008	; 0x2b00
 8002f72:	819a      	strh	r2, [r3, #12]
 8002f74:	4b23      	ldr	r3, [pc, #140]	; (8003004 <LCD_Display_Dir+0x214>)
 8002f76:	f44f 7248 	mov.w	r2, #800	; 0x320
 8002f7a:	801a      	strh	r2, [r3, #0]
 8002f7c:	4b21      	ldr	r3, [pc, #132]	; (8003004 <LCD_Display_Dir+0x214>)
 8002f7e:	f44f 72f0 	mov.w	r2, #480	; 0x1e0
 8002f82:	805a      	strh	r2, [r3, #2]
 8002f84:	e020      	b.n	8002fc8 <LCD_Display_Dir+0x1d8>
 8002f86:	4b1f      	ldr	r3, [pc, #124]	; (8003004 <LCD_Display_Dir+0x214>)
 8002f88:	889b      	ldrh	r3, [r3, #4]
 8002f8a:	f641 1263 	movw	r2, #6499	; 0x1963
 8002f8e:	4293      	cmp	r3, r2
 8002f90:	d111      	bne.n	8002fb6 <LCD_Display_Dir+0x1c6>
 8002f92:	4b1c      	ldr	r3, [pc, #112]	; (8003004 <LCD_Display_Dir+0x214>)
 8002f94:	222c      	movs	r2, #44	; 0x2c
 8002f96:	811a      	strh	r2, [r3, #8]
 8002f98:	4b1a      	ldr	r3, [pc, #104]	; (8003004 <LCD_Display_Dir+0x214>)
 8002f9a:	222a      	movs	r2, #42	; 0x2a
 8002f9c:	815a      	strh	r2, [r3, #10]
 8002f9e:	4b19      	ldr	r3, [pc, #100]	; (8003004 <LCD_Display_Dir+0x214>)
 8002fa0:	222b      	movs	r2, #43	; 0x2b
 8002fa2:	819a      	strh	r2, [r3, #12]
 8002fa4:	4b17      	ldr	r3, [pc, #92]	; (8003004 <LCD_Display_Dir+0x214>)
 8002fa6:	f44f 7248 	mov.w	r2, #800	; 0x320
 8002faa:	801a      	strh	r2, [r3, #0]
 8002fac:	4b15      	ldr	r3, [pc, #84]	; (8003004 <LCD_Display_Dir+0x214>)
 8002fae:	f44f 72f0 	mov.w	r2, #480	; 0x1e0
 8002fb2:	805a      	strh	r2, [r3, #2]
 8002fb4:	e008      	b.n	8002fc8 <LCD_Display_Dir+0x1d8>
 8002fb6:	4b13      	ldr	r3, [pc, #76]	; (8003004 <LCD_Display_Dir+0x214>)
 8002fb8:	2222      	movs	r2, #34	; 0x22
 8002fba:	811a      	strh	r2, [r3, #8]
 8002fbc:	4b11      	ldr	r3, [pc, #68]	; (8003004 <LCD_Display_Dir+0x214>)
 8002fbe:	2221      	movs	r2, #33	; 0x21
 8002fc0:	815a      	strh	r2, [r3, #10]
 8002fc2:	4b10      	ldr	r3, [pc, #64]	; (8003004 <LCD_Display_Dir+0x214>)
 8002fc4:	2220      	movs	r2, #32
 8002fc6:	819a      	strh	r2, [r3, #12]
 8002fc8:	4b0e      	ldr	r3, [pc, #56]	; (8003004 <LCD_Display_Dir+0x214>)
 8002fca:	889b      	ldrh	r3, [r3, #4]
 8002fcc:	f646 0204 	movw	r2, #26628	; 0x6804
 8002fd0:	4293      	cmp	r3, r2
 8002fd2:	d005      	beq.n	8002fe0 <LCD_Display_Dir+0x1f0>
 8002fd4:	4b0b      	ldr	r3, [pc, #44]	; (8003004 <LCD_Display_Dir+0x214>)
 8002fd6:	889b      	ldrh	r3, [r3, #4]
 8002fd8:	f245 3210 	movw	r2, #21264	; 0x5310
 8002fdc:	4293      	cmp	r3, r2
 8002fde:	d109      	bne.n	8002ff4 <LCD_Display_Dir+0x204>
 8002fe0:	4b08      	ldr	r3, [pc, #32]	; (8003004 <LCD_Display_Dir+0x214>)
 8002fe2:	f44f 72f0 	mov.w	r2, #480	; 0x1e0
 8002fe6:	801a      	strh	r2, [r3, #0]
 8002fe8:	4b06      	ldr	r3, [pc, #24]	; (8003004 <LCD_Display_Dir+0x214>)
 8002fea:	f44f 72a0 	mov.w	r2, #320	; 0x140
 8002fee:	805a      	strh	r2, [r3, #2]
 8002ff0:	e000      	b.n	8002ff4 <LCD_Display_Dir+0x204>
 8002ff2:	bf00      	nop
 8002ff4:	2000      	movs	r0, #0
 8002ff6:	f7ff f87d 	bl	80020f4 <LCD_Scan_Dir>
 8002ffa:	bf00      	nop
 8002ffc:	3708      	adds	r7, #8
 8002ffe:	46bd      	mov	sp, r7
 8003000:	bd80      	pop	{r7, pc}
 8003002:	bf00      	nop
 8003004:	20000030 	.word	0x20000030

08003008 <LCD_Init>:
 8003008:	b580      	push	{r7, lr}
 800300a:	b086      	sub	sp, #24
 800300c:	af00      	add	r7, sp, #0
 800300e:	4b90      	ldr	r3, [pc, #576]	; (8003250 <LCD_Init+0x248>)
 8003010:	699b      	ldr	r3, [r3, #24]
 8003012:	4a8f      	ldr	r2, [pc, #572]	; (8003250 <LCD_Init+0x248>)
 8003014:	f043 0308 	orr.w	r3, r3, #8
 8003018:	6193      	str	r3, [r2, #24]
 800301a:	4b8d      	ldr	r3, [pc, #564]	; (8003250 <LCD_Init+0x248>)
 800301c:	699b      	ldr	r3, [r3, #24]
 800301e:	f003 0308 	and.w	r3, r3, #8
 8003022:	607b      	str	r3, [r7, #4]
 8003024:	687b      	ldr	r3, [r7, #4]
 8003026:	4b8a      	ldr	r3, [pc, #552]	; (8003250 <LCD_Init+0x248>)
 8003028:	699b      	ldr	r3, [r3, #24]
 800302a:	4a89      	ldr	r2, [pc, #548]	; (8003250 <LCD_Init+0x248>)
 800302c:	f043 0310 	orr.w	r3, r3, #16
 8003030:	6193      	str	r3, [r2, #24]
 8003032:	4b87      	ldr	r3, [pc, #540]	; (8003250 <LCD_Init+0x248>)
 8003034:	699b      	ldr	r3, [r3, #24]
 8003036:	f003 0310 	and.w	r3, r3, #16
 800303a:	603b      	str	r3, [r7, #0]
 800303c:	683b      	ldr	r3, [r7, #0]
 800303e:	f44f 63f8 	mov.w	r3, #1984	; 0x7c0
 8003042:	60bb      	str	r3, [r7, #8]
 8003044:	2301      	movs	r3, #1
 8003046:	60fb      	str	r3, [r7, #12]
 8003048:	2301      	movs	r3, #1
 800304a:	613b      	str	r3, [r7, #16]
 800304c:	2303      	movs	r3, #3
 800304e:	617b      	str	r3, [r7, #20]
 8003050:	f107 0308 	add.w	r3, r7, #8
 8003054:	4619      	mov	r1, r3
 8003056:	487f      	ldr	r0, [pc, #508]	; (8003254 <LCD_Init+0x24c>)
 8003058:	f7fd fe66 	bl	8000d28 <HAL_GPIO_Init>
 800305c:	f64f 73ff 	movw	r3, #65535	; 0xffff
 8003060:	60bb      	str	r3, [r7, #8]
 8003062:	f107 0308 	add.w	r3, r7, #8
 8003066:	4619      	mov	r1, r3
 8003068:	487b      	ldr	r0, [pc, #492]	; (8003258 <LCD_Init+0x250>)
 800306a:	f7fd fe5d 	bl	8000d28 <HAL_GPIO_Init>
 800306e:	2032      	movs	r0, #50	; 0x32
 8003070:	f7fd fd2a 	bl	8000ac8 <HAL_Delay>
 8003074:	2101      	movs	r1, #1
 8003076:	2000      	movs	r0, #0
 8003078:	f7fe fd2a 	bl	8001ad0 <LCD_WriteReg>
 800307c:	2032      	movs	r0, #50	; 0x32
 800307e:	f7fd fd23 	bl	8000ac8 <HAL_Delay>
 8003082:	2000      	movs	r0, #0
 8003084:	f7fe fd4e 	bl	8001b24 <LCD_ReadReg>
 8003088:	4603      	mov	r3, r0
 800308a:	461a      	mov	r2, r3
 800308c:	4b73      	ldr	r3, [pc, #460]	; (800325c <LCD_Init+0x254>)
 800308e:	809a      	strh	r2, [r3, #4]
 8003090:	4b72      	ldr	r3, [pc, #456]	; (800325c <LCD_Init+0x254>)
 8003092:	889b      	ldrh	r3, [r3, #4]
 8003094:	2bfe      	cmp	r3, #254	; 0xfe
 8003096:	d90b      	bls.n	80030b0 <LCD_Init+0xa8>
 8003098:	4b70      	ldr	r3, [pc, #448]	; (800325c <LCD_Init+0x254>)
 800309a:	889b      	ldrh	r3, [r3, #4]
 800309c:	f64f 72ff 	movw	r2, #65535	; 0xffff
 80030a0:	4293      	cmp	r3, r2
 80030a2:	d005      	beq.n	80030b0 <LCD_Init+0xa8>
 80030a4:	4b6d      	ldr	r3, [pc, #436]	; (800325c <LCD_Init+0x254>)
 80030a6:	889b      	ldrh	r3, [r3, #4]
 80030a8:	f5b3 4f13 	cmp.w	r3, #37632	; 0x9300
 80030ac:	f040 80c8 	bne.w	8003240 <LCD_Init+0x238>
 80030b0:	20d3      	movs	r0, #211	; 0xd3
 80030b2:	f7fe fc81 	bl	80019b8 <LCD_WR_REG>
 80030b6:	f7fe fcc7 	bl	8001a48 <LCD_RD_DATA>
 80030ba:	f7fe fcc5 	bl	8001a48 <LCD_RD_DATA>
 80030be:	f7fe fcc3 	bl	8001a48 <LCD_RD_DATA>
 80030c2:	4603      	mov	r3, r0
 80030c4:	461a      	mov	r2, r3
 80030c6:	4b65      	ldr	r3, [pc, #404]	; (800325c <LCD_Init+0x254>)
 80030c8:	809a      	strh	r2, [r3, #4]
 80030ca:	4b64      	ldr	r3, [pc, #400]	; (800325c <LCD_Init+0x254>)
 80030cc:	889b      	ldrh	r3, [r3, #4]
 80030ce:	021b      	lsls	r3, r3, #8
 80030d0:	b29a      	uxth	r2, r3
 80030d2:	4b62      	ldr	r3, [pc, #392]	; (800325c <LCD_Init+0x254>)
 80030d4:	809a      	strh	r2, [r3, #4]
 80030d6:	f7fe fcb7 	bl	8001a48 <LCD_RD_DATA>
 80030da:	4603      	mov	r3, r0
 80030dc:	461a      	mov	r2, r3
 80030de:	4b5f      	ldr	r3, [pc, #380]	; (800325c <LCD_Init+0x254>)
 80030e0:	889b      	ldrh	r3, [r3, #4]
 80030e2:	4313      	orrs	r3, r2
 80030e4:	b29a      	uxth	r2, r3
 80030e6:	4b5d      	ldr	r3, [pc, #372]	; (800325c <LCD_Init+0x254>)
 80030e8:	809a      	strh	r2, [r3, #4]
 80030ea:	4b5c      	ldr	r3, [pc, #368]	; (800325c <LCD_Init+0x254>)
 80030ec:	889b      	ldrh	r3, [r3, #4]
 80030ee:	f249 3241 	movw	r2, #37697	; 0x9341
 80030f2:	4293      	cmp	r3, r2
 80030f4:	f000 80a4 	beq.w	8003240 <LCD_Init+0x238>
 80030f8:	20bf      	movs	r0, #191	; 0xbf
 80030fa:	f7fe fc5d 	bl	80019b8 <LCD_WR_REG>
 80030fe:	f7fe fca3 	bl	8001a48 <LCD_RD_DATA>
 8003102:	f7fe fca1 	bl	8001a48 <LCD_RD_DATA>
 8003106:	f7fe fc9f 	bl	8001a48 <LCD_RD_DATA>
 800310a:	f7fe fc9d 	bl	8001a48 <LCD_RD_DATA>
 800310e:	4603      	mov	r3, r0
 8003110:	461a      	mov	r2, r3
 8003112:	4b52      	ldr	r3, [pc, #328]	; (800325c <LCD_Init+0x254>)
 8003114:	809a      	strh	r2, [r3, #4]
 8003116:	4b51      	ldr	r3, [pc, #324]	; (800325c <LCD_Init+0x254>)
 8003118:	889b      	ldrh	r3, [r3, #4]
 800311a:	021b      	lsls	r3, r3, #8
 800311c:	b29a      	uxth	r2, r3
 800311e:	4b4f      	ldr	r3, [pc, #316]	; (800325c <LCD_Init+0x254>)
 8003120:	809a      	strh	r2, [r3, #4]
 8003122:	f7fe fc91 	bl	8001a48 <LCD_RD_DATA>
 8003126:	4603      	mov	r3, r0
 8003128:	461a      	mov	r2, r3
 800312a:	4b4c      	ldr	r3, [pc, #304]	; (800325c <LCD_Init+0x254>)
 800312c:	889b      	ldrh	r3, [r3, #4]
 800312e:	4313      	orrs	r3, r2
 8003130:	b29a      	uxth	r2, r3
 8003132:	4b4a      	ldr	r3, [pc, #296]	; (800325c <LCD_Init+0x254>)
 8003134:	809a      	strh	r2, [r3, #4]
 8003136:	4b49      	ldr	r3, [pc, #292]	; (800325c <LCD_Init+0x254>)
 8003138:	889b      	ldrh	r3, [r3, #4]
 800313a:	f646 0204 	movw	r2, #26628	; 0x6804
 800313e:	4293      	cmp	r3, r2
 8003140:	d07e      	beq.n	8003240 <LCD_Init+0x238>
 8003142:	20d4      	movs	r0, #212	; 0xd4
 8003144:	f7fe fc38 	bl	80019b8 <LCD_WR_REG>
 8003148:	f7fe fc7e 	bl	8001a48 <LCD_RD_DATA>
 800314c:	f7fe fc7c 	bl	8001a48 <LCD_RD_DATA>
 8003150:	f7fe fc7a 	bl	8001a48 <LCD_RD_DATA>
 8003154:	4603      	mov	r3, r0
 8003156:	461a      	mov	r2, r3
 8003158:	4b40      	ldr	r3, [pc, #256]	; (800325c <LCD_Init+0x254>)
 800315a:	809a      	strh	r2, [r3, #4]
 800315c:	4b3f      	ldr	r3, [pc, #252]	; (800325c <LCD_Init+0x254>)
 800315e:	889b      	ldrh	r3, [r3, #4]
 8003160:	021b      	lsls	r3, r3, #8
 8003162:	b29a      	uxth	r2, r3
 8003164:	4b3d      	ldr	r3, [pc, #244]	; (800325c <LCD_Init+0x254>)
 8003166:	809a      	strh	r2, [r3, #4]
 8003168:	f7fe fc6e 	bl	8001a48 <LCD_RD_DATA>
 800316c:	4603      	mov	r3, r0
 800316e:	461a      	mov	r2, r3
 8003170:	4b3a      	ldr	r3, [pc, #232]	; (800325c <LCD_Init+0x254>)
 8003172:	889b      	ldrh	r3, [r3, #4]
 8003174:	4313      	orrs	r3, r2
 8003176:	b29a      	uxth	r2, r3
 8003178:	4b38      	ldr	r3, [pc, #224]	; (800325c <LCD_Init+0x254>)
 800317a:	809a      	strh	r2, [r3, #4]
 800317c:	4b37      	ldr	r3, [pc, #220]	; (800325c <LCD_Init+0x254>)
 800317e:	889b      	ldrh	r3, [r3, #4]
 8003180:	f245 3210 	movw	r2, #21264	; 0x5310
 8003184:	4293      	cmp	r3, r2
 8003186:	d05b      	beq.n	8003240 <LCD_Init+0x238>
 8003188:	f44f 405a 	mov.w	r0, #55808	; 0xda00
 800318c:	f7fe fc14 	bl	80019b8 <LCD_WR_REG>
 8003190:	f7fe fc5a 	bl	8001a48 <LCD_RD_DATA>
 8003194:	f44f 405b 	mov.w	r0, #56064	; 0xdb00
 8003198:	f7fe fc0e 	bl	80019b8 <LCD_WR_REG>
 800319c:	f7fe fc54 	bl	8001a48 <LCD_RD_DATA>
 80031a0:	4603      	mov	r3, r0
 80031a2:	461a      	mov	r2, r3
 80031a4:	4b2d      	ldr	r3, [pc, #180]	; (800325c <LCD_Init+0x254>)
 80031a6:	809a      	strh	r2, [r3, #4]
 80031a8:	4b2c      	ldr	r3, [pc, #176]	; (800325c <LCD_Init+0x254>)
 80031aa:	889b      	ldrh	r3, [r3, #4]
 80031ac:	021b      	lsls	r3, r3, #8
 80031ae:	b29a      	uxth	r2, r3
 80031b0:	4b2a      	ldr	r3, [pc, #168]	; (800325c <LCD_Init+0x254>)
 80031b2:	809a      	strh	r2, [r3, #4]
 80031b4:	f44f 405c 	mov.w	r0, #56320	; 0xdc00
 80031b8:	f7fe fbfe 	bl	80019b8 <LCD_WR_REG>
 80031bc:	f7fe fc44 	bl	8001a48 <LCD_RD_DATA>
 80031c0:	4603      	mov	r3, r0
 80031c2:	461a      	mov	r2, r3
 80031c4:	4b25      	ldr	r3, [pc, #148]	; (800325c <LCD_Init+0x254>)
 80031c6:	889b      	ldrh	r3, [r3, #4]
 80031c8:	4313      	orrs	r3, r2
 80031ca:	b29a      	uxth	r2, r3
 80031cc:	4b23      	ldr	r3, [pc, #140]	; (800325c <LCD_Init+0x254>)
 80031ce:	809a      	strh	r2, [r3, #4]
 80031d0:	4b22      	ldr	r3, [pc, #136]	; (800325c <LCD_Init+0x254>)
 80031d2:	889b      	ldrh	r3, [r3, #4]
 80031d4:	f5b3 4f00 	cmp.w	r3, #32768	; 0x8000
 80031d8:	d103      	bne.n	80031e2 <LCD_Init+0x1da>
 80031da:	4b20      	ldr	r3, [pc, #128]	; (800325c <LCD_Init+0x254>)
 80031dc:	f245 5210 	movw	r2, #21776	; 0x5510
 80031e0:	809a      	strh	r2, [r3, #4]
 80031e2:	4b1e      	ldr	r3, [pc, #120]	; (800325c <LCD_Init+0x254>)
 80031e4:	889b      	ldrh	r3, [r3, #4]
 80031e6:	f245 5210 	movw	r2, #21776	; 0x5510
 80031ea:	4293      	cmp	r3, r2
 80031ec:	d028      	beq.n	8003240 <LCD_Init+0x238>
 80031ee:	20a1      	movs	r0, #161	; 0xa1
 80031f0:	f7fe fbe2 	bl	80019b8 <LCD_WR_REG>
 80031f4:	f7fe fc28 	bl	8001a48 <LCD_RD_DATA>
 80031f8:	4603      	mov	r3, r0
 80031fa:	461a      	mov	r2, r3
 80031fc:	4b17      	ldr	r3, [pc, #92]	; (800325c <LCD_Init+0x254>)
 80031fe:	809a      	strh	r2, [r3, #4]
 8003200:	f7fe fc22 	bl	8001a48 <LCD_RD_DATA>
 8003204:	4603      	mov	r3, r0
 8003206:	461a      	mov	r2, r3
 8003208:	4b14      	ldr	r3, [pc, #80]	; (800325c <LCD_Init+0x254>)
 800320a:	809a      	strh	r2, [r3, #4]
 800320c:	4b13      	ldr	r3, [pc, #76]	; (800325c <LCD_Init+0x254>)
 800320e:	889b      	ldrh	r3, [r3, #4]
 8003210:	021b      	lsls	r3, r3, #8
 8003212:	b29a      	uxth	r2, r3
 8003214:	4b11      	ldr	r3, [pc, #68]	; (800325c <LCD_Init+0x254>)
 8003216:	809a      	strh	r2, [r3, #4]
 8003218:	f7fe fc16 	bl	8001a48 <LCD_RD_DATA>
 800321c:	4603      	mov	r3, r0
 800321e:	461a      	mov	r2, r3
 8003220:	4b0e      	ldr	r3, [pc, #56]	; (800325c <LCD_Init+0x254>)
 8003222:	889b      	ldrh	r3, [r3, #4]
 8003224:	4313      	orrs	r3, r2
 8003226:	b29a      	uxth	r2, r3
 8003228:	4b0c      	ldr	r3, [pc, #48]	; (800325c <LCD_Init+0x254>)
 800322a:	809a      	strh	r2, [r3, #4]
 800322c:	4b0b      	ldr	r3, [pc, #44]	; (800325c <LCD_Init+0x254>)
 800322e:	889b      	ldrh	r3, [r3, #4]
 8003230:	f245 7261 	movw	r2, #22369	; 0x5761
 8003234:	4293      	cmp	r3, r2
 8003236:	d103      	bne.n	8003240 <LCD_Init+0x238>
 8003238:	4b08      	ldr	r3, [pc, #32]	; (800325c <LCD_Init+0x254>)
 800323a:	f641 1263 	movw	r2, #6499	; 0x1963
 800323e:	809a      	strh	r2, [r3, #4]
 8003240:	4b06      	ldr	r3, [pc, #24]	; (800325c <LCD_Init+0x254>)
 8003242:	889b      	ldrh	r3, [r3, #4]
 8003244:	f249 3241 	movw	r2, #37697	; 0x9341
 8003248:	4293      	cmp	r3, r2
 800324a:	f040 811f 	bne.w	800348c <LCD_Init+0x484>
 800324e:	e007      	b.n	8003260 <LCD_Init+0x258>
 8003250:	40021000 	.word	0x40021000
 8003254:	40011000 	.word	0x40011000
 8003258:	40010c00 	.word	0x40010c00
 800325c:	20000030 	.word	0x20000030
 8003260:	20cf      	movs	r0, #207	; 0xcf
 8003262:	f7fe fba9 	bl	80019b8 <LCD_WR_REG>
 8003266:	2000      	movs	r0, #0
 8003268:	f7fe fbca 	bl	8001a00 <LCD_WR_DATAX>
 800326c:	20c1      	movs	r0, #193	; 0xc1
 800326e:	f7fe fbc7 	bl	8001a00 <LCD_WR_DATAX>
 8003272:	2030      	movs	r0, #48	; 0x30
 8003274:	f7fe fbc4 	bl	8001a00 <LCD_WR_DATAX>
 8003278:	20ed      	movs	r0, #237	; 0xed
 800327a:	f7fe fb9d 	bl	80019b8 <LCD_WR_REG>
 800327e:	2064      	movs	r0, #100	; 0x64
 8003280:	f7fe fbbe 	bl	8001a00 <LCD_WR_DATAX>
 8003284:	2003      	movs	r0, #3
 8003286:	f7fe fbbb 	bl	8001a00 <LCD_WR_DATAX>
 800328a:	2012      	movs	r0, #18
 800328c:	f7fe fbb8 	bl	8001a00 <LCD_WR_DATAX>
 8003290:	2081      	movs	r0, #129	; 0x81
 8003292:	f7fe fbb5 	bl	8001a00 <LCD_WR_DATAX>
 8003296:	20e8      	movs	r0, #232	; 0xe8
 8003298:	f7fe fb8e 	bl	80019b8 <LCD_WR_REG>
 800329c:	2085      	movs	r0, #133	; 0x85
 800329e:	f7fe fbaf 	bl	8001a00 <LCD_WR_DATAX>
 80032a2:	2010      	movs	r0, #16
 80032a4:	f7fe fbac 	bl	8001a00 <LCD_WR_DATAX>
 80032a8:	207a      	movs	r0, #122	; 0x7a
 80032aa:	f7fe fba9 	bl	8001a00 <LCD_WR_DATAX>
 80032ae:	20cb      	movs	r0, #203	; 0xcb
 80032b0:	f7fe fb82 	bl	80019b8 <LCD_WR_REG>
 80032b4:	2039      	movs	r0, #57	; 0x39
 80032b6:	f7fe fba3 	bl	8001a00 <LCD_WR_DATAX>
 80032ba:	202c      	movs	r0, #44	; 0x2c
 80032bc:	f7fe fba0 	bl	8001a00 <LCD_WR_DATAX>
 80032c0:	2000      	movs	r0, #0
 80032c2:	f7fe fb9d 	bl	8001a00 <LCD_WR_DATAX>
 80032c6:	2034      	movs	r0, #52	; 0x34
 80032c8:	f7fe fb9a 	bl	8001a00 <LCD_WR_DATAX>
 80032cc:	2002      	movs	r0, #2
 80032ce:	f7fe fb97 	bl	8001a00 <LCD_WR_DATAX>
 80032d2:	20f7      	movs	r0, #247	; 0xf7
 80032d4:	f7fe fb70 	bl	80019b8 <LCD_WR_REG>
 80032d8:	2020      	movs	r0, #32
 80032da:	f7fe fb91 	bl	8001a00 <LCD_WR_DATAX>
 80032de:	20ea      	movs	r0, #234	; 0xea
 80032e0:	f7fe fb6a 	bl	80019b8 <LCD_WR_REG>
 80032e4:	2000      	movs	r0, #0
 80032e6:	f7fe fb8b 	bl	8001a00 <LCD_WR_DATAX>
 80032ea:	2000      	movs	r0, #0
 80032ec:	f7fe fb88 	bl	8001a00 <LCD_WR_DATAX>
 80032f0:	20c0      	movs	r0, #192	; 0xc0
 80032f2:	f7fe fb61 	bl	80019b8 <LCD_WR_REG>
 80032f6:	201b      	movs	r0, #27
 80032f8:	f7fe fb82 	bl	8001a00 <LCD_WR_DATAX>
 80032fc:	20c1      	movs	r0, #193	; 0xc1
 80032fe:	f7fe fb5b 	bl	80019b8 <LCD_WR_REG>
 8003302:	2001      	movs	r0, #1
 8003304:	f7fe fb7c 	bl	8001a00 <LCD_WR_DATAX>
 8003308:	20c5      	movs	r0, #197	; 0xc5
 800330a:	f7fe fb55 	bl	80019b8 <LCD_WR_REG>
 800330e:	2030      	movs	r0, #48	; 0x30
 8003310:	f7fe fb76 	bl	8001a00 <LCD_WR_DATAX>
 8003314:	2030      	movs	r0, #48	; 0x30
 8003316:	f7fe fb73 	bl	8001a00 <LCD_WR_DATAX>
 800331a:	20c7      	movs	r0, #199	; 0xc7
 800331c:	f7fe fb4c 	bl	80019b8 <LCD_WR_REG>
 8003320:	20b7      	movs	r0, #183	; 0xb7
 8003322:	f7fe fb6d 	bl	8001a00 <LCD_WR_DATAX>
 8003326:	2036      	movs	r0, #54	; 0x36
 8003328:	f7fe fb46 	bl	80019b8 <LCD_WR_REG>
 800332c:	2048      	movs	r0, #72	; 0x48
 800332e:	f7fe fb67 	bl	8001a00 <LCD_WR_DATAX>
 8003332:	203a      	movs	r0, #58	; 0x3a
 8003334:	f7fe fb40 	bl	80019b8 <LCD_WR_REG>
 8003338:	2055      	movs	r0, #85	; 0x55
 800333a:	f7fe fb61 	bl	8001a00 <LCD_WR_DATAX>
 800333e:	20b1      	movs	r0, #177	; 0xb1
 8003340:	f7fe fb3a 	bl	80019b8 <LCD_WR_REG>
 8003344:	2000      	movs	r0, #0
 8003346:	f7fe fb5b 	bl	8001a00 <LCD_WR_DATAX>
 800334a:	201a      	movs	r0, #26
 800334c:	f7fe fb58 	bl	8001a00 <LCD_WR_DATAX>
 8003350:	20b6      	movs	r0, #182	; 0xb6
 8003352:	f7fe fb31 	bl	80019b8 <LCD_WR_REG>
 8003356:	200a      	movs	r0, #10
 8003358:	f7fe fb52 	bl	8001a00 <LCD_WR_DATAX>
 800335c:	20a2      	movs	r0, #162	; 0xa2
 800335e:	f7fe fb4f 	bl	8001a00 <LCD_WR_DATAX>
 8003362:	20f2      	movs	r0, #242	; 0xf2
 8003364:	f7fe fb28 	bl	80019b8 <LCD_WR_REG>
 8003368:	2000      	movs	r0, #0
 800336a:	f7fe fb49 	bl	8001a00 <LCD_WR_DATAX>
 800336e:	2026      	movs	r0, #38	; 0x26
 8003370:	f7fe fb22 	bl	80019b8 <LCD_WR_REG>
 8003374:	2001      	movs	r0, #1
 8003376:	f7fe fb43 	bl	8001a00 <LCD_WR_DATAX>
 800337a:	20e0      	movs	r0, #224	; 0xe0
 800337c:	f7fe fb1c 	bl	80019b8 <LCD_WR_REG>
 8003380:	200f      	movs	r0, #15
 8003382:	f7fe fb3d 	bl	8001a00 <LCD_WR_DATAX>
 8003386:	202a      	movs	r0, #42	; 0x2a
 8003388:	f7fe fb3a 	bl	8001a00 <LCD_WR_DATAX>
 800338c:	2028      	movs	r0, #40	; 0x28
 800338e:	f7fe fb37 	bl	8001a00 <LCD_WR_DATAX>
 8003392:	2008      	movs	r0, #8
 8003394:	f7fe fb34 	bl	8001a00 <LCD_WR_DATAX>
 8003398:	200e      	movs	r0, #14
 800339a:	f7fe fb31 	bl	8001a00 <LCD_WR_DATAX>
 800339e:	2008      	movs	r0, #8
 80033a0:	f7fe fb2e 	bl	8001a00 <LCD_WR_DATAX>
 80033a4:	2054      	movs	r0, #84	; 0x54
 80033a6:	f7fe fb2b 	bl	8001a00 <LCD_WR_DATAX>
 80033aa:	20a9      	movs	r0, #169	; 0xa9
 80033ac:	f7fe fb28 	bl	8001a00 <LCD_WR_DATAX>
 80033b0:	2043      	movs	r0, #67	; 0x43
 80033b2:	f7fe fb25 	bl	8001a00 <LCD_WR_DATAX>
 80033b6:	200a      	movs	r0, #10
 80033b8:	f7fe fb22 	bl	8001a00 <LCD_WR_DATAX>
 80033bc:	200f      	movs	r0, #15
 80033be:	f7fe fb1f 	bl	8001a00 <LCD_WR_DATAX>
 80033c2:	2000      	movs	r0, #0
 80033c4:	f7fe fb1c 	bl	8001a00 <LCD_WR_DATAX>
 80033c8:	2000      	movs	r0, #0
 80033ca:	f7fe fb19 	bl	8001a00 <LCD_WR_DATAX>
 80033ce:	2000      	movs	r0, #0
 80033d0:	f7fe fb16 	bl	8001a00 <LCD_WR_DATAX>
 80033d4:	2000      	movs	r0, #0
 80033d6:	f7fe fb13 	bl	8001a00 <LCD_WR_DATAX>
 80033da:	20e1      	movs	r0, #225	; 0xe1
 80033dc:	f7fe faec 	bl	80019b8 <LCD_WR_REG>
 80033e0:	2000      	movs	r0, #0
 80033e2:	f7fe fb0d 	bl	8001a00 <LCD_WR_DATAX>
 80033e6:	2015      	movs	r0, #21
 80033e8:	f7fe fb0a 	bl	8001a00 <LCD_WR_DATAX>
 80033ec:	2017      	movs	r0, #23
 80033ee:	f7fe fb07 	bl	8001a00 <LCD_WR_DATAX>
 80033f2:	2007      	movs	r0, #7
 80033f4:	f7fe fb04 	bl	8001a00 <LCD_WR_DATAX>
 80033f8:	2011      	movs	r0, #17
 80033fa:	f7fe fb01 	bl	8001a00 <LCD_WR_DATAX>
 80033fe:	2006      	movs	r0, #6
 8003400:	f7fe fafe 	bl	8001a00 <LCD_WR_DATAX>
 8003404:	202b      	movs	r0, #43	; 0x2b
 8003406:	f7fe fafb 	bl	8001a00 <LCD_WR_DATAX>
 800340a:	2056      	movs	r0, #86	; 0x56
 800340c:	f7fe faf8 	bl	8001a00 <LCD_WR_DATAX>
 8003410:	203c      	movs	r0, #60	; 0x3c
 8003412:	f7fe faf5 	bl	8001a00 <LCD_WR_DATAX>
 8003416:	2005      	movs	r0, #5
 8003418:	f7fe faf2 	bl	8001a00 <LCD_WR_DATAX>
 800341c:	2010      	movs	r0, #16
 800341e:	f7fe faef 	bl	8001a00 <LCD_WR_DATAX>
 8003422:	200f      	movs	r0, #15
 8003424:	f7fe faec 	bl	8001a00 <LCD_WR_DATAX>
 8003428:	203f      	movs	r0, #63	; 0x3f
 800342a:	f7fe fae9 	bl	8001a00 <LCD_WR_DATAX>
 800342e:	203f      	movs	r0, #63	; 0x3f
 8003430:	f7fe fae6 	bl	8001a00 <LCD_WR_DATAX>
 8003434:	200f      	movs	r0, #15
 8003436:	f7fe fae3 	bl	8001a00 <LCD_WR_DATAX>
 800343a:	202b      	movs	r0, #43	; 0x2b
 800343c:	f7fe fabc 	bl	80019b8 <LCD_WR_REG>
 8003440:	2000      	movs	r0, #0
 8003442:	f7fe fadd 	bl	8001a00 <LCD_WR_DATAX>
 8003446:	2000      	movs	r0, #0
 8003448:	f7fe fada 	bl	8001a00 <LCD_WR_DATAX>
 800344c:	2001      	movs	r0, #1
 800344e:	f7fe fad7 	bl	8001a00 <LCD_WR_DATAX>
 8003452:	203f      	movs	r0, #63	; 0x3f
 8003454:	f7fe fad4 	bl	8001a00 <LCD_WR_DATAX>
 8003458:	202a      	movs	r0, #42	; 0x2a
 800345a:	f7fe faad 	bl	80019b8 <LCD_WR_REG>
 800345e:	2000      	movs	r0, #0
 8003460:	f7fe face 	bl	8001a00 <LCD_WR_DATAX>
 8003464:	2000      	movs	r0, #0
 8003466:	f7fe facb 	bl	8001a00 <LCD_WR_DATAX>
 800346a:	2000      	movs	r0, #0
 800346c:	f7fe fac8 	bl	8001a00 <LCD_WR_DATAX>
 8003470:	20ef      	movs	r0, #239	; 0xef
 8003472:	f7fe fac5 	bl	8001a00 <LCD_WR_DATAX>
 8003476:	2011      	movs	r0, #17
 8003478:	f7fe fa9e 	bl	80019b8 <LCD_WR_REG>
 800347c:	2078      	movs	r0, #120	; 0x78
 800347e:	f7fd fb23 	bl	8000ac8 <HAL_Delay>
 8003482:	2029      	movs	r0, #41	; 0x29
 8003484:	f7fe fa98 	bl	80019b8 <LCD_WR_REG>
 8003488:	f003 bcd8 	b.w	8006e3c <LCD_Init+0x3e34>
 800348c:	4b58      	ldr	r3, [pc, #352]	; (80035f0 <LCD_Init+0x5e8>)
 800348e:	889b      	ldrh	r3, [r3, #4]
 8003490:	f646 0204 	movw	r2, #26628	; 0x6804
 8003494:	4293      	cmp	r3, r2
 8003496:	f040 80ad 	bne.w	80035f4 <LCD_Init+0x5ec>
 800349a:	2011      	movs	r0, #17
 800349c:	f7fe fa8c 	bl	80019b8 <LCD_WR_REG>
 80034a0:	2014      	movs	r0, #20
 80034a2:	f7fd fb11 	bl	8000ac8 <HAL_Delay>
 80034a6:	20d0      	movs	r0, #208	; 0xd0
 80034a8:	f7fe fa86 	bl	80019b8 <LCD_WR_REG>
 80034ac:	2007      	movs	r0, #7
 80034ae:	f7fe faa7 	bl	8001a00 <LCD_WR_DATAX>
 80034b2:	2042      	movs	r0, #66	; 0x42
 80034b4:	f7fe faa4 	bl	8001a00 <LCD_WR_DATAX>
 80034b8:	201d      	movs	r0, #29
 80034ba:	f7fe faa1 	bl	8001a00 <LCD_WR_DATAX>
 80034be:	20d1      	movs	r0, #209	; 0xd1
 80034c0:	f7fe fa7a 	bl	80019b8 <LCD_WR_REG>
 80034c4:	2000      	movs	r0, #0
 80034c6:	f7fe fa9b 	bl	8001a00 <LCD_WR_DATAX>
 80034ca:	201a      	movs	r0, #26
 80034cc:	f7fe fa98 	bl	8001a00 <LCD_WR_DATAX>
 80034d0:	2009      	movs	r0, #9
 80034d2:	f7fe fa95 	bl	8001a00 <LCD_WR_DATAX>
 80034d6:	20d2      	movs	r0, #210	; 0xd2
 80034d8:	f7fe fa6e 	bl	80019b8 <LCD_WR_REG>
 80034dc:	2001      	movs	r0, #1
 80034de:	f7fe fa8f 	bl	8001a00 <LCD_WR_DATAX>
 80034e2:	2022      	movs	r0, #34	; 0x22
 80034e4:	f7fe fa8c 	bl	8001a00 <LCD_WR_DATAX>
 80034e8:	20c0      	movs	r0, #192	; 0xc0
 80034ea:	f7fe fa65 	bl	80019b8 <LCD_WR_REG>
 80034ee:	2010      	movs	r0, #16
 80034f0:	f7fe fa86 	bl	8001a00 <LCD_WR_DATAX>
 80034f4:	203b      	movs	r0, #59	; 0x3b
 80034f6:	f7fe fa83 	bl	8001a00 <LCD_WR_DATAX>
 80034fa:	2000      	movs	r0, #0
 80034fc:	f7fe fa80 	bl	8001a00 <LCD_WR_DATAX>
 8003500:	2002      	movs	r0, #2
 8003502:	f7fe fa7d 	bl	8001a00 <LCD_WR_DATAX>
 8003506:	2011      	movs	r0, #17
 8003508:	f7fe fa7a 	bl	8001a00 <LCD_WR_DATAX>
 800350c:	20c5      	movs	r0, #197	; 0xc5
 800350e:	f7fe fa53 	bl	80019b8 <LCD_WR_REG>
 8003512:	2003      	movs	r0, #3
 8003514:	f7fe fa74 	bl	8001a00 <LCD_WR_DATAX>
 8003518:	20c8      	movs	r0, #200	; 0xc8
 800351a:	f7fe fa4d 	bl	80019b8 <LCD_WR_REG>
 800351e:	2000      	movs	r0, #0
 8003520:	f7fe fa6e 	bl	8001a00 <LCD_WR_DATAX>
 8003524:	2025      	movs	r0, #37	; 0x25
 8003526:	f7fe fa6b 	bl	8001a00 <LCD_WR_DATAX>
 800352a:	2021      	movs	r0, #33	; 0x21
 800352c:	f7fe fa68 	bl	8001a00 <LCD_WR_DATAX>
 8003530:	2005      	movs	r0, #5
 8003532:	f7fe fa65 	bl	8001a00 <LCD_WR_DATAX>
 8003536:	2000      	movs	r0, #0
 8003538:	f7fe fa62 	bl	8001a00 <LCD_WR_DATAX>
 800353c:	200a      	movs	r0, #10
 800353e:	f7fe fa5f 	bl	8001a00 <LCD_WR_DATAX>
 8003542:	2065      	movs	r0, #101	; 0x65
 8003544:	f7fe fa5c 	bl	8001a00 <LCD_WR_DATAX>
 8003548:	2025      	movs	r0, #37	; 0x25
 800354a:	f7fe fa59 	bl	8001a00 <LCD_WR_DATAX>
 800354e:	2077      	movs	r0, #119	; 0x77
 8003550:	f7fe fa56 	bl	8001a00 <LCD_WR_DATAX>
 8003554:	2050      	movs	r0, #80	; 0x50
 8003556:	f7fe fa53 	bl	8001a00 <LCD_WR_DATAX>
 800355a:	200f      	movs	r0, #15
 800355c:	f7fe fa50 	bl	8001a00 <LCD_WR_DATAX>
 8003560:	2000      	movs	r0, #0
 8003562:	f7fe fa4d 	bl	8001a00 <LCD_WR_DATAX>
 8003566:	20f8      	movs	r0, #248	; 0xf8
 8003568:	f7fe fa26 	bl	80019b8 <LCD_WR_REG>
 800356c:	2001      	movs	r0, #1
 800356e:	f7fe fa47 	bl	8001a00 <LCD_WR_DATAX>
 8003572:	20fe      	movs	r0, #254	; 0xfe
 8003574:	f7fe fa20 	bl	80019b8 <LCD_WR_REG>
 8003578:	2000      	movs	r0, #0
 800357a:	f7fe fa41 	bl	8001a00 <LCD_WR_DATAX>
 800357e:	2002      	movs	r0, #2
 8003580:	f7fe fa3e 	bl	8001a00 <LCD_WR_DATAX>
 8003584:	2020      	movs	r0, #32
 8003586:	f7fe fa17 	bl	80019b8 <LCD_WR_REG>
 800358a:	2036      	movs	r0, #54	; 0x36
 800358c:	f7fe fa14 	bl	80019b8 <LCD_WR_REG>
 8003590:	2008      	movs	r0, #8
 8003592:	f7fe fa35 	bl	8001a00 <LCD_WR_DATAX>
 8003596:	203a      	movs	r0, #58	; 0x3a
 8003598:	f7fe fa0e 	bl	80019b8 <LCD_WR_REG>
 800359c:	2055      	movs	r0, #85	; 0x55
 800359e:	f7fe fa2f 	bl	8001a00 <LCD_WR_DATAX>
 80035a2:	202b      	movs	r0, #43	; 0x2b
 80035a4:	f7fe fa08 	bl	80019b8 <LCD_WR_REG>
 80035a8:	2000      	movs	r0, #0
 80035aa:	f7fe fa29 	bl	8001a00 <LCD_WR_DATAX>
 80035ae:	2000      	movs	r0, #0
 80035b0:	f7fe fa26 	bl	8001a00 <LCD_WR_DATAX>
 80035b4:	2001      	movs	r0, #1
 80035b6:	f7fe fa23 	bl	8001a00 <LCD_WR_DATAX>
 80035ba:	203f      	movs	r0, #63	; 0x3f
 80035bc:	f7fe fa20 	bl	8001a00 <LCD_WR_DATAX>
 80035c0:	202a      	movs	r0, #42	; 0x2a
 80035c2:	f7fe f9f9 	bl	80019b8 <LCD_WR_REG>
 80035c6:	2000      	movs	r0, #0
 80035c8:	f7fe fa1a 	bl	8001a00 <LCD_WR_DATAX>
 80035cc:	2000      	movs	r0, #0
 80035ce:	f7fe fa17 	bl	8001a00 <LCD_WR_DATAX>
 80035d2:	2001      	movs	r0, #1
 80035d4:	f7fe fa14 	bl	8001a00 <LCD_WR_DATAX>
 80035d8:	20df      	movs	r0, #223	; 0xdf
 80035da:	f7fe fa11 	bl	8001a00 <LCD_WR_DATAX>
 80035de:	2078      	movs	r0, #120	; 0x78
 80035e0:	f7fd fa72 	bl	8000ac8 <HAL_Delay>
 80035e4:	2029      	movs	r0, #41	; 0x29
 80035e6:	f7fe f9e7 	bl	80019b8 <LCD_WR_REG>
 80035ea:	f003 bc27 	b.w	8006e3c <LCD_Init+0x3e34>
 80035ee:	bf00      	nop
 80035f0:	20000030 	.word	0x20000030
 80035f4:	4b03      	ldr	r3, [pc, #12]	; (8003604 <LCD_Init+0x5fc>)
 80035f6:	889b      	ldrh	r3, [r3, #4]
 80035f8:	f245 3210 	movw	r2, #21264	; 0x5310
 80035fc:	4293      	cmp	r3, r2
 80035fe:	f040 877c 	bne.w	80044fa <LCD_Init+0x14f2>
 8003602:	e001      	b.n	8003608 <LCD_Init+0x600>
 8003604:	20000030 	.word	0x20000030
 8003608:	20ed      	movs	r0, #237	; 0xed
 800360a:	f7fe f9d5 	bl	80019b8 <LCD_WR_REG>
 800360e:	2001      	movs	r0, #1
 8003610:	f7fe f9f6 	bl	8001a00 <LCD_WR_DATAX>
 8003614:	20fe      	movs	r0, #254	; 0xfe
 8003616:	f7fe f9f3 	bl	8001a00 <LCD_WR_DATAX>
 800361a:	20ee      	movs	r0, #238	; 0xee
 800361c:	f7fe f9cc 	bl	80019b8 <LCD_WR_REG>
 8003620:	20de      	movs	r0, #222	; 0xde
 8003622:	f7fe f9ed 	bl	8001a00 <LCD_WR_DATAX>
 8003626:	2021      	movs	r0, #33	; 0x21
 8003628:	f7fe f9ea 	bl	8001a00 <LCD_WR_DATAX>
 800362c:	20f1      	movs	r0, #241	; 0xf1
 800362e:	f7fe f9c3 	bl	80019b8 <LCD_WR_REG>
 8003632:	2001      	movs	r0, #1
 8003634:	f7fe f9e4 	bl	8001a00 <LCD_WR_DATAX>
 8003638:	20df      	movs	r0, #223	; 0xdf
 800363a:	f7fe f9bd 	bl	80019b8 <LCD_WR_REG>
 800363e:	2010      	movs	r0, #16
 8003640:	f7fe f9de 	bl	8001a00 <LCD_WR_DATAX>
 8003644:	20c4      	movs	r0, #196	; 0xc4
 8003646:	f7fe f9b7 	bl	80019b8 <LCD_WR_REG>
 800364a:	208f      	movs	r0, #143	; 0x8f
 800364c:	f7fe f9d8 	bl	8001a00 <LCD_WR_DATAX>
 8003650:	20c6      	movs	r0, #198	; 0xc6
 8003652:	f7fe f9b1 	bl	80019b8 <LCD_WR_REG>
 8003656:	2000      	movs	r0, #0
 8003658:	f7fe f9d2 	bl	8001a00 <LCD_WR_DATAX>
 800365c:	20e2      	movs	r0, #226	; 0xe2
 800365e:	f7fe f9cf 	bl	8001a00 <LCD_WR_DATAX>
 8003662:	20e2      	movs	r0, #226	; 0xe2
 8003664:	f7fe f9cc 	bl	8001a00 <LCD_WR_DATAX>
 8003668:	20e2      	movs	r0, #226	; 0xe2
 800366a:	f7fe f9c9 	bl	8001a00 <LCD_WR_DATAX>
 800366e:	20bf      	movs	r0, #191	; 0xbf
 8003670:	f7fe f9a2 	bl	80019b8 <LCD_WR_REG>
 8003674:	20aa      	movs	r0, #170	; 0xaa
 8003676:	f7fe f9c3 	bl	8001a00 <LCD_WR_DATAX>
 800367a:	20b0      	movs	r0, #176	; 0xb0
 800367c:	f7fe f99c 	bl	80019b8 <LCD_WR_REG>
 8003680:	200d      	movs	r0, #13
 8003682:	f7fe f9bd 	bl	8001a00 <LCD_WR_DATAX>
 8003686:	2000      	movs	r0, #0
 8003688:	f7fe f9ba 	bl	8001a00 <LCD_WR_DATAX>
 800368c:	200d      	movs	r0, #13
 800368e:	f7fe f9b7 	bl	8001a00 <LCD_WR_DATAX>
 8003692:	2000      	movs	r0, #0
 8003694:	f7fe f9b4 	bl	8001a00 <LCD_WR_DATAX>
 8003698:	2011      	movs	r0, #17
 800369a:	f7fe f9b1 	bl	8001a00 <LCD_WR_DATAX>
 800369e:	2000      	movs	r0, #0
 80036a0:	f7fe f9ae 	bl	8001a00 <LCD_WR_DATAX>
 80036a4:	2019      	movs	r0, #25
 80036a6:	f7fe f9ab 	bl	8001a00 <LCD_WR_DATAX>
 80036aa:	2000      	movs	r0, #0
 80036ac:	f7fe f9a8 	bl	8001a00 <LCD_WR_DATAX>
 80036b0:	2021      	movs	r0, #33	; 0x21
 80036b2:	f7fe f9a5 	bl	8001a00 <LCD_WR_DATAX>
 80036b6:	2000      	movs	r0, #0
 80036b8:	f7fe f9a2 	bl	8001a00 <LCD_WR_DATAX>
 80036bc:	202d      	movs	r0, #45	; 0x2d
 80036be:	f7fe f99f 	bl	8001a00 <LCD_WR_DATAX>
 80036c2:	2000      	movs	r0, #0
 80036c4:	f7fe f99c 	bl	8001a00 <LCD_WR_DATAX>
 80036c8:	203d      	movs	r0, #61	; 0x3d
 80036ca:	f7fe f999 	bl	8001a00 <LCD_WR_DATAX>
 80036ce:	2000      	movs	r0, #0
 80036d0:	f7fe f996 	bl	8001a00 <LCD_WR_DATAX>
 80036d4:	205d      	movs	r0, #93	; 0x5d
 80036d6:	f7fe f993 	bl	8001a00 <LCD_WR_DATAX>
 80036da:	2000      	movs	r0, #0
 80036dc:	f7fe f990 	bl	8001a00 <LCD_WR_DATAX>
 80036e0:	205d      	movs	r0, #93	; 0x5d
 80036e2:	f7fe f98d 	bl	8001a00 <LCD_WR_DATAX>
 80036e6:	2000      	movs	r0, #0
 80036e8:	f7fe f98a 	bl	8001a00 <LCD_WR_DATAX>
 80036ec:	20b1      	movs	r0, #177	; 0xb1
 80036ee:	f7fe f963 	bl	80019b8 <LCD_WR_REG>
 80036f2:	2080      	movs	r0, #128	; 0x80
 80036f4:	f7fe f984 	bl	8001a00 <LCD_WR_DATAX>
 80036f8:	2000      	movs	r0, #0
 80036fa:	f7fe f981 	bl	8001a00 <LCD_WR_DATAX>
 80036fe:	208b      	movs	r0, #139	; 0x8b
 8003700:	f7fe f97e 	bl	8001a00 <LCD_WR_DATAX>
 8003704:	2000      	movs	r0, #0
 8003706:	f7fe f97b 	bl	8001a00 <LCD_WR_DATAX>
 800370a:	2096      	movs	r0, #150	; 0x96
 800370c:	f7fe f978 	bl	8001a00 <LCD_WR_DATAX>
 8003710:	2000      	movs	r0, #0
 8003712:	f7fe f975 	bl	8001a00 <LCD_WR_DATAX>
 8003716:	20b2      	movs	r0, #178	; 0xb2
 8003718:	f7fe f94e 	bl	80019b8 <LCD_WR_REG>
 800371c:	2000      	movs	r0, #0
 800371e:	f7fe f96f 	bl	8001a00 <LCD_WR_DATAX>
 8003722:	2000      	movs	r0, #0
 8003724:	f7fe f96c 	bl	8001a00 <LCD_WR_DATAX>
 8003728:	2002      	movs	r0, #2
 800372a:	f7fe f969 	bl	8001a00 <LCD_WR_DATAX>
 800372e:	2000      	movs	r0, #0
 8003730:	f7fe f966 	bl	8001a00 <LCD_WR_DATAX>
 8003734:	2003      	movs	r0, #3
 8003736:	f7fe f963 	bl	8001a00 <LCD_WR_DATAX>
 800373a:	2000      	movs	r0, #0
 800373c:	f7fe f960 	bl	8001a00 <LCD_WR_DATAX>
 8003740:	20b3      	movs	r0, #179	; 0xb3
 8003742:	f7fe f939 	bl	80019b8 <LCD_WR_REG>
 8003746:	2000      	movs	r0, #0
 8003748:	f7fe f95a 	bl	8001a00 <LCD_WR_DATAX>
 800374c:	2000      	movs	r0, #0
 800374e:	f7fe f957 	bl	8001a00 <LCD_WR_DATAX>
 8003752:	2000      	movs	r0, #0
 8003754:	f7fe f954 	bl	8001a00 <LCD_WR_DATAX>
 8003758:	2000      	movs	r0, #0
 800375a:	f7fe f951 	bl	8001a00 <LCD_WR_DATAX>
 800375e:	2000      	movs	r0, #0
 8003760:	f7fe f94e 	bl	8001a00 <LCD_WR_DATAX>
 8003764:	2000      	movs	r0, #0
 8003766:	f7fe f94b 	bl	8001a00 <LCD_WR_DATAX>
 800376a:	2000      	movs	r0, #0
 800376c:	f7fe f948 	bl	8001a00 <LCD_WR_DATAX>
 8003770:	2000      	movs	r0, #0
 8003772:	f7fe f945 	bl	8001a00 <LCD_WR_DATAX>
 8003776:	2000      	movs	r0, #0
 8003778:	f7fe f942 	bl	8001a00 <LCD_WR_DATAX>
 800377c:	2000      	movs	r0, #0
 800377e:	f7fe f93f 	bl	8001a00 <LCD_WR_DATAX>
 8003782:	2000      	movs	r0, #0
 8003784:	f7fe f93c 	bl	8001a00 <LCD_WR_DATAX>
 8003788:	2000      	movs	r0, #0
 800378a:	f7fe f939 	bl	8001a00 <LCD_WR_DATAX>
 800378e:	2000      	movs	r0, #0
 8003790:	f7fe f936 	bl	8001a00 <LCD_WR_DATAX>
 8003794:	2000      	movs	r0, #0
 8003796:	f7fe f933 	bl	8001a00 <LCD_WR_DATAX>
 800379a:	2000      	movs	r0, #0
 800379c:	f7fe f930 	bl	8001a00 <LCD_WR_DATAX>
 80037a0:	2000      	movs	r0, #0
 80037a2:	f7fe f92d 	bl	8001a00 <LCD_WR_DATAX>
 80037a6:	2000      	movs	r0, #0
 80037a8:	f7fe f92a 	bl	8001a00 <LCD_WR_DATAX>
 80037ac:	2000      	movs	r0, #0
 80037ae:	f7fe f927 	bl	8001a00 <LCD_WR_DATAX>
 80037b2:	2000      	movs	r0, #0
 80037b4:	f7fe f924 	bl	8001a00 <LCD_WR_DATAX>
 80037b8:	2000      	movs	r0, #0
 80037ba:	f7fe f921 	bl	8001a00 <LCD_WR_DATAX>
 80037be:	2000      	movs	r0, #0
 80037c0:	f7fe f91e 	bl	8001a00 <LCD_WR_DATAX>
 80037c4:	2000      	movs	r0, #0
 80037c6:	f7fe f91b 	bl	8001a00 <LCD_WR_DATAX>
 80037ca:	2000      	movs	r0, #0
 80037cc:	f7fe f918 	bl	8001a00 <LCD_WR_DATAX>
 80037d0:	2000      	movs	r0, #0
 80037d2:	f7fe f915 	bl	8001a00 <LCD_WR_DATAX>
 80037d6:	20b4      	movs	r0, #180	; 0xb4
 80037d8:	f7fe f8ee 	bl	80019b8 <LCD_WR_REG>
 80037dc:	208b      	movs	r0, #139	; 0x8b
 80037de:	f7fe f90f 	bl	8001a00 <LCD_WR_DATAX>
 80037e2:	2000      	movs	r0, #0
 80037e4:	f7fe f90c 	bl	8001a00 <LCD_WR_DATAX>
 80037e8:	2096      	movs	r0, #150	; 0x96
 80037ea:	f7fe f909 	bl	8001a00 <LCD_WR_DATAX>
 80037ee:	2000      	movs	r0, #0
 80037f0:	f7fe f906 	bl	8001a00 <LCD_WR_DATAX>
 80037f4:	20a1      	movs	r0, #161	; 0xa1
 80037f6:	f7fe f903 	bl	8001a00 <LCD_WR_DATAX>
 80037fa:	2000      	movs	r0, #0
 80037fc:	f7fe f900 	bl	8001a00 <LCD_WR_DATAX>
 8003800:	20b5      	movs	r0, #181	; 0xb5
 8003802:	f7fe f8d9 	bl	80019b8 <LCD_WR_REG>
 8003806:	2002      	movs	r0, #2
 8003808:	f7fe f8fa 	bl	8001a00 <LCD_WR_DATAX>
 800380c:	2000      	movs	r0, #0
 800380e:	f7fe f8f7 	bl	8001a00 <LCD_WR_DATAX>
 8003812:	2003      	movs	r0, #3
 8003814:	f7fe f8f4 	bl	8001a00 <LCD_WR_DATAX>
 8003818:	2000      	movs	r0, #0
 800381a:	f7fe f8f1 	bl	8001a00 <LCD_WR_DATAX>
 800381e:	2004      	movs	r0, #4
 8003820:	f7fe f8ee 	bl	8001a00 <LCD_WR_DATAX>
 8003824:	2000      	movs	r0, #0
 8003826:	f7fe f8eb 	bl	8001a00 <LCD_WR_DATAX>
 800382a:	20b6      	movs	r0, #182	; 0xb6
 800382c:	f7fe f8c4 	bl	80019b8 <LCD_WR_REG>
 8003830:	2000      	movs	r0, #0
 8003832:	f7fe f8e5 	bl	8001a00 <LCD_WR_DATAX>
 8003836:	2000      	movs	r0, #0
 8003838:	f7fe f8e2 	bl	8001a00 <LCD_WR_DATAX>
 800383c:	20b7      	movs	r0, #183	; 0xb7
 800383e:	f7fe f8bb 	bl	80019b8 <LCD_WR_REG>
 8003842:	2000      	movs	r0, #0
 8003844:	f7fe f8dc 	bl	8001a00 <LCD_WR_DATAX>
 8003848:	2000      	movs	r0, #0
 800384a:	f7fe f8d9 	bl	8001a00 <LCD_WR_DATAX>
 800384e:	203f      	movs	r0, #63	; 0x3f
 8003850:	f7fe f8d6 	bl	8001a00 <LCD_WR_DATAX>
 8003854:	2000      	movs	r0, #0
 8003856:	f7fe f8d3 	bl	8001a00 <LCD_WR_DATAX>
 800385a:	205e      	movs	r0, #94	; 0x5e
 800385c:	f7fe f8d0 	bl	8001a00 <LCD_WR_DATAX>
 8003860:	2000      	movs	r0, #0
 8003862:	f7fe f8cd 	bl	8001a00 <LCD_WR_DATAX>
 8003866:	2064      	movs	r0, #100	; 0x64
 8003868:	f7fe f8ca 	bl	8001a00 <LCD_WR_DATAX>
 800386c:	2000      	movs	r0, #0
 800386e:	f7fe f8c7 	bl	8001a00 <LCD_WR_DATAX>
 8003872:	208c      	movs	r0, #140	; 0x8c
 8003874:	f7fe f8c4 	bl	8001a00 <LCD_WR_DATAX>
 8003878:	2000      	movs	r0, #0
 800387a:	f7fe f8c1 	bl	8001a00 <LCD_WR_DATAX>
 800387e:	20ac      	movs	r0, #172	; 0xac
 8003880:	f7fe f8be 	bl	8001a00 <LCD_WR_DATAX>
 8003884:	2000      	movs	r0, #0
 8003886:	f7fe f8bb 	bl	8001a00 <LCD_WR_DATAX>
 800388a:	20dc      	movs	r0, #220	; 0xdc
 800388c:	f7fe f8b8 	bl	8001a00 <LCD_WR_DATAX>
 8003890:	2000      	movs	r0, #0
 8003892:	f7fe f8b5 	bl	8001a00 <LCD_WR_DATAX>
 8003896:	2070      	movs	r0, #112	; 0x70
 8003898:	f7fe f8b2 	bl	8001a00 <LCD_WR_DATAX>
 800389c:	2000      	movs	r0, #0
 800389e:	f7fe f8af 	bl	8001a00 <LCD_WR_DATAX>
 80038a2:	2090      	movs	r0, #144	; 0x90
 80038a4:	f7fe f8ac 	bl	8001a00 <LCD_WR_DATAX>
 80038a8:	2000      	movs	r0, #0
 80038aa:	f7fe f8a9 	bl	8001a00 <LCD_WR_DATAX>
 80038ae:	20eb      	movs	r0, #235	; 0xeb
 80038b0:	f7fe f8a6 	bl	8001a00 <LCD_WR_DATAX>
 80038b4:	2000      	movs	r0, #0
 80038b6:	f7fe f8a3 	bl	8001a00 <LCD_WR_DATAX>
 80038ba:	20dc      	movs	r0, #220	; 0xdc
 80038bc:	f7fe f8a0 	bl	8001a00 <LCD_WR_DATAX>
 80038c0:	2000      	movs	r0, #0
 80038c2:	f7fe f89d 	bl	8001a00 <LCD_WR_DATAX>
 80038c6:	20b8      	movs	r0, #184	; 0xb8
 80038c8:	f7fe f876 	bl	80019b8 <LCD_WR_REG>
 80038cc:	2000      	movs	r0, #0
 80038ce:	f7fe f897 	bl	8001a00 <LCD_WR_DATAX>
 80038d2:	2000      	movs	r0, #0
 80038d4:	f7fe f894 	bl	8001a00 <LCD_WR_DATAX>
 80038d8:	2000      	movs	r0, #0
 80038da:	f7fe f891 	bl	8001a00 <LCD_WR_DATAX>
 80038de:	2000      	movs	r0, #0
 80038e0:	f7fe f88e 	bl	8001a00 <LCD_WR_DATAX>
 80038e4:	2000      	movs	r0, #0
 80038e6:	f7fe f88b 	bl	8001a00 <LCD_WR_DATAX>
 80038ea:	2000      	movs	r0, #0
 80038ec:	f7fe f888 	bl	8001a00 <LCD_WR_DATAX>
 80038f0:	2000      	movs	r0, #0
 80038f2:	f7fe f885 	bl	8001a00 <LCD_WR_DATAX>
 80038f6:	2000      	movs	r0, #0
 80038f8:	f7fe f882 	bl	8001a00 <LCD_WR_DATAX>
 80038fc:	20ba      	movs	r0, #186	; 0xba
 80038fe:	f7fe f85b 	bl	80019b8 <LCD_WR_REG>
 8003902:	2024      	movs	r0, #36	; 0x24
 8003904:	f7fe f87c 	bl	8001a00 <LCD_WR_DATAX>
 8003908:	2000      	movs	r0, #0
 800390a:	f7fe f879 	bl	8001a00 <LCD_WR_DATAX>
 800390e:	2000      	movs	r0, #0
 8003910:	f7fe f876 	bl	8001a00 <LCD_WR_DATAX>
 8003914:	2000      	movs	r0, #0
 8003916:	f7fe f873 	bl	8001a00 <LCD_WR_DATAX>
 800391a:	20c1      	movs	r0, #193	; 0xc1
 800391c:	f7fe f84c 	bl	80019b8 <LCD_WR_REG>
 8003920:	2020      	movs	r0, #32
 8003922:	f7fe f86d 	bl	8001a00 <LCD_WR_DATAX>
 8003926:	2000      	movs	r0, #0
 8003928:	f7fe f86a 	bl	8001a00 <LCD_WR_DATAX>
 800392c:	2054      	movs	r0, #84	; 0x54
 800392e:	f7fe f867 	bl	8001a00 <LCD_WR_DATAX>
 8003932:	2000      	movs	r0, #0
 8003934:	f7fe f864 	bl	8001a00 <LCD_WR_DATAX>
 8003938:	20ff      	movs	r0, #255	; 0xff
 800393a:	f7fe f861 	bl	8001a00 <LCD_WR_DATAX>
 800393e:	2000      	movs	r0, #0
 8003940:	f7fe f85e 	bl	8001a00 <LCD_WR_DATAX>
 8003944:	20c2      	movs	r0, #194	; 0xc2
 8003946:	f7fe f837 	bl	80019b8 <LCD_WR_REG>
 800394a:	200a      	movs	r0, #10
 800394c:	f7fe f858 	bl	8001a00 <LCD_WR_DATAX>
 8003950:	2000      	movs	r0, #0
 8003952:	f7fe f855 	bl	8001a00 <LCD_WR_DATAX>
 8003956:	2004      	movs	r0, #4
 8003958:	f7fe f852 	bl	8001a00 <LCD_WR_DATAX>
 800395c:	2000      	movs	r0, #0
 800395e:	f7fe f84f 	bl	8001a00 <LCD_WR_DATAX>
 8003962:	20c3      	movs	r0, #195	; 0xc3
 8003964:	f7fe f828 	bl	80019b8 <LCD_WR_REG>
 8003968:	203c      	movs	r0, #60	; 0x3c
 800396a:	f7fe f849 	bl	8001a00 <LCD_WR_DATAX>
 800396e:	2000      	movs	r0, #0
 8003970:	f7fe f846 	bl	8001a00 <LCD_WR_DATAX>
 8003974:	203a      	movs	r0, #58	; 0x3a
 8003976:	f7fe f843 	bl	8001a00 <LCD_WR_DATAX>
 800397a:	2000      	movs	r0, #0
 800397c:	f7fe f840 	bl	8001a00 <LCD_WR_DATAX>
 8003980:	2039      	movs	r0, #57	; 0x39
 8003982:	f7fe f83d 	bl	8001a00 <LCD_WR_DATAX>
 8003986:	2000      	movs	r0, #0
 8003988:	f7fe f83a 	bl	8001a00 <LCD_WR_DATAX>
 800398c:	2037      	movs	r0, #55	; 0x37
 800398e:	f7fe f837 	bl	8001a00 <LCD_WR_DATAX>
 8003992:	2000      	movs	r0, #0
 8003994:	f7fe f834 	bl	8001a00 <LCD_WR_DATAX>
 8003998:	203c      	movs	r0, #60	; 0x3c
 800399a:	f7fe f831 	bl	8001a00 <LCD_WR_DATAX>
 800399e:	2000      	movs	r0, #0
 80039a0:	f7fe f82e 	bl	8001a00 <LCD_WR_DATAX>
 80039a4:	2036      	movs	r0, #54	; 0x36
 80039a6:	f7fe f82b 	bl	8001a00 <LCD_WR_DATAX>
 80039aa:	2000      	movs	r0, #0
 80039ac:	f7fe f828 	bl	8001a00 <LCD_WR_DATAX>
 80039b0:	2032      	movs	r0, #50	; 0x32
 80039b2:	f7fe f825 	bl	8001a00 <LCD_WR_DATAX>
 80039b6:	2000      	movs	r0, #0
 80039b8:	f7fe f822 	bl	8001a00 <LCD_WR_DATAX>
 80039bc:	202f      	movs	r0, #47	; 0x2f
 80039be:	f7fe f81f 	bl	8001a00 <LCD_WR_DATAX>
 80039c2:	2000      	movs	r0, #0
 80039c4:	f7fe f81c 	bl	8001a00 <LCD_WR_DATAX>
 80039c8:	202c      	movs	r0, #44	; 0x2c
 80039ca:	f7fe f819 	bl	8001a00 <LCD_WR_DATAX>
 80039ce:	2000      	movs	r0, #0
 80039d0:	f7fe f816 	bl	8001a00 <LCD_WR_DATAX>
 80039d4:	2029      	movs	r0, #41	; 0x29
 80039d6:	f7fe f813 	bl	8001a00 <LCD_WR_DATAX>
 80039da:	2000      	movs	r0, #0
 80039dc:	f7fe f810 	bl	8001a00 <LCD_WR_DATAX>
 80039e0:	2026      	movs	r0, #38	; 0x26
 80039e2:	f7fe f80d 	bl	8001a00 <LCD_WR_DATAX>
 80039e6:	2000      	movs	r0, #0
 80039e8:	f7fe f80a 	bl	8001a00 <LCD_WR_DATAX>
 80039ec:	2024      	movs	r0, #36	; 0x24
 80039ee:	f7fe f807 	bl	8001a00 <LCD_WR_DATAX>
 80039f2:	2000      	movs	r0, #0
 80039f4:	f7fe f804 	bl	8001a00 <LCD_WR_DATAX>
 80039f8:	2024      	movs	r0, #36	; 0x24
 80039fa:	f7fe f801 	bl	8001a00 <LCD_WR_DATAX>
 80039fe:	2000      	movs	r0, #0
 8003a00:	f7fd fffe 	bl	8001a00 <LCD_WR_DATAX>
 8003a04:	2023      	movs	r0, #35	; 0x23
 8003a06:	f7fd fffb 	bl	8001a00 <LCD_WR_DATAX>
 8003a0a:	2000      	movs	r0, #0
 8003a0c:	f7fd fff8 	bl	8001a00 <LCD_WR_DATAX>
 8003a10:	203c      	movs	r0, #60	; 0x3c
 8003a12:	f7fd fff5 	bl	8001a00 <LCD_WR_DATAX>
 8003a16:	2000      	movs	r0, #0
 8003a18:	f7fd fff2 	bl	8001a00 <LCD_WR_DATAX>
 8003a1c:	2036      	movs	r0, #54	; 0x36
 8003a1e:	f7fd ffef 	bl	8001a00 <LCD_WR_DATAX>
 8003a22:	2000      	movs	r0, #0
 8003a24:	f7fd ffec 	bl	8001a00 <LCD_WR_DATAX>
 8003a28:	2032      	movs	r0, #50	; 0x32
 8003a2a:	f7fd ffe9 	bl	8001a00 <LCD_WR_DATAX>
 8003a2e:	2000      	movs	r0, #0
 8003a30:	f7fd ffe6 	bl	8001a00 <LCD_WR_DATAX>
 8003a34:	202f      	movs	r0, #47	; 0x2f
 8003a36:	f7fd ffe3 	bl	8001a00 <LCD_WR_DATAX>
 8003a3a:	2000      	movs	r0, #0
 8003a3c:	f7fd ffe0 	bl	8001a00 <LCD_WR_DATAX>
 8003a40:	202c      	movs	r0, #44	; 0x2c
 8003a42:	f7fd ffdd 	bl	8001a00 <LCD_WR_DATAX>
 8003a46:	2000      	movs	r0, #0
 8003a48:	f7fd ffda 	bl	8001a00 <LCD_WR_DATAX>
 8003a4c:	2029      	movs	r0, #41	; 0x29
 8003a4e:	f7fd ffd7 	bl	8001a00 <LCD_WR_DATAX>
 8003a52:	2000      	movs	r0, #0
 8003a54:	f7fd ffd4 	bl	8001a00 <LCD_WR_DATAX>
 8003a58:	2026      	movs	r0, #38	; 0x26
 8003a5a:	f7fd ffd1 	bl	8001a00 <LCD_WR_DATAX>
 8003a5e:	2000      	movs	r0, #0
 8003a60:	f7fd ffce 	bl	8001a00 <LCD_WR_DATAX>
 8003a64:	2024      	movs	r0, #36	; 0x24
 8003a66:	f7fd ffcb 	bl	8001a00 <LCD_WR_DATAX>
 8003a6a:	2000      	movs	r0, #0
 8003a6c:	f7fd ffc8 	bl	8001a00 <LCD_WR_DATAX>
 8003a70:	2024      	movs	r0, #36	; 0x24
 8003a72:	f7fd ffc5 	bl	8001a00 <LCD_WR_DATAX>
 8003a76:	2000      	movs	r0, #0
 8003a78:	f7fd ffc2 	bl	8001a00 <LCD_WR_DATAX>
 8003a7c:	2023      	movs	r0, #35	; 0x23
 8003a7e:	f7fd ffbf 	bl	8001a00 <LCD_WR_DATAX>
 8003a82:	2000      	movs	r0, #0
 8003a84:	f7fd ffbc 	bl	8001a00 <LCD_WR_DATAX>
 8003a88:	20c4      	movs	r0, #196	; 0xc4
 8003a8a:	f7fd ff95 	bl	80019b8 <LCD_WR_REG>
 8003a8e:	2062      	movs	r0, #98	; 0x62
 8003a90:	f7fd ffb6 	bl	8001a00 <LCD_WR_DATAX>
 8003a94:	2000      	movs	r0, #0
 8003a96:	f7fd ffb3 	bl	8001a00 <LCD_WR_DATAX>
 8003a9a:	2005      	movs	r0, #5
 8003a9c:	f7fd ffb0 	bl	8001a00 <LCD_WR_DATAX>
 8003aa0:	2000      	movs	r0, #0
 8003aa2:	f7fd ffad 	bl	8001a00 <LCD_WR_DATAX>
 8003aa6:	2084      	movs	r0, #132	; 0x84
 8003aa8:	f7fd ffaa 	bl	8001a00 <LCD_WR_DATAX>
 8003aac:	2000      	movs	r0, #0
 8003aae:	f7fd ffa7 	bl	8001a00 <LCD_WR_DATAX>
 8003ab2:	20f0      	movs	r0, #240	; 0xf0
 8003ab4:	f7fd ffa4 	bl	8001a00 <LCD_WR_DATAX>
 8003ab8:	2000      	movs	r0, #0
 8003aba:	f7fd ffa1 	bl	8001a00 <LCD_WR_DATAX>
 8003abe:	2018      	movs	r0, #24
 8003ac0:	f7fd ff9e 	bl	8001a00 <LCD_WR_DATAX>
 8003ac4:	2000      	movs	r0, #0
 8003ac6:	f7fd ff9b 	bl	8001a00 <LCD_WR_DATAX>
 8003aca:	20a4      	movs	r0, #164	; 0xa4
 8003acc:	f7fd ff98 	bl	8001a00 <LCD_WR_DATAX>
 8003ad0:	2000      	movs	r0, #0
 8003ad2:	f7fd ff95 	bl	8001a00 <LCD_WR_DATAX>
 8003ad6:	2018      	movs	r0, #24
 8003ad8:	f7fd ff92 	bl	8001a00 <LCD_WR_DATAX>
 8003adc:	2000      	movs	r0, #0
 8003ade:	f7fd ff8f 	bl	8001a00 <LCD_WR_DATAX>
 8003ae2:	2050      	movs	r0, #80	; 0x50
 8003ae4:	f7fd ff8c 	bl	8001a00 <LCD_WR_DATAX>
 8003ae8:	2000      	movs	r0, #0
 8003aea:	f7fd ff89 	bl	8001a00 <LCD_WR_DATAX>
 8003aee:	200c      	movs	r0, #12
 8003af0:	f7fd ff86 	bl	8001a00 <LCD_WR_DATAX>
 8003af4:	2000      	movs	r0, #0
 8003af6:	f7fd ff83 	bl	8001a00 <LCD_WR_DATAX>
 8003afa:	2017      	movs	r0, #23
 8003afc:	f7fd ff80 	bl	8001a00 <LCD_WR_DATAX>
 8003b00:	2000      	movs	r0, #0
 8003b02:	f7fd ff7d 	bl	8001a00 <LCD_WR_DATAX>
 8003b06:	2095      	movs	r0, #149	; 0x95
 8003b08:	f7fd ff7a 	bl	8001a00 <LCD_WR_DATAX>
 8003b0c:	2000      	movs	r0, #0
 8003b0e:	f7fd ff77 	bl	8001a00 <LCD_WR_DATAX>
 8003b12:	20f3      	movs	r0, #243	; 0xf3
 8003b14:	f7fd ff74 	bl	8001a00 <LCD_WR_DATAX>
 8003b18:	2000      	movs	r0, #0
 8003b1a:	f7fd ff71 	bl	8001a00 <LCD_WR_DATAX>
 8003b1e:	20e6      	movs	r0, #230	; 0xe6
 8003b20:	f7fd ff6e 	bl	8001a00 <LCD_WR_DATAX>
 8003b24:	2000      	movs	r0, #0
 8003b26:	f7fd ff6b 	bl	8001a00 <LCD_WR_DATAX>
 8003b2a:	20c5      	movs	r0, #197	; 0xc5
 8003b2c:	f7fd ff44 	bl	80019b8 <LCD_WR_REG>
 8003b30:	2032      	movs	r0, #50	; 0x32
 8003b32:	f7fd ff65 	bl	8001a00 <LCD_WR_DATAX>
 8003b36:	2000      	movs	r0, #0
 8003b38:	f7fd ff62 	bl	8001a00 <LCD_WR_DATAX>
 8003b3c:	2044      	movs	r0, #68	; 0x44
 8003b3e:	f7fd ff5f 	bl	8001a00 <LCD_WR_DATAX>
 8003b42:	2000      	movs	r0, #0
 8003b44:	f7fd ff5c 	bl	8001a00 <LCD_WR_DATAX>
 8003b48:	2065      	movs	r0, #101	; 0x65
 8003b4a:	f7fd ff59 	bl	8001a00 <LCD_WR_DATAX>
 8003b4e:	2000      	movs	r0, #0
 8003b50:	f7fd ff56 	bl	8001a00 <LCD_WR_DATAX>
 8003b54:	2076      	movs	r0, #118	; 0x76
 8003b56:	f7fd ff53 	bl	8001a00 <LCD_WR_DATAX>
 8003b5a:	2000      	movs	r0, #0
 8003b5c:	f7fd ff50 	bl	8001a00 <LCD_WR_DATAX>
 8003b60:	2088      	movs	r0, #136	; 0x88
 8003b62:	f7fd ff4d 	bl	8001a00 <LCD_WR_DATAX>
 8003b66:	2000      	movs	r0, #0
 8003b68:	f7fd ff4a 	bl	8001a00 <LCD_WR_DATAX>
 8003b6c:	20c6      	movs	r0, #198	; 0xc6
 8003b6e:	f7fd ff23 	bl	80019b8 <LCD_WR_REG>
 8003b72:	2020      	movs	r0, #32
 8003b74:	f7fd ff44 	bl	8001a00 <LCD_WR_DATAX>
 8003b78:	2000      	movs	r0, #0
 8003b7a:	f7fd ff41 	bl	8001a00 <LCD_WR_DATAX>
 8003b7e:	2017      	movs	r0, #23
 8003b80:	f7fd ff3e 	bl	8001a00 <LCD_WR_DATAX>
 8003b84:	2000      	movs	r0, #0
 8003b86:	f7fd ff3b 	bl	8001a00 <LCD_WR_DATAX>
 8003b8a:	2001      	movs	r0, #1
 8003b8c:	f7fd ff38 	bl	8001a00 <LCD_WR_DATAX>
 8003b90:	2000      	movs	r0, #0
 8003b92:	f7fd ff35 	bl	8001a00 <LCD_WR_DATAX>
 8003b96:	20c7      	movs	r0, #199	; 0xc7
 8003b98:	f7fd ff0e 	bl	80019b8 <LCD_WR_REG>
 8003b9c:	2000      	movs	r0, #0
 8003b9e:	f7fd ff2f 	bl	8001a00 <LCD_WR_DATAX>
 8003ba2:	2000      	movs	r0, #0
 8003ba4:	f7fd ff2c 	bl	8001a00 <LCD_WR_DATAX>
 8003ba8:	2000      	movs	r0, #0
 8003baa:	f7fd ff29 	bl	8001a00 <LCD_WR_DATAX>
 8003bae:	2000      	movs	r0, #0
 8003bb0:	f7fd ff26 	bl	8001a00 <LCD_WR_DATAX>
 8003bb4:	20c8      	movs	r0, #200	; 0xc8
 8003bb6:	f7fd feff 	bl	80019b8 <LCD_WR_REG>
 8003bba:	2000      	movs	r0, #0
 8003bbc:	f7fd ff20 	bl	8001a00 <LCD_WR_DATAX>
 8003bc0:	2000      	movs	r0, #0
 8003bc2:	f7fd ff1d 	bl	8001a00 <LCD_WR_DATAX>
 8003bc6:	2000      	movs	r0, #0
 8003bc8:	f7fd ff1a 	bl	8001a00 <LCD_WR_DATAX>
 8003bcc:	2000      	movs	r0, #0
 8003bce:	f7fd ff17 	bl	8001a00 <LCD_WR_DATAX>
 8003bd2:	20c9      	movs	r0, #201	; 0xc9
 8003bd4:	f7fd fef0 	bl	80019b8 <LCD_WR_REG>
 8003bd8:	2000      	movs	r0, #0
 8003bda:	f7fd ff11 	bl	8001a00 <LCD_WR_DATAX>
 8003bde:	2000      	movs	r0, #0
 8003be0:	f7fd ff0e 	bl	8001a00 <LCD_WR_DATAX>
 8003be4:	2000      	movs	r0, #0
 8003be6:	f7fd ff0b 	bl	8001a00 <LCD_WR_DATAX>
 8003bea:	2000      	movs	r0, #0
 8003bec:	f7fd ff08 	bl	8001a00 <LCD_WR_DATAX>
 8003bf0:	2000      	movs	r0, #0
 8003bf2:	f7fd ff05 	bl	8001a00 <LCD_WR_DATAX>
 8003bf6:	2000      	movs	r0, #0
 8003bf8:	f7fd ff02 	bl	8001a00 <LCD_WR_DATAX>
 8003bfc:	2000      	movs	r0, #0
 8003bfe:	f7fd feff 	bl	8001a00 <LCD_WR_DATAX>
 8003c02:	2000      	movs	r0, #0
 8003c04:	f7fd fefc 	bl	8001a00 <LCD_WR_DATAX>
 8003c08:	2000      	movs	r0, #0
 8003c0a:	f7fd fef9 	bl	8001a00 <LCD_WR_DATAX>
 8003c0e:	2000      	movs	r0, #0
 8003c10:	f7fd fef6 	bl	8001a00 <LCD_WR_DATAX>
 8003c14:	2000      	movs	r0, #0
 8003c16:	f7fd fef3 	bl	8001a00 <LCD_WR_DATAX>
 8003c1a:	2000      	movs	r0, #0
 8003c1c:	f7fd fef0 	bl	8001a00 <LCD_WR_DATAX>
 8003c20:	2000      	movs	r0, #0
 8003c22:	f7fd feed 	bl	8001a00 <LCD_WR_DATAX>
 8003c26:	2000      	movs	r0, #0
 8003c28:	f7fd feea 	bl	8001a00 <LCD_WR_DATAX>
 8003c2c:	2000      	movs	r0, #0
 8003c2e:	f7fd fee7 	bl	8001a00 <LCD_WR_DATAX>
 8003c32:	2000      	movs	r0, #0
 8003c34:	f7fd fee4 	bl	8001a00 <LCD_WR_DATAX>
 8003c38:	20e0      	movs	r0, #224	; 0xe0
 8003c3a:	f7fd febd 	bl	80019b8 <LCD_WR_REG>
 8003c3e:	2016      	movs	r0, #22
 8003c40:	f7fd fede 	bl	8001a00 <LCD_WR_DATAX>
 8003c44:	2000      	movs	r0, #0
 8003c46:	f7fd fedb 	bl	8001a00 <LCD_WR_DATAX>
 8003c4a:	201c      	movs	r0, #28
 8003c4c:	f7fd fed8 	bl	8001a00 <LCD_WR_DATAX>
 8003c50:	2000      	movs	r0, #0
 8003c52:	f7fd fed5 	bl	8001a00 <LCD_WR_DATAX>
 8003c56:	2021      	movs	r0, #33	; 0x21
 8003c58:	f7fd fed2 	bl	8001a00 <LCD_WR_DATAX>
 8003c5c:	2000      	movs	r0, #0
 8003c5e:	f7fd fecf 	bl	8001a00 <LCD_WR_DATAX>
 8003c62:	2036      	movs	r0, #54	; 0x36
 8003c64:	f7fd fecc 	bl	8001a00 <LCD_WR_DATAX>
 8003c68:	2000      	movs	r0, #0
 8003c6a:	f7fd fec9 	bl	8001a00 <LCD_WR_DATAX>
 8003c6e:	2046      	movs	r0, #70	; 0x46
 8003c70:	f7fd fec6 	bl	8001a00 <LCD_WR_DATAX>
 8003c74:	2000      	movs	r0, #0
 8003c76:	f7fd fec3 	bl	8001a00 <LCD_WR_DATAX>
 8003c7a:	2052      	movs	r0, #82	; 0x52
 8003c7c:	f7fd fec0 	bl	8001a00 <LCD_WR_DATAX>
 8003c80:	2000      	movs	r0, #0
 8003c82:	f7fd febd 	bl	8001a00 <LCD_WR_DATAX>
 8003c86:	2064      	movs	r0, #100	; 0x64
 8003c88:	f7fd feba 	bl	8001a00 <LCD_WR_DATAX>
 8003c8c:	2000      	movs	r0, #0
 8003c8e:	f7fd feb7 	bl	8001a00 <LCD_WR_DATAX>
 8003c92:	207a      	movs	r0, #122	; 0x7a
 8003c94:	f7fd feb4 	bl	8001a00 <LCD_WR_DATAX>
 8003c98:	2000      	movs	r0, #0
 8003c9a:	f7fd feb1 	bl	8001a00 <LCD_WR_DATAX>
 8003c9e:	208b      	movs	r0, #139	; 0x8b
 8003ca0:	f7fd feae 	bl	8001a00 <LCD_WR_DATAX>
 8003ca4:	2000      	movs	r0, #0
 8003ca6:	f7fd feab 	bl	8001a00 <LCD_WR_DATAX>
 8003caa:	2099      	movs	r0, #153	; 0x99
 8003cac:	f7fd fea8 	bl	8001a00 <LCD_WR_DATAX>
 8003cb0:	2000      	movs	r0, #0
 8003cb2:	f7fd fea5 	bl	8001a00 <LCD_WR_DATAX>
 8003cb6:	20a8      	movs	r0, #168	; 0xa8
 8003cb8:	f7fd fea2 	bl	8001a00 <LCD_WR_DATAX>
 8003cbc:	2000      	movs	r0, #0
 8003cbe:	f7fd fe9f 	bl	8001a00 <LCD_WR_DATAX>
 8003cc2:	20b9      	movs	r0, #185	; 0xb9
 8003cc4:	f7fd fe9c 	bl	8001a00 <LCD_WR_DATAX>
 8003cc8:	2000      	movs	r0, #0
 8003cca:	f7fd fe99 	bl	8001a00 <LCD_WR_DATAX>
 8003cce:	20c4      	movs	r0, #196	; 0xc4
 8003cd0:	f7fd fe96 	bl	8001a00 <LCD_WR_DATAX>
 8003cd4:	2000      	movs	r0, #0
 8003cd6:	f7fd fe93 	bl	8001a00 <LCD_WR_DATAX>
 8003cda:	20ca      	movs	r0, #202	; 0xca
 8003cdc:	f7fd fe90 	bl	8001a00 <LCD_WR_DATAX>
 8003ce0:	2000      	movs	r0, #0
 8003ce2:	f7fd fe8d 	bl	8001a00 <LCD_WR_DATAX>
 8003ce6:	20d2      	movs	r0, #210	; 0xd2
 8003ce8:	f7fd fe8a 	bl	8001a00 <LCD_WR_DATAX>
 8003cec:	2000      	movs	r0, #0
 8003cee:	f7fd fe87 	bl	8001a00 <LCD_WR_DATAX>
 8003cf2:	20d9      	movs	r0, #217	; 0xd9
 8003cf4:	f7fd fe84 	bl	8001a00 <LCD_WR_DATAX>
 8003cf8:	2000      	movs	r0, #0
 8003cfa:	f7fd fe81 	bl	8001a00 <LCD_WR_DATAX>
 8003cfe:	20e0      	movs	r0, #224	; 0xe0
 8003d00:	f7fd fe7e 	bl	8001a00 <LCD_WR_DATAX>
 8003d04:	2000      	movs	r0, #0
 8003d06:	f7fd fe7b 	bl	8001a00 <LCD_WR_DATAX>
 8003d0a:	20f3      	movs	r0, #243	; 0xf3
 8003d0c:	f7fd fe78 	bl	8001a00 <LCD_WR_DATAX>
 8003d10:	2000      	movs	r0, #0
 8003d12:	f7fd fe75 	bl	8001a00 <LCD_WR_DATAX>
 8003d16:	20e1      	movs	r0, #225	; 0xe1
 8003d18:	f7fd fe4e 	bl	80019b8 <LCD_WR_REG>
 8003d1c:	2016      	movs	r0, #22
 8003d1e:	f7fd fe6f 	bl	8001a00 <LCD_WR_DATAX>
 8003d22:	2000      	movs	r0, #0
 8003d24:	f7fd fe6c 	bl	8001a00 <LCD_WR_DATAX>
 8003d28:	201c      	movs	r0, #28
 8003d2a:	f7fd fe69 	bl	8001a00 <LCD_WR_DATAX>
 8003d2e:	2000      	movs	r0, #0
 8003d30:	f7fd fe66 	bl	8001a00 <LCD_WR_DATAX>
 8003d34:	2022      	movs	r0, #34	; 0x22
 8003d36:	f7fd fe63 	bl	8001a00 <LCD_WR_DATAX>
 8003d3a:	2000      	movs	r0, #0
 8003d3c:	f7fd fe60 	bl	8001a00 <LCD_WR_DATAX>
 8003d40:	2036      	movs	r0, #54	; 0x36
 8003d42:	f7fd fe5d 	bl	8001a00 <LCD_WR_DATAX>
 8003d46:	2000      	movs	r0, #0
 8003d48:	f7fd fe5a 	bl	8001a00 <LCD_WR_DATAX>
 8003d4c:	2045      	movs	r0, #69	; 0x45
 8003d4e:	f7fd fe57 	bl	8001a00 <LCD_WR_DATAX>
 8003d52:	2000      	movs	r0, #0
 8003d54:	f7fd fe54 	bl	8001a00 <LCD_WR_DATAX>
 8003d58:	2052      	movs	r0, #82	; 0x52
 8003d5a:	f7fd fe51 	bl	8001a00 <LCD_WR_DATAX>
 8003d5e:	2000      	movs	r0, #0
 8003d60:	f7fd fe4e 	bl	8001a00 <LCD_WR_DATAX>
 8003d64:	2064      	movs	r0, #100	; 0x64
 8003d66:	f7fd fe4b 	bl	8001a00 <LCD_WR_DATAX>
 8003d6a:	2000      	movs	r0, #0
 8003d6c:	f7fd fe48 	bl	8001a00 <LCD_WR_DATAX>
 8003d70:	207a      	movs	r0, #122	; 0x7a
 8003d72:	f7fd fe45 	bl	8001a00 <LCD_WR_DATAX>
 8003d76:	2000      	movs	r0, #0
 8003d78:	f7fd fe42 	bl	8001a00 <LCD_WR_DATAX>
 8003d7c:	208b      	movs	r0, #139	; 0x8b
 8003d7e:	f7fd fe3f 	bl	8001a00 <LCD_WR_DATAX>
 8003d82:	2000      	movs	r0, #0
 8003d84:	f7fd fe3c 	bl	8001a00 <LCD_WR_DATAX>
 8003d88:	2099      	movs	r0, #153	; 0x99
 8003d8a:	f7fd fe39 	bl	8001a00 <LCD_WR_DATAX>
 8003d8e:	2000      	movs	r0, #0
 8003d90:	f7fd fe36 	bl	8001a00 <LCD_WR_DATAX>
 8003d94:	20a8      	movs	r0, #168	; 0xa8
 8003d96:	f7fd fe33 	bl	8001a00 <LCD_WR_DATAX>
 8003d9a:	2000      	movs	r0, #0
 8003d9c:	f7fd fe30 	bl	8001a00 <LCD_WR_DATAX>
 8003da0:	20b9      	movs	r0, #185	; 0xb9
 8003da2:	f7fd fe2d 	bl	8001a00 <LCD_WR_DATAX>
 8003da6:	2000      	movs	r0, #0
 8003da8:	f7fd fe2a 	bl	8001a00 <LCD_WR_DATAX>
 8003dac:	20c4      	movs	r0, #196	; 0xc4
 8003dae:	f7fd fe27 	bl	8001a00 <LCD_WR_DATAX>
 8003db2:	2000      	movs	r0, #0
 8003db4:	f7fd fe24 	bl	8001a00 <LCD_WR_DATAX>
 8003db8:	20ca      	movs	r0, #202	; 0xca
 8003dba:	f7fd fe21 	bl	8001a00 <LCD_WR_DATAX>
 8003dbe:	2000      	movs	r0, #0
 8003dc0:	f7fd fe1e 	bl	8001a00 <LCD_WR_DATAX>
 8003dc4:	20d2      	movs	r0, #210	; 0xd2
 8003dc6:	f7fd fe1b 	bl	8001a00 <LCD_WR_DATAX>
 8003dca:	2000      	movs	r0, #0
 8003dcc:	f7fd fe18 	bl	8001a00 <LCD_WR_DATAX>
 8003dd0:	20d8      	movs	r0, #216	; 0xd8
 8003dd2:	f7fd fe15 	bl	8001a00 <LCD_WR_DATAX>
 8003dd6:	2000      	movs	r0, #0
 8003dd8:	f7fd fe12 	bl	8001a00 <LCD_WR_DATAX>
 8003ddc:	20e0      	movs	r0, #224	; 0xe0
 8003dde:	f7fd fe0f 	bl	8001a00 <LCD_WR_DATAX>
 8003de2:	2000      	movs	r0, #0
 8003de4:	f7fd fe0c 	bl	8001a00 <LCD_WR_DATAX>
 8003de8:	20f3      	movs	r0, #243	; 0xf3
 8003dea:	f7fd fe09 	bl	8001a00 <LCD_WR_DATAX>
 8003dee:	2000      	movs	r0, #0
 8003df0:	f7fd fe06 	bl	8001a00 <LCD_WR_DATAX>
 8003df4:	20e2      	movs	r0, #226	; 0xe2
 8003df6:	f7fd fddf 	bl	80019b8 <LCD_WR_REG>
 8003dfa:	2005      	movs	r0, #5
 8003dfc:	f7fd fe00 	bl	8001a00 <LCD_WR_DATAX>
 8003e00:	2000      	movs	r0, #0
 8003e02:	f7fd fdfd 	bl	8001a00 <LCD_WR_DATAX>
 8003e06:	200b      	movs	r0, #11
 8003e08:	f7fd fdfa 	bl	8001a00 <LCD_WR_DATAX>
 8003e0c:	2000      	movs	r0, #0
 8003e0e:	f7fd fdf7 	bl	8001a00 <LCD_WR_DATAX>
 8003e12:	201b      	movs	r0, #27
 8003e14:	f7fd fdf4 	bl	8001a00 <LCD_WR_DATAX>
 8003e18:	2000      	movs	r0, #0
 8003e1a:	f7fd fdf1 	bl	8001a00 <LCD_WR_DATAX>
 8003e1e:	2034      	movs	r0, #52	; 0x34
 8003e20:	f7fd fdee 	bl	8001a00 <LCD_WR_DATAX>
 8003e24:	2000      	movs	r0, #0
 8003e26:	f7fd fdeb 	bl	8001a00 <LCD_WR_DATAX>
 8003e2a:	2044      	movs	r0, #68	; 0x44
 8003e2c:	f7fd fde8 	bl	8001a00 <LCD_WR_DATAX>
 8003e30:	2000      	movs	r0, #0
 8003e32:	f7fd fde5 	bl	8001a00 <LCD_WR_DATAX>
 8003e36:	204f      	movs	r0, #79	; 0x4f
 8003e38:	f7fd fde2 	bl	8001a00 <LCD_WR_DATAX>
 8003e3c:	2000      	movs	r0, #0
 8003e3e:	f7fd fddf 	bl	8001a00 <LCD_WR_DATAX>
 8003e42:	2061      	movs	r0, #97	; 0x61
 8003e44:	f7fd fddc 	bl	8001a00 <LCD_WR_DATAX>
 8003e48:	2000      	movs	r0, #0
 8003e4a:	f7fd fdd9 	bl	8001a00 <LCD_WR_DATAX>
 8003e4e:	2079      	movs	r0, #121	; 0x79
 8003e50:	f7fd fdd6 	bl	8001a00 <LCD_WR_DATAX>
 8003e54:	2000      	movs	r0, #0
 8003e56:	f7fd fdd3 	bl	8001a00 <LCD_WR_DATAX>
 8003e5a:	2088      	movs	r0, #136	; 0x88
 8003e5c:	f7fd fdd0 	bl	8001a00 <LCD_WR_DATAX>
 8003e60:	2000      	movs	r0, #0
 8003e62:	f7fd fdcd 	bl	8001a00 <LCD_WR_DATAX>
 8003e66:	2097      	movs	r0, #151	; 0x97
 8003e68:	f7fd fdca 	bl	8001a00 <LCD_WR_DATAX>
 8003e6c:	2000      	movs	r0, #0
 8003e6e:	f7fd fdc7 	bl	8001a00 <LCD_WR_DATAX>
 8003e72:	20a6      	movs	r0, #166	; 0xa6
 8003e74:	f7fd fdc4 	bl	8001a00 <LCD_WR_DATAX>
 8003e78:	2000      	movs	r0, #0
 8003e7a:	f7fd fdc1 	bl	8001a00 <LCD_WR_DATAX>
 8003e7e:	20b7      	movs	r0, #183	; 0xb7
 8003e80:	f7fd fdbe 	bl	8001a00 <LCD_WR_DATAX>
 8003e84:	2000      	movs	r0, #0
 8003e86:	f7fd fdbb 	bl	8001a00 <LCD_WR_DATAX>
 8003e8a:	20c2      	movs	r0, #194	; 0xc2
 8003e8c:	f7fd fdb8 	bl	8001a00 <LCD_WR_DATAX>
 8003e90:	2000      	movs	r0, #0
 8003e92:	f7fd fdb5 	bl	8001a00 <LCD_WR_DATAX>
 8003e96:	20c7      	movs	r0, #199	; 0xc7
 8003e98:	f7fd fdb2 	bl	8001a00 <LCD_WR_DATAX>
 8003e9c:	2000      	movs	r0, #0
 8003e9e:	f7fd fdaf 	bl	8001a00 <LCD_WR_DATAX>
 8003ea2:	20d1      	movs	r0, #209	; 0xd1
 8003ea4:	f7fd fdac 	bl	8001a00 <LCD_WR_DATAX>
 8003ea8:	2000      	movs	r0, #0
 8003eaa:	f7fd fda9 	bl	8001a00 <LCD_WR_DATAX>
 8003eae:	20d6      	movs	r0, #214	; 0xd6
 8003eb0:	f7fd fda6 	bl	8001a00 <LCD_WR_DATAX>
 8003eb4:	2000      	movs	r0, #0
 8003eb6:	f7fd fda3 	bl	8001a00 <LCD_WR_DATAX>
 8003eba:	20dd      	movs	r0, #221	; 0xdd
 8003ebc:	f7fd fda0 	bl	8001a00 <LCD_WR_DATAX>
 8003ec0:	2000      	movs	r0, #0
 8003ec2:	f7fd fd9d 	bl	8001a00 <LCD_WR_DATAX>
 8003ec6:	20f3      	movs	r0, #243	; 0xf3
 8003ec8:	f7fd fd9a 	bl	8001a00 <LCD_WR_DATAX>
 8003ecc:	2000      	movs	r0, #0
 8003ece:	f7fd fd97 	bl	8001a00 <LCD_WR_DATAX>
 8003ed2:	20e3      	movs	r0, #227	; 0xe3
 8003ed4:	f7fd fd70 	bl	80019b8 <LCD_WR_REG>
 8003ed8:	2005      	movs	r0, #5
 8003eda:	f7fd fd91 	bl	8001a00 <LCD_WR_DATAX>
 8003ede:	2000      	movs	r0, #0
 8003ee0:	f7fd fd8e 	bl	8001a00 <LCD_WR_DATAX>
 8003ee4:	200a      	movs	r0, #10
 8003ee6:	f7fd fd8b 	bl	8001a00 <LCD_WR_DATAX>
 8003eea:	2000      	movs	r0, #0
 8003eec:	f7fd fd88 	bl	8001a00 <LCD_WR_DATAX>
 8003ef0:	201c      	movs	r0, #28
 8003ef2:	f7fd fd85 	bl	8001a00 <LCD_WR_DATAX>
 8003ef6:	2000      	movs	r0, #0
 8003ef8:	f7fd fd82 	bl	8001a00 <LCD_WR_DATAX>
 8003efc:	2033      	movs	r0, #51	; 0x33
 8003efe:	f7fd fd7f 	bl	8001a00 <LCD_WR_DATAX>
 8003f02:	2000      	movs	r0, #0
 8003f04:	f7fd fd7c 	bl	8001a00 <LCD_WR_DATAX>
 8003f08:	2044      	movs	r0, #68	; 0x44
 8003f0a:	f7fd fd79 	bl	8001a00 <LCD_WR_DATAX>
 8003f0e:	2000      	movs	r0, #0
 8003f10:	f7fd fd76 	bl	8001a00 <LCD_WR_DATAX>
 8003f14:	2050      	movs	r0, #80	; 0x50
 8003f16:	f7fd fd73 	bl	8001a00 <LCD_WR_DATAX>
 8003f1a:	2000      	movs	r0, #0
 8003f1c:	f7fd fd70 	bl	8001a00 <LCD_WR_DATAX>
 8003f20:	2062      	movs	r0, #98	; 0x62
 8003f22:	f7fd fd6d 	bl	8001a00 <LCD_WR_DATAX>
 8003f26:	2000      	movs	r0, #0
 8003f28:	f7fd fd6a 	bl	8001a00 <LCD_WR_DATAX>
 8003f2c:	2078      	movs	r0, #120	; 0x78
 8003f2e:	f7fd fd67 	bl	8001a00 <LCD_WR_DATAX>
 8003f32:	2000      	movs	r0, #0
 8003f34:	f7fd fd64 	bl	8001a00 <LCD_WR_DATAX>
 8003f38:	2088      	movs	r0, #136	; 0x88
 8003f3a:	f7fd fd61 	bl	8001a00 <LCD_WR_DATAX>
 8003f3e:	2000      	movs	r0, #0
 8003f40:	f7fd fd5e 	bl	8001a00 <LCD_WR_DATAX>
 8003f44:	2097      	movs	r0, #151	; 0x97
 8003f46:	f7fd fd5b 	bl	8001a00 <LCD_WR_DATAX>
 8003f4a:	2000      	movs	r0, #0
 8003f4c:	f7fd fd58 	bl	8001a00 <LCD_WR_DATAX>
 8003f50:	20a6      	movs	r0, #166	; 0xa6
 8003f52:	f7fd fd55 	bl	8001a00 <LCD_WR_DATAX>
 8003f56:	2000      	movs	r0, #0
 8003f58:	f7fd fd52 	bl	8001a00 <LCD_WR_DATAX>
 8003f5c:	20b7      	movs	r0, #183	; 0xb7
 8003f5e:	f7fd fd4f 	bl	8001a00 <LCD_WR_DATAX>
 8003f62:	2000      	movs	r0, #0
 8003f64:	f7fd fd4c 	bl	8001a00 <LCD_WR_DATAX>
 8003f68:	20c2      	movs	r0, #194	; 0xc2
 8003f6a:	f7fd fd49 	bl	8001a00 <LCD_WR_DATAX>
 8003f6e:	2000      	movs	r0, #0
 8003f70:	f7fd fd46 	bl	8001a00 <LCD_WR_DATAX>
 8003f74:	20c7      	movs	r0, #199	; 0xc7
 8003f76:	f7fd fd43 	bl	8001a00 <LCD_WR_DATAX>
 8003f7a:	2000      	movs	r0, #0
 8003f7c:	f7fd fd40 	bl	8001a00 <LCD_WR_DATAX>
 8003f80:	20d1      	movs	r0, #209	; 0xd1
 8003f82:	f7fd fd3d 	bl	8001a00 <LCD_WR_DATAX>
 8003f86:	2000      	movs	r0, #0
 8003f88:	f7fd fd3a 	bl	8001a00 <LCD_WR_DATAX>
 8003f8c:	20d5      	movs	r0, #213	; 0xd5
 8003f8e:	f7fd fd37 	bl	8001a00 <LCD_WR_DATAX>
 8003f92:	2000      	movs	r0, #0
 8003f94:	f7fd fd34 	bl	8001a00 <LCD_WR_DATAX>
 8003f98:	20dd      	movs	r0, #221	; 0xdd
 8003f9a:	f7fd fd31 	bl	8001a00 <LCD_WR_DATAX>
 8003f9e:	2000      	movs	r0, #0
 8003fa0:	f7fd fd2e 	bl	8001a00 <LCD_WR_DATAX>
 8003fa4:	20f3      	movs	r0, #243	; 0xf3
 8003fa6:	f7fd fd2b 	bl	8001a00 <LCD_WR_DATAX>
 8003faa:	2000      	movs	r0, #0
 8003fac:	f7fd fd28 	bl	8001a00 <LCD_WR_DATAX>
 8003fb0:	20e4      	movs	r0, #228	; 0xe4
 8003fb2:	f7fd fd01 	bl	80019b8 <LCD_WR_REG>
 8003fb6:	2001      	movs	r0, #1
 8003fb8:	f7fd fd22 	bl	8001a00 <LCD_WR_DATAX>
 8003fbc:	2000      	movs	r0, #0
 8003fbe:	f7fd fd1f 	bl	8001a00 <LCD_WR_DATAX>
 8003fc2:	2001      	movs	r0, #1
 8003fc4:	f7fd fd1c 	bl	8001a00 <LCD_WR_DATAX>
 8003fc8:	2000      	movs	r0, #0
 8003fca:	f7fd fd19 	bl	8001a00 <LCD_WR_DATAX>
 8003fce:	2002      	movs	r0, #2
 8003fd0:	f7fd fd16 	bl	8001a00 <LCD_WR_DATAX>
 8003fd4:	2000      	movs	r0, #0
 8003fd6:	f7fd fd13 	bl	8001a00 <LCD_WR_DATAX>
 8003fda:	202a      	movs	r0, #42	; 0x2a
 8003fdc:	f7fd fd10 	bl	8001a00 <LCD_WR_DATAX>
 8003fe0:	2000      	movs	r0, #0
 8003fe2:	f7fd fd0d 	bl	8001a00 <LCD_WR_DATAX>
 8003fe6:	203c      	movs	r0, #60	; 0x3c
 8003fe8:	f7fd fd0a 	bl	8001a00 <LCD_WR_DATAX>
 8003fec:	2000      	movs	r0, #0
 8003fee:	f7fd fd07 	bl	8001a00 <LCD_WR_DATAX>
 8003ff2:	204b      	movs	r0, #75	; 0x4b
 8003ff4:	f7fd fd04 	bl	8001a00 <LCD_WR_DATAX>
 8003ff8:	2000      	movs	r0, #0
 8003ffa:	f7fd fd01 	bl	8001a00 <LCD_WR_DATAX>
 8003ffe:	205d      	movs	r0, #93	; 0x5d
 8004000:	f7fd fcfe 	bl	8001a00 <LCD_WR_DATAX>
 8004004:	2000      	movs	r0, #0
 8004006:	f7fd fcfb 	bl	8001a00 <LCD_WR_DATAX>
 800400a:	2074      	movs	r0, #116	; 0x74
 800400c:	f7fd fcf8 	bl	8001a00 <LCD_WR_DATAX>
 8004010:	2000      	movs	r0, #0
 8004012:	f7fd fcf5 	bl	8001a00 <LCD_WR_DATAX>
 8004016:	2084      	movs	r0, #132	; 0x84
 8004018:	f7fd fcf2 	bl	8001a00 <LCD_WR_DATAX>
 800401c:	2000      	movs	r0, #0
 800401e:	f7fd fcef 	bl	8001a00 <LCD_WR_DATAX>
 8004022:	2093      	movs	r0, #147	; 0x93
 8004024:	f7fd fcec 	bl	8001a00 <LCD_WR_DATAX>
 8004028:	2000      	movs	r0, #0
 800402a:	f7fd fce9 	bl	8001a00 <LCD_WR_DATAX>
 800402e:	20a2      	movs	r0, #162	; 0xa2
 8004030:	f7fd fce6 	bl	8001a00 <LCD_WR_DATAX>
 8004034:	2000      	movs	r0, #0
 8004036:	f7fd fce3 	bl	8001a00 <LCD_WR_DATAX>
 800403a:	20b3      	movs	r0, #179	; 0xb3
 800403c:	f7fd fce0 	bl	8001a00 <LCD_WR_DATAX>
 8004040:	2000      	movs	r0, #0
 8004042:	f7fd fcdd 	bl	8001a00 <LCD_WR_DATAX>
 8004046:	20be      	movs	r0, #190	; 0xbe
 8004048:	f7fd fcda 	bl	8001a00 <LCD_WR_DATAX>
 800404c:	2000      	movs	r0, #0
 800404e:	f7fd fcd7 	bl	8001a00 <LCD_WR_DATAX>
 8004052:	20c4      	movs	r0, #196	; 0xc4
 8004054:	f7fd fcd4 	bl	8001a00 <LCD_WR_DATAX>
 8004058:	2000      	movs	r0, #0
 800405a:	f7fd fcd1 	bl	8001a00 <LCD_WR_DATAX>
 800405e:	20cd      	movs	r0, #205	; 0xcd
 8004060:	f7fd fcce 	bl	8001a00 <LCD_WR_DATAX>
 8004064:	2000      	movs	r0, #0
 8004066:	f7fd fccb 	bl	8001a00 <LCD_WR_DATAX>
 800406a:	20d3      	movs	r0, #211	; 0xd3
 800406c:	f7fd fcc8 	bl	8001a00 <LCD_WR_DATAX>
 8004070:	2000      	movs	r0, #0
 8004072:	f7fd fcc5 	bl	8001a00 <LCD_WR_DATAX>
 8004076:	20dd      	movs	r0, #221	; 0xdd
 8004078:	f7fd fcc2 	bl	8001a00 <LCD_WR_DATAX>
 800407c:	2000      	movs	r0, #0
 800407e:	f7fd fcbf 	bl	8001a00 <LCD_WR_DATAX>
 8004082:	20f3      	movs	r0, #243	; 0xf3
 8004084:	f7fd fcbc 	bl	8001a00 <LCD_WR_DATAX>
 8004088:	2000      	movs	r0, #0
 800408a:	f7fd fcb9 	bl	8001a00 <LCD_WR_DATAX>
 800408e:	20e5      	movs	r0, #229	; 0xe5
 8004090:	f7fd fc92 	bl	80019b8 <LCD_WR_REG>
 8004094:	2000      	movs	r0, #0
 8004096:	f7fd fcb3 	bl	8001a00 <LCD_WR_DATAX>
 800409a:	2000      	movs	r0, #0
 800409c:	f7fd fcb0 	bl	8001a00 <LCD_WR_DATAX>
 80040a0:	2000      	movs	r0, #0
 80040a2:	f7fd fcad 	bl	8001a00 <LCD_WR_DATAX>
 80040a6:	2000      	movs	r0, #0
 80040a8:	f7fd fcaa 	bl	8001a00 <LCD_WR_DATAX>
 80040ac:	2002      	movs	r0, #2
 80040ae:	f7fd fca7 	bl	8001a00 <LCD_WR_DATAX>
 80040b2:	2000      	movs	r0, #0
 80040b4:	f7fd fca4 	bl	8001a00 <LCD_WR_DATAX>
 80040b8:	2029      	movs	r0, #41	; 0x29
 80040ba:	f7fd fca1 	bl	8001a00 <LCD_WR_DATAX>
 80040be:	2000      	movs	r0, #0
 80040c0:	f7fd fc9e 	bl	8001a00 <LCD_WR_DATAX>
 80040c4:	203c      	movs	r0, #60	; 0x3c
 80040c6:	f7fd fc9b 	bl	8001a00 <LCD_WR_DATAX>
 80040ca:	2000      	movs	r0, #0
 80040cc:	f7fd fc98 	bl	8001a00 <LCD_WR_DATAX>
 80040d0:	204b      	movs	r0, #75	; 0x4b
 80040d2:	f7fd fc95 	bl	8001a00 <LCD_WR_DATAX>
 80040d6:	2000      	movs	r0, #0
 80040d8:	f7fd fc92 	bl	8001a00 <LCD_WR_DATAX>
 80040dc:	205d      	movs	r0, #93	; 0x5d
 80040de:	f7fd fc8f 	bl	8001a00 <LCD_WR_DATAX>
 80040e2:	2000      	movs	r0, #0
 80040e4:	f7fd fc8c 	bl	8001a00 <LCD_WR_DATAX>
 80040e8:	2074      	movs	r0, #116	; 0x74
 80040ea:	f7fd fc89 	bl	8001a00 <LCD_WR_DATAX>
 80040ee:	2000      	movs	r0, #0
 80040f0:	f7fd fc86 	bl	8001a00 <LCD_WR_DATAX>
 80040f4:	2084      	movs	r0, #132	; 0x84
 80040f6:	f7fd fc83 	bl	8001a00 <LCD_WR_DATAX>
 80040fa:	2000      	movs	r0, #0
 80040fc:	f7fd fc80 	bl	8001a00 <LCD_WR_DATAX>
 8004100:	2093      	movs	r0, #147	; 0x93
 8004102:	f7fd fc7d 	bl	8001a00 <LCD_WR_DATAX>
 8004106:	2000      	movs	r0, #0
 8004108:	f7fd fc7a 	bl	8001a00 <LCD_WR_DATAX>
 800410c:	20a2      	movs	r0, #162	; 0xa2
 800410e:	f7fd fc77 	bl	8001a00 <LCD_WR_DATAX>
 8004112:	2000      	movs	r0, #0
 8004114:	f7fd fc74 	bl	8001a00 <LCD_WR_DATAX>
 8004118:	20b3      	movs	r0, #179	; 0xb3
 800411a:	f7fd fc71 	bl	8001a00 <LCD_WR_DATAX>
 800411e:	2000      	movs	r0, #0
 8004120:	f7fd fc6e 	bl	8001a00 <LCD_WR_DATAX>
 8004124:	20be      	movs	r0, #190	; 0xbe
 8004126:	f7fd fc6b 	bl	8001a00 <LCD_WR_DATAX>
 800412a:	2000      	movs	r0, #0
 800412c:	f7fd fc68 	bl	8001a00 <LCD_WR_DATAX>
 8004130:	20c4      	movs	r0, #196	; 0xc4
 8004132:	f7fd fc65 	bl	8001a00 <LCD_WR_DATAX>
 8004136:	2000      	movs	r0, #0
 8004138:	f7fd fc62 	bl	8001a00 <LCD_WR_DATAX>
 800413c:	20cd      	movs	r0, #205	; 0xcd
 800413e:	f7fd fc5f 	bl	8001a00 <LCD_WR_DATAX>
 8004142:	2000      	movs	r0, #0
 8004144:	f7fd fc5c 	bl	8001a00 <LCD_WR_DATAX>
 8004148:	20d3      	movs	r0, #211	; 0xd3
 800414a:	f7fd fc59 	bl	8001a00 <LCD_WR_DATAX>
 800414e:	2000      	movs	r0, #0
 8004150:	f7fd fc56 	bl	8001a00 <LCD_WR_DATAX>
 8004154:	20dc      	movs	r0, #220	; 0xdc
 8004156:	f7fd fc53 	bl	8001a00 <LCD_WR_DATAX>
 800415a:	2000      	movs	r0, #0
 800415c:	f7fd fc50 	bl	8001a00 <LCD_WR_DATAX>
 8004160:	20f3      	movs	r0, #243	; 0xf3
 8004162:	f7fd fc4d 	bl	8001a00 <LCD_WR_DATAX>
 8004166:	2000      	movs	r0, #0
 8004168:	f7fd fc4a 	bl	8001a00 <LCD_WR_DATAX>
 800416c:	20e6      	movs	r0, #230	; 0xe6
 800416e:	f7fd fc23 	bl	80019b8 <LCD_WR_REG>
 8004172:	2011      	movs	r0, #17
 8004174:	f7fd fc44 	bl	8001a00 <LCD_WR_DATAX>
 8004178:	2000      	movs	r0, #0
 800417a:	f7fd fc41 	bl	8001a00 <LCD_WR_DATAX>
 800417e:	2034      	movs	r0, #52	; 0x34
 8004180:	f7fd fc3e 	bl	8001a00 <LCD_WR_DATAX>
 8004184:	2000      	movs	r0, #0
 8004186:	f7fd fc3b 	bl	8001a00 <LCD_WR_DATAX>
 800418a:	2056      	movs	r0, #86	; 0x56
 800418c:	f7fd fc38 	bl	8001a00 <LCD_WR_DATAX>
 8004190:	2000      	movs	r0, #0
 8004192:	f7fd fc35 	bl	8001a00 <LCD_WR_DATAX>
 8004196:	2076      	movs	r0, #118	; 0x76
 8004198:	f7fd fc32 	bl	8001a00 <LCD_WR_DATAX>
 800419c:	2000      	movs	r0, #0
 800419e:	f7fd fc2f 	bl	8001a00 <LCD_WR_DATAX>
 80041a2:	2077      	movs	r0, #119	; 0x77
 80041a4:	f7fd fc2c 	bl	8001a00 <LCD_WR_DATAX>
 80041a8:	2000      	movs	r0, #0
 80041aa:	f7fd fc29 	bl	8001a00 <LCD_WR_DATAX>
 80041ae:	2066      	movs	r0, #102	; 0x66
 80041b0:	f7fd fc26 	bl	8001a00 <LCD_WR_DATAX>
 80041b4:	2000      	movs	r0, #0
 80041b6:	f7fd fc23 	bl	8001a00 <LCD_WR_DATAX>
 80041ba:	2088      	movs	r0, #136	; 0x88
 80041bc:	f7fd fc20 	bl	8001a00 <LCD_WR_DATAX>
 80041c0:	2000      	movs	r0, #0
 80041c2:	f7fd fc1d 	bl	8001a00 <LCD_WR_DATAX>
 80041c6:	2099      	movs	r0, #153	; 0x99
 80041c8:	f7fd fc1a 	bl	8001a00 <LCD_WR_DATAX>
 80041cc:	2000      	movs	r0, #0
 80041ce:	f7fd fc17 	bl	8001a00 <LCD_WR_DATAX>
 80041d2:	20bb      	movs	r0, #187	; 0xbb
 80041d4:	f7fd fc14 	bl	8001a00 <LCD_WR_DATAX>
 80041d8:	2000      	movs	r0, #0
 80041da:	f7fd fc11 	bl	8001a00 <LCD_WR_DATAX>
 80041de:	2099      	movs	r0, #153	; 0x99
 80041e0:	f7fd fc0e 	bl	8001a00 <LCD_WR_DATAX>
 80041e4:	2000      	movs	r0, #0
 80041e6:	f7fd fc0b 	bl	8001a00 <LCD_WR_DATAX>
 80041ea:	2066      	movs	r0, #102	; 0x66
 80041ec:	f7fd fc08 	bl	8001a00 <LCD_WR_DATAX>
 80041f0:	2000      	movs	r0, #0
 80041f2:	f7fd fc05 	bl	8001a00 <LCD_WR_DATAX>
 80041f6:	2055      	movs	r0, #85	; 0x55
 80041f8:	f7fd fc02 	bl	8001a00 <LCD_WR_DATAX>
 80041fc:	2000      	movs	r0, #0
 80041fe:	f7fd fbff 	bl	8001a00 <LCD_WR_DATAX>
 8004202:	2055      	movs	r0, #85	; 0x55
 8004204:	f7fd fbfc 	bl	8001a00 <LCD_WR_DATAX>
 8004208:	2000      	movs	r0, #0
 800420a:	f7fd fbf9 	bl	8001a00 <LCD_WR_DATAX>
 800420e:	2045      	movs	r0, #69	; 0x45
 8004210:	f7fd fbf6 	bl	8001a00 <LCD_WR_DATAX>
 8004214:	2000      	movs	r0, #0
 8004216:	f7fd fbf3 	bl	8001a00 <LCD_WR_DATAX>
 800421a:	2043      	movs	r0, #67	; 0x43
 800421c:	f7fd fbf0 	bl	8001a00 <LCD_WR_DATAX>
 8004220:	2000      	movs	r0, #0
 8004222:	f7fd fbed 	bl	8001a00 <LCD_WR_DATAX>
 8004226:	2044      	movs	r0, #68	; 0x44
 8004228:	f7fd fbea 	bl	8001a00 <LCD_WR_DATAX>
 800422c:	2000      	movs	r0, #0
 800422e:	f7fd fbe7 	bl	8001a00 <LCD_WR_DATAX>
 8004232:	20e7      	movs	r0, #231	; 0xe7
 8004234:	f7fd fbc0 	bl	80019b8 <LCD_WR_REG>
 8004238:	2032      	movs	r0, #50	; 0x32
 800423a:	f7fd fbe1 	bl	8001a00 <LCD_WR_DATAX>
 800423e:	2000      	movs	r0, #0
 8004240:	f7fd fbde 	bl	8001a00 <LCD_WR_DATAX>
 8004244:	2055      	movs	r0, #85	; 0x55
 8004246:	f7fd fbdb 	bl	8001a00 <LCD_WR_DATAX>
 800424a:	2000      	movs	r0, #0
 800424c:	f7fd fbd8 	bl	8001a00 <LCD_WR_DATAX>
 8004250:	2076      	movs	r0, #118	; 0x76
 8004252:	f7fd fbd5 	bl	8001a00 <LCD_WR_DATAX>
 8004256:	2000      	movs	r0, #0
 8004258:	f7fd fbd2 	bl	8001a00 <LCD_WR_DATAX>
 800425c:	2066      	movs	r0, #102	; 0x66
 800425e:	f7fd fbcf 	bl	8001a00 <LCD_WR_DATAX>
 8004262:	2000      	movs	r0, #0
 8004264:	f7fd fbcc 	bl	8001a00 <LCD_WR_DATAX>
 8004268:	2067      	movs	r0, #103	; 0x67
 800426a:	f7fd fbc9 	bl	8001a00 <LCD_WR_DATAX>
 800426e:	2000      	movs	r0, #0
 8004270:	f7fd fbc6 	bl	8001a00 <LCD_WR_DATAX>
 8004274:	2067      	movs	r0, #103	; 0x67
 8004276:	f7fd fbc3 	bl	8001a00 <LCD_WR_DATAX>
 800427a:	2000      	movs	r0, #0
 800427c:	f7fd fbc0 	bl	8001a00 <LCD_WR_DATAX>
 8004280:	2087      	movs	r0, #135	; 0x87
 8004282:	f7fd fbbd 	bl	8001a00 <LCD_WR_DATAX>
 8004286:	2000      	movs	r0, #0
 8004288:	f7fd fbba 	bl	8001a00 <LCD_WR_DATAX>
 800428c:	2099      	movs	r0, #153	; 0x99
 800428e:	f7fd fbb7 	bl	8001a00 <LCD_WR_DATAX>
 8004292:	2000      	movs	r0, #0
 8004294:	f7fd fbb4 	bl	8001a00 <LCD_WR_DATAX>
 8004298:	20bb      	movs	r0, #187	; 0xbb
 800429a:	f7fd fbb1 	bl	8001a00 <LCD_WR_DATAX>
 800429e:	2000      	movs	r0, #0
 80042a0:	f7fd fbae 	bl	8001a00 <LCD_WR_DATAX>
 80042a4:	2099      	movs	r0, #153	; 0x99
 80042a6:	f7fd fbab 	bl	8001a00 <LCD_WR_DATAX>
 80042aa:	2000      	movs	r0, #0
 80042ac:	f7fd fba8 	bl	8001a00 <LCD_WR_DATAX>
 80042b0:	2077      	movs	r0, #119	; 0x77
 80042b2:	f7fd fba5 	bl	8001a00 <LCD_WR_DATAX>
 80042b6:	2000      	movs	r0, #0
 80042b8:	f7fd fba2 	bl	8001a00 <LCD_WR_DATAX>
 80042bc:	2044      	movs	r0, #68	; 0x44
 80042be:	f7fd fb9f 	bl	8001a00 <LCD_WR_DATAX>
 80042c2:	2000      	movs	r0, #0
 80042c4:	f7fd fb9c 	bl	8001a00 <LCD_WR_DATAX>
 80042c8:	2056      	movs	r0, #86	; 0x56
 80042ca:	f7fd fb99 	bl	8001a00 <LCD_WR_DATAX>
 80042ce:	2000      	movs	r0, #0
 80042d0:	f7fd fb96 	bl	8001a00 <LCD_WR_DATAX>
 80042d4:	2023      	movs	r0, #35	; 0x23
 80042d6:	f7fd fb93 	bl	8001a00 <LCD_WR_DATAX>
 80042da:	2000      	movs	r0, #0
 80042dc:	f7fd fb90 	bl	8001a00 <LCD_WR_DATAX>
 80042e0:	2033      	movs	r0, #51	; 0x33
 80042e2:	f7fd fb8d 	bl	8001a00 <LCD_WR_DATAX>
 80042e6:	2000      	movs	r0, #0
 80042e8:	f7fd fb8a 	bl	8001a00 <LCD_WR_DATAX>
 80042ec:	2045      	movs	r0, #69	; 0x45
 80042ee:	f7fd fb87 	bl	8001a00 <LCD_WR_DATAX>
 80042f2:	2000      	movs	r0, #0
 80042f4:	f7fd fb84 	bl	8001a00 <LCD_WR_DATAX>
 80042f8:	20e8      	movs	r0, #232	; 0xe8
 80042fa:	f7fd fb5d 	bl	80019b8 <LCD_WR_REG>
 80042fe:	2000      	movs	r0, #0
 8004300:	f7fd fb7e 	bl	8001a00 <LCD_WR_DATAX>
 8004304:	2000      	movs	r0, #0
 8004306:	f7fd fb7b 	bl	8001a00 <LCD_WR_DATAX>
 800430a:	2099      	movs	r0, #153	; 0x99
 800430c:	f7fd fb78 	bl	8001a00 <LCD_WR_DATAX>
 8004310:	2000      	movs	r0, #0
 8004312:	f7fd fb75 	bl	8001a00 <LCD_WR_DATAX>
 8004316:	2087      	movs	r0, #135	; 0x87
 8004318:	f7fd fb72 	bl	8001a00 <LCD_WR_DATAX>
 800431c:	2000      	movs	r0, #0
 800431e:	f7fd fb6f 	bl	8001a00 <LCD_WR_DATAX>
 8004322:	2088      	movs	r0, #136	; 0x88
 8004324:	f7fd fb6c 	bl	8001a00 <LCD_WR_DATAX>
 8004328:	2000      	movs	r0, #0
 800432a:	f7fd fb69 	bl	8001a00 <LCD_WR_DATAX>
 800432e:	2077      	movs	r0, #119	; 0x77
 8004330:	f7fd fb66 	bl	8001a00 <LCD_WR_DATAX>
 8004334:	2000      	movs	r0, #0
 8004336:	f7fd fb63 	bl	8001a00 <LCD_WR_DATAX>
 800433a:	2066      	movs	r0, #102	; 0x66
 800433c:	f7fd fb60 	bl	8001a00 <LCD_WR_DATAX>
 8004340:	2000      	movs	r0, #0
 8004342:	f7fd fb5d 	bl	8001a00 <LCD_WR_DATAX>
 8004346:	2088      	movs	r0, #136	; 0x88
 8004348:	f7fd fb5a 	bl	8001a00 <LCD_WR_DATAX>
 800434c:	2000      	movs	r0, #0
 800434e:	f7fd fb57 	bl	8001a00 <LCD_WR_DATAX>
 8004352:	20aa      	movs	r0, #170	; 0xaa
 8004354:	f7fd fb54 	bl	8001a00 <LCD_WR_DATAX>
 8004358:	2000      	movs	r0, #0
 800435a:	f7fd fb51 	bl	8001a00 <LCD_WR_DATAX>
 800435e:	20bb      	movs	r0, #187	; 0xbb
 8004360:	f7fd fb4e 	bl	8001a00 <LCD_WR_DATAX>
 8004364:	2000      	movs	r0, #0
 8004366:	f7fd fb4b 	bl	8001a00 <LCD_WR_DATAX>
 800436a:	2099      	movs	r0, #153	; 0x99
 800436c:	f7fd fb48 	bl	8001a00 <LCD_WR_DATAX>
 8004370:	2000      	movs	r0, #0
 8004372:	f7fd fb45 	bl	8001a00 <LCD_WR_DATAX>
 8004376:	2066      	movs	r0, #102	; 0x66
 8004378:	f7fd fb42 	bl	8001a00 <LCD_WR_DATAX>
 800437c:	2000      	movs	r0, #0
 800437e:	f7fd fb3f 	bl	8001a00 <LCD_WR_DATAX>
 8004382:	2055      	movs	r0, #85	; 0x55
 8004384:	f7fd fb3c 	bl	8001a00 <LCD_WR_DATAX>
 8004388:	2000      	movs	r0, #0
 800438a:	f7fd fb39 	bl	8001a00 <LCD_WR_DATAX>
 800438e:	2055      	movs	r0, #85	; 0x55
 8004390:	f7fd fb36 	bl	8001a00 <LCD_WR_DATAX>
 8004394:	2000      	movs	r0, #0
 8004396:	f7fd fb33 	bl	8001a00 <LCD_WR_DATAX>
 800439a:	2044      	movs	r0, #68	; 0x44
 800439c:	f7fd fb30 	bl	8001a00 <LCD_WR_DATAX>
 80043a0:	2000      	movs	r0, #0
 80043a2:	f7fd fb2d 	bl	8001a00 <LCD_WR_DATAX>
 80043a6:	2044      	movs	r0, #68	; 0x44
 80043a8:	f7fd fb2a 	bl	8001a00 <LCD_WR_DATAX>
 80043ac:	2000      	movs	r0, #0
 80043ae:	f7fd fb27 	bl	8001a00 <LCD_WR_DATAX>
 80043b2:	2055      	movs	r0, #85	; 0x55
 80043b4:	f7fd fb24 	bl	8001a00 <LCD_WR_DATAX>
 80043b8:	2000      	movs	r0, #0
 80043ba:	f7fd fb21 	bl	8001a00 <LCD_WR_DATAX>
 80043be:	20e9      	movs	r0, #233	; 0xe9
 80043c0:	f7fd fafa 	bl	80019b8 <LCD_WR_REG>
 80043c4:	20aa      	movs	r0, #170	; 0xaa
 80043c6:	f7fd fb1b 	bl	8001a00 <LCD_WR_DATAX>
 80043ca:	2000      	movs	r0, #0
 80043cc:	f7fd fb18 	bl	8001a00 <LCD_WR_DATAX>
 80043d0:	2000      	movs	r0, #0
 80043d2:	f7fd fb15 	bl	8001a00 <LCD_WR_DATAX>
 80043d6:	2000      	movs	r0, #0
 80043d8:	f7fd fb12 	bl	8001a00 <LCD_WR_DATAX>
 80043dc:	2000      	movs	r0, #0
 80043de:	f7fd faeb 	bl	80019b8 <LCD_WR_REG>
 80043e2:	20aa      	movs	r0, #170	; 0xaa
 80043e4:	f7fd fb0c 	bl	8001a00 <LCD_WR_DATAX>
 80043e8:	20cf      	movs	r0, #207	; 0xcf
 80043ea:	f7fd fae5 	bl	80019b8 <LCD_WR_REG>
 80043ee:	2000      	movs	r0, #0
 80043f0:	f7fd fb06 	bl	8001a00 <LCD_WR_DATAX>
 80043f4:	2000      	movs	r0, #0
 80043f6:	f7fd fb03 	bl	8001a00 <LCD_WR_DATAX>
 80043fa:	2000      	movs	r0, #0
 80043fc:	f7fd fb00 	bl	8001a00 <LCD_WR_DATAX>
 8004400:	2000      	movs	r0, #0
 8004402:	f7fd fafd 	bl	8001a00 <LCD_WR_DATAX>
 8004406:	2000      	movs	r0, #0
 8004408:	f7fd fafa 	bl	8001a00 <LCD_WR_DATAX>
 800440c:	2000      	movs	r0, #0
 800440e:	f7fd faf7 	bl	8001a00 <LCD_WR_DATAX>
 8004412:	2000      	movs	r0, #0
 8004414:	f7fd faf4 	bl	8001a00 <LCD_WR_DATAX>
 8004418:	2000      	movs	r0, #0
 800441a:	f7fd faf1 	bl	8001a00 <LCD_WR_DATAX>
 800441e:	2000      	movs	r0, #0
 8004420:	f7fd faee 	bl	8001a00 <LCD_WR_DATAX>
 8004424:	2000      	movs	r0, #0
 8004426:	f7fd faeb 	bl	8001a00 <LCD_WR_DATAX>
 800442a:	2000      	movs	r0, #0
 800442c:	f7fd fae8 	bl	8001a00 <LCD_WR_DATAX>
 8004430:	2000      	movs	r0, #0
 8004432:	f7fd fae5 	bl	8001a00 <LCD_WR_DATAX>
 8004436:	2000      	movs	r0, #0
 8004438:	f7fd fae2 	bl	8001a00 <LCD_WR_DATAX>
 800443c:	2000      	movs	r0, #0
 800443e:	f7fd fadf 	bl	8001a00 <LCD_WR_DATAX>
 8004442:	2000      	movs	r0, #0
 8004444:	f7fd fadc 	bl	8001a00 <LCD_WR_DATAX>
 8004448:	2000      	movs	r0, #0
 800444a:	f7fd fad9 	bl	8001a00 <LCD_WR_DATAX>
 800444e:	2000      	movs	r0, #0
 8004450:	f7fd fad6 	bl	8001a00 <LCD_WR_DATAX>
 8004454:	20f0      	movs	r0, #240	; 0xf0
 8004456:	f7fd faaf 	bl	80019b8 <LCD_WR_REG>
 800445a:	2000      	movs	r0, #0
 800445c:	f7fd fad0 	bl	8001a00 <LCD_WR_DATAX>
 8004460:	2050      	movs	r0, #80	; 0x50
 8004462:	f7fd facd 	bl	8001a00 <LCD_WR_DATAX>
 8004466:	2000      	movs	r0, #0
 8004468:	f7fd faca 	bl	8001a00 <LCD_WR_DATAX>
 800446c:	2000      	movs	r0, #0
 800446e:	f7fd fac7 	bl	8001a00 <LCD_WR_DATAX>
 8004472:	2000      	movs	r0, #0
 8004474:	f7fd fac4 	bl	8001a00 <LCD_WR_DATAX>
 8004478:	20f3      	movs	r0, #243	; 0xf3
 800447a:	f7fd fa9d 	bl	80019b8 <LCD_WR_REG>
 800447e:	2000      	movs	r0, #0
 8004480:	f7fd fabe 	bl	8001a00 <LCD_WR_DATAX>
 8004484:	20f9      	movs	r0, #249	; 0xf9
 8004486:	f7fd fa97 	bl	80019b8 <LCD_WR_REG>
 800448a:	2006      	movs	r0, #6
 800448c:	f7fd fab8 	bl	8001a00 <LCD_WR_DATAX>
 8004490:	2010      	movs	r0, #16
 8004492:	f7fd fab5 	bl	8001a00 <LCD_WR_DATAX>
 8004496:	2029      	movs	r0, #41	; 0x29
 8004498:	f7fd fab2 	bl	8001a00 <LCD_WR_DATAX>
 800449c:	2000      	movs	r0, #0
 800449e:	f7fd faaf 	bl	8001a00 <LCD_WR_DATAX>
 80044a2:	203a      	movs	r0, #58	; 0x3a
 80044a4:	f7fd fa88 	bl	80019b8 <LCD_WR_REG>
 80044a8:	2055      	movs	r0, #85	; 0x55
 80044aa:	f7fd faa9 	bl	8001a00 <LCD_WR_DATAX>
 80044ae:	2011      	movs	r0, #17
 80044b0:	f7fd fa82 	bl	80019b8 <LCD_WR_REG>
 80044b4:	2064      	movs	r0, #100	; 0x64
 80044b6:	f7fc fb07 	bl	8000ac8 <HAL_Delay>
 80044ba:	2029      	movs	r0, #41	; 0x29
 80044bc:	f7fd fa7c 	bl	80019b8 <LCD_WR_REG>
 80044c0:	2035      	movs	r0, #53	; 0x35
 80044c2:	f7fd fa79 	bl	80019b8 <LCD_WR_REG>
 80044c6:	2000      	movs	r0, #0
 80044c8:	f7fd fa9a 	bl	8001a00 <LCD_WR_DATAX>
 80044cc:	2051      	movs	r0, #81	; 0x51
 80044ce:	f7fd fa73 	bl	80019b8 <LCD_WR_REG>
 80044d2:	20ff      	movs	r0, #255	; 0xff
 80044d4:	f7fd fa94 	bl	8001a00 <LCD_WR_DATAX>
 80044d8:	2053      	movs	r0, #83	; 0x53
 80044da:	f7fd fa6d 	bl	80019b8 <LCD_WR_REG>
 80044de:	202c      	movs	r0, #44	; 0x2c
 80044e0:	f7fd fa8e 	bl	8001a00 <LCD_WR_DATAX>
 80044e4:	2055      	movs	r0, #85	; 0x55
 80044e6:	f7fd fa67 	bl	80019b8 <LCD_WR_REG>
 80044ea:	2082      	movs	r0, #130	; 0x82
 80044ec:	f7fd fa88 	bl	8001a00 <LCD_WR_DATAX>
 80044f0:	202c      	movs	r0, #44	; 0x2c
 80044f2:	f7fd fa61 	bl	80019b8 <LCD_WR_REG>
 80044f6:	f002 bca1 	b.w	8006e3c <LCD_Init+0x3e34>
 80044fa:	4b04      	ldr	r3, [pc, #16]	; (800450c <LCD_Init+0x1504>)
 80044fc:	889b      	ldrh	r3, [r3, #4]
 80044fe:	f245 5210 	movw	r2, #21776	; 0x5510
 8004502:	4293      	cmp	r3, r2
 8004504:	f040 8782 	bne.w	800540c <LCD_Init+0x2404>
 8004508:	e002      	b.n	8004510 <LCD_Init+0x1508>
 800450a:	bf00      	nop
 800450c:	20000030 	.word	0x20000030
 8004510:	2155      	movs	r1, #85	; 0x55
 8004512:	f44f 4070 	mov.w	r0, #61440	; 0xf000
 8004516:	f7fd fadb 	bl	8001ad0 <LCD_WriteReg>
 800451a:	21aa      	movs	r1, #170	; 0xaa
 800451c:	f24f 0001 	movw	r0, #61441	; 0xf001
 8004520:	f7fd fad6 	bl	8001ad0 <LCD_WriteReg>
 8004524:	2152      	movs	r1, #82	; 0x52
 8004526:	f24f 0002 	movw	r0, #61442	; 0xf002
 800452a:	f7fd fad1 	bl	8001ad0 <LCD_WriteReg>
 800452e:	2108      	movs	r1, #8
 8004530:	f24f 0003 	movw	r0, #61443	; 0xf003
 8004534:	f7fd facc 	bl	8001ad0 <LCD_WriteReg>
 8004538:	2101      	movs	r1, #1
 800453a:	f24f 0004 	movw	r0, #61444	; 0xf004
 800453e:	f7fd fac7 	bl	8001ad0 <LCD_WriteReg>
 8004542:	210d      	movs	r1, #13
 8004544:	f44f 4030 	mov.w	r0, #45056	; 0xb000
 8004548:	f7fd fac2 	bl	8001ad0 <LCD_WriteReg>
 800454c:	210d      	movs	r1, #13
 800454e:	f24b 0001 	movw	r0, #45057	; 0xb001
 8004552:	f7fd fabd 	bl	8001ad0 <LCD_WriteReg>
 8004556:	210d      	movs	r1, #13
 8004558:	f24b 0002 	movw	r0, #45058	; 0xb002
 800455c:	f7fd fab8 	bl	8001ad0 <LCD_WriteReg>
 8004560:	2134      	movs	r1, #52	; 0x34
 8004562:	f44f 4036 	mov.w	r0, #46592	; 0xb600
 8004566:	f7fd fab3 	bl	8001ad0 <LCD_WriteReg>
 800456a:	2134      	movs	r1, #52	; 0x34
 800456c:	f24b 6001 	movw	r0, #46593	; 0xb601
 8004570:	f7fd faae 	bl	8001ad0 <LCD_WriteReg>
 8004574:	2134      	movs	r1, #52	; 0x34
 8004576:	f24b 6002 	movw	r0, #46594	; 0xb602
 800457a:	f7fd faa9 	bl	8001ad0 <LCD_WriteReg>
 800457e:	210d      	movs	r1, #13
 8004580:	f44f 4031 	mov.w	r0, #45312	; 0xb100
 8004584:	f7fd faa4 	bl	8001ad0 <LCD_WriteReg>
 8004588:	210d      	movs	r1, #13
 800458a:	f24b 1001 	movw	r0, #45313	; 0xb101
 800458e:	f7fd fa9f 	bl	8001ad0 <LCD_WriteReg>
 8004592:	210d      	movs	r1, #13
 8004594:	f24b 1002 	movw	r0, #45314	; 0xb102
 8004598:	f7fd fa9a 	bl	8001ad0 <LCD_WriteReg>
 800459c:	2134      	movs	r1, #52	; 0x34
 800459e:	f44f 4037 	mov.w	r0, #46848	; 0xb700
 80045a2:	f7fd fa95 	bl	8001ad0 <LCD_WriteReg>
 80045a6:	2134      	movs	r1, #52	; 0x34
 80045a8:	f24b 7001 	movw	r0, #46849	; 0xb701
 80045ac:	f7fd fa90 	bl	8001ad0 <LCD_WriteReg>
 80045b0:	2134      	movs	r1, #52	; 0x34
 80045b2:	f24b 7002 	movw	r0, #46850	; 0xb702
 80045b6:	f7fd fa8b 	bl	8001ad0 <LCD_WriteReg>
 80045ba:	2100      	movs	r1, #0
 80045bc:	f44f 4032 	mov.w	r0, #45568	; 0xb200
 80045c0:	f7fd fa86 	bl	8001ad0 <LCD_WriteReg>
 80045c4:	2100      	movs	r1, #0
 80045c6:	f24b 2001 	movw	r0, #45569	; 0xb201
 80045ca:	f7fd fa81 	bl	8001ad0 <LCD_WriteReg>
 80045ce:	2100      	movs	r1, #0
 80045d0:	f24b 2002 	movw	r0, #45570	; 0xb202
 80045d4:	f7fd fa7c 	bl	8001ad0 <LCD_WriteReg>
 80045d8:	2124      	movs	r1, #36	; 0x24
 80045da:	f44f 4038 	mov.w	r0, #47104	; 0xb800
 80045de:	f7fd fa77 	bl	8001ad0 <LCD_WriteReg>
 80045e2:	2124      	movs	r1, #36	; 0x24
 80045e4:	f64b 0001 	movw	r0, #47105	; 0xb801
 80045e8:	f7fd fa72 	bl	8001ad0 <LCD_WriteReg>
 80045ec:	2124      	movs	r1, #36	; 0x24
 80045ee:	f64b 0002 	movw	r0, #47106	; 0xb802
 80045f2:	f7fd fa6d 	bl	8001ad0 <LCD_WriteReg>
 80045f6:	2101      	movs	r1, #1
 80045f8:	f44f 403f 	mov.w	r0, #48896	; 0xbf00
 80045fc:	f7fd fa68 	bl	8001ad0 <LCD_WriteReg>
 8004600:	210f      	movs	r1, #15
 8004602:	f44f 4033 	mov.w	r0, #45824	; 0xb300
 8004606:	f7fd fa63 	bl	8001ad0 <LCD_WriteReg>
 800460a:	210f      	movs	r1, #15
 800460c:	f24b 3001 	movw	r0, #45825	; 0xb301
 8004610:	f7fd fa5e 	bl	8001ad0 <LCD_WriteReg>
 8004614:	210f      	movs	r1, #15
 8004616:	f24b 3002 	movw	r0, #45826	; 0xb302
 800461a:	f7fd fa59 	bl	8001ad0 <LCD_WriteReg>
 800461e:	2134      	movs	r1, #52	; 0x34
 8004620:	f44f 4039 	mov.w	r0, #47360	; 0xb900
 8004624:	f7fd fa54 	bl	8001ad0 <LCD_WriteReg>
 8004628:	2134      	movs	r1, #52	; 0x34
 800462a:	f64b 1001 	movw	r0, #47361	; 0xb901
 800462e:	f7fd fa4f 	bl	8001ad0 <LCD_WriteReg>
 8004632:	2134      	movs	r1, #52	; 0x34
 8004634:	f64b 1002 	movw	r0, #47362	; 0xb902
 8004638:	f7fd fa4a 	bl	8001ad0 <LCD_WriteReg>
 800463c:	2108      	movs	r1, #8
 800463e:	f44f 4035 	mov.w	r0, #46336	; 0xb500
 8004642:	f7fd fa45 	bl	8001ad0 <LCD_WriteReg>
 8004646:	2108      	movs	r1, #8
 8004648:	f24b 5001 	movw	r0, #46337	; 0xb501
 800464c:	f7fd fa40 	bl	8001ad0 <LCD_WriteReg>
 8004650:	2108      	movs	r1, #8
 8004652:	f24b 5002 	movw	r0, #46338	; 0xb502
 8004656:	f7fd fa3b 	bl	8001ad0 <LCD_WriteReg>
 800465a:	2103      	movs	r1, #3
 800465c:	f44f 4042 	mov.w	r0, #49664	; 0xc200
 8004660:	f7fd fa36 	bl	8001ad0 <LCD_WriteReg>
 8004664:	2124      	movs	r1, #36	; 0x24
 8004666:	f44f 403a 	mov.w	r0, #47616	; 0xba00
 800466a:	f7fd fa31 	bl	8001ad0 <LCD_WriteReg>
 800466e:	2124      	movs	r1, #36	; 0x24
 8004670:	f64b 2001 	movw	r0, #47617	; 0xba01
 8004674:	f7fd fa2c 	bl	8001ad0 <LCD_WriteReg>
 8004678:	2124      	movs	r1, #36	; 0x24
 800467a:	f64b 2002 	movw	r0, #47618	; 0xba02
 800467e:	f7fd fa27 	bl	8001ad0 <LCD_WriteReg>
 8004682:	2100      	movs	r1, #0
 8004684:	f44f 403c 	mov.w	r0, #48128	; 0xbc00
 8004688:	f7fd fa22 	bl	8001ad0 <LCD_WriteReg>
 800468c:	2178      	movs	r1, #120	; 0x78
 800468e:	f64b 4001 	movw	r0, #48129	; 0xbc01
 8004692:	f7fd fa1d 	bl	8001ad0 <LCD_WriteReg>
 8004696:	2100      	movs	r1, #0
 8004698:	f64b 4002 	movw	r0, #48130	; 0xbc02
 800469c:	f7fd fa18 	bl	8001ad0 <LCD_WriteReg>
 80046a0:	2100      	movs	r1, #0
 80046a2:	f44f 403d 	mov.w	r0, #48384	; 0xbd00
 80046a6:	f7fd fa13 	bl	8001ad0 <LCD_WriteReg>
 80046aa:	2178      	movs	r1, #120	; 0x78
 80046ac:	f64b 5001 	movw	r0, #48385	; 0xbd01
 80046b0:	f7fd fa0e 	bl	8001ad0 <LCD_WriteReg>
 80046b4:	2100      	movs	r1, #0
 80046b6:	f64b 5002 	movw	r0, #48386	; 0xbd02
 80046ba:	f7fd fa09 	bl	8001ad0 <LCD_WriteReg>
 80046be:	2100      	movs	r1, #0
 80046c0:	f44f 403e 	mov.w	r0, #48640	; 0xbe00
 80046c4:	f7fd fa04 	bl	8001ad0 <LCD_WriteReg>
 80046c8:	2164      	movs	r1, #100	; 0x64
 80046ca:	f64b 6001 	movw	r0, #48641	; 0xbe01
 80046ce:	f7fd f9ff 	bl	8001ad0 <LCD_WriteReg>
 80046d2:	2100      	movs	r1, #0
 80046d4:	f44f 4051 	mov.w	r0, #53504	; 0xd100
 80046d8:	f7fd f9fa 	bl	8001ad0 <LCD_WriteReg>
 80046dc:	2133      	movs	r1, #51	; 0x33
 80046de:	f24d 1001 	movw	r0, #53505	; 0xd101
 80046e2:	f7fd f9f5 	bl	8001ad0 <LCD_WriteReg>
 80046e6:	2100      	movs	r1, #0
 80046e8:	f24d 1002 	movw	r0, #53506	; 0xd102
 80046ec:	f7fd f9f0 	bl	8001ad0 <LCD_WriteReg>
 80046f0:	2134      	movs	r1, #52	; 0x34
 80046f2:	f24d 1003 	movw	r0, #53507	; 0xd103
 80046f6:	f7fd f9eb 	bl	8001ad0 <LCD_WriteReg>
 80046fa:	2100      	movs	r1, #0
 80046fc:	f24d 1004 	movw	r0, #53508	; 0xd104
 8004700:	f7fd f9e6 	bl	8001ad0 <LCD_WriteReg>
 8004704:	213a      	movs	r1, #58	; 0x3a
 8004706:	f24d 1005 	movw	r0, #53509	; 0xd105
 800470a:	f7fd f9e1 	bl	8001ad0 <LCD_WriteReg>
 800470e:	2100      	movs	r1, #0
 8004710:	f24d 1006 	movw	r0, #53510	; 0xd106
 8004714:	f7fd f9dc 	bl	8001ad0 <LCD_WriteReg>
 8004718:	214a      	movs	r1, #74	; 0x4a
 800471a:	f24d 1007 	movw	r0, #53511	; 0xd107
 800471e:	f7fd f9d7 	bl	8001ad0 <LCD_WriteReg>
 8004722:	2100      	movs	r1, #0
 8004724:	f24d 1008 	movw	r0, #53512	; 0xd108
 8004728:	f7fd f9d2 	bl	8001ad0 <LCD_WriteReg>
 800472c:	215c      	movs	r1, #92	; 0x5c
 800472e:	f24d 1009 	movw	r0, #53513	; 0xd109
 8004732:	f7fd f9cd 	bl	8001ad0 <LCD_WriteReg>
 8004736:	2100      	movs	r1, #0
 8004738:	f24d 100a 	movw	r0, #53514	; 0xd10a
 800473c:	f7fd f9c8 	bl	8001ad0 <LCD_WriteReg>
 8004740:	2181      	movs	r1, #129	; 0x81
 8004742:	f24d 100b 	movw	r0, #53515	; 0xd10b
 8004746:	f7fd f9c3 	bl	8001ad0 <LCD_WriteReg>
 800474a:	2100      	movs	r1, #0
 800474c:	f24d 100c 	movw	r0, #53516	; 0xd10c
 8004750:	f7fd f9be 	bl	8001ad0 <LCD_WriteReg>
 8004754:	21a6      	movs	r1, #166	; 0xa6
 8004756:	f24d 100d 	movw	r0, #53517	; 0xd10d
 800475a:	f7fd f9b9 	bl	8001ad0 <LCD_WriteReg>
 800475e:	2100      	movs	r1, #0
 8004760:	f24d 100e 	movw	r0, #53518	; 0xd10e
 8004764:	f7fd f9b4 	bl	8001ad0 <LCD_WriteReg>
 8004768:	21e5      	movs	r1, #229	; 0xe5
 800476a:	f24d 100f 	movw	r0, #53519	; 0xd10f
 800476e:	f7fd f9af 	bl	8001ad0 <LCD_WriteReg>
 8004772:	2101      	movs	r1, #1
 8004774:	f24d 1010 	movw	r0, #53520	; 0xd110
 8004778:	f7fd f9aa 	bl	8001ad0 <LCD_WriteReg>
 800477c:	2113      	movs	r1, #19
 800477e:	f24d 1011 	movw	r0, #53521	; 0xd111
 8004782:	f7fd f9a5 	bl	8001ad0 <LCD_WriteReg>
 8004786:	2101      	movs	r1, #1
 8004788:	f24d 1012 	movw	r0, #53522	; 0xd112
 800478c:	f7fd f9a0 	bl	8001ad0 <LCD_WriteReg>
 8004790:	2154      	movs	r1, #84	; 0x54
 8004792:	f24d 1013 	movw	r0, #53523	; 0xd113
 8004796:	f7fd f99b 	bl	8001ad0 <LCD_WriteReg>
 800479a:	2101      	movs	r1, #1
 800479c:	f24d 1014 	movw	r0, #53524	; 0xd114
 80047a0:	f7fd f996 	bl	8001ad0 <LCD_WriteReg>
 80047a4:	2182      	movs	r1, #130	; 0x82
 80047a6:	f24d 1015 	movw	r0, #53525	; 0xd115
 80047aa:	f7fd f991 	bl	8001ad0 <LCD_WriteReg>
 80047ae:	2101      	movs	r1, #1
 80047b0:	f24d 1016 	movw	r0, #53526	; 0xd116
 80047b4:	f7fd f98c 	bl	8001ad0 <LCD_WriteReg>
 80047b8:	21ca      	movs	r1, #202	; 0xca
 80047ba:	f24d 1017 	movw	r0, #53527	; 0xd117
 80047be:	f7fd f987 	bl	8001ad0 <LCD_WriteReg>
 80047c2:	2102      	movs	r1, #2
 80047c4:	f24d 1018 	movw	r0, #53528	; 0xd118
 80047c8:	f7fd f982 	bl	8001ad0 <LCD_WriteReg>
 80047cc:	2100      	movs	r1, #0
 80047ce:	f24d 1019 	movw	r0, #53529	; 0xd119
 80047d2:	f7fd f97d 	bl	8001ad0 <LCD_WriteReg>
 80047d6:	2102      	movs	r1, #2
 80047d8:	f24d 101a 	movw	r0, #53530	; 0xd11a
 80047dc:	f7fd f978 	bl	8001ad0 <LCD_WriteReg>
 80047e0:	2101      	movs	r1, #1
 80047e2:	f24d 101b 	movw	r0, #53531	; 0xd11b
 80047e6:	f7fd f973 	bl	8001ad0 <LCD_WriteReg>
 80047ea:	2102      	movs	r1, #2
 80047ec:	f24d 101c 	movw	r0, #53532	; 0xd11c
 80047f0:	f7fd f96e 	bl	8001ad0 <LCD_WriteReg>
 80047f4:	2134      	movs	r1, #52	; 0x34
 80047f6:	f24d 101d 	movw	r0, #53533	; 0xd11d
 80047fa:	f7fd f969 	bl	8001ad0 <LCD_WriteReg>
 80047fe:	2102      	movs	r1, #2
 8004800:	f24d 101e 	movw	r0, #53534	; 0xd11e
 8004804:	f7fd f964 	bl	8001ad0 <LCD_WriteReg>
 8004808:	2167      	movs	r1, #103	; 0x67
 800480a:	f24d 101f 	movw	r0, #53535	; 0xd11f
 800480e:	f7fd f95f 	bl	8001ad0 <LCD_WriteReg>
 8004812:	2102      	movs	r1, #2
 8004814:	f24d 1020 	movw	r0, #53536	; 0xd120
 8004818:	f7fd f95a 	bl	8001ad0 <LCD_WriteReg>
 800481c:	2184      	movs	r1, #132	; 0x84
 800481e:	f24d 1021 	movw	r0, #53537	; 0xd121
 8004822:	f7fd f955 	bl	8001ad0 <LCD_WriteReg>
 8004826:	2102      	movs	r1, #2
 8004828:	f24d 1022 	movw	r0, #53538	; 0xd122
 800482c:	f7fd f950 	bl	8001ad0 <LCD_WriteReg>
 8004830:	21a4      	movs	r1, #164	; 0xa4
 8004832:	f24d 1023 	movw	r0, #53539	; 0xd123
 8004836:	f7fd f94b 	bl	8001ad0 <LCD_WriteReg>
 800483a:	2102      	movs	r1, #2
 800483c:	f24d 1024 	movw	r0, #53540	; 0xd124
 8004840:	f7fd f946 	bl	8001ad0 <LCD_WriteReg>
 8004844:	21b7      	movs	r1, #183	; 0xb7
 8004846:	f24d 1025 	movw	r0, #53541	; 0xd125
 800484a:	f7fd f941 	bl	8001ad0 <LCD_WriteReg>
 800484e:	2102      	movs	r1, #2
 8004850:	f24d 1026 	movw	r0, #53542	; 0xd126
 8004854:	f7fd f93c 	bl	8001ad0 <LCD_WriteReg>
 8004858:	21cf      	movs	r1, #207	; 0xcf
 800485a:	f24d 1027 	movw	r0, #53543	; 0xd127
 800485e:	f7fd f937 	bl	8001ad0 <LCD_WriteReg>
 8004862:	2102      	movs	r1, #2
 8004864:	f24d 1028 	movw	r0, #53544	; 0xd128
 8004868:	f7fd f932 	bl	8001ad0 <LCD_WriteReg>
 800486c:	21de      	movs	r1, #222	; 0xde
 800486e:	f24d 1029 	movw	r0, #53545	; 0xd129
 8004872:	f7fd f92d 	bl	8001ad0 <LCD_WriteReg>
 8004876:	2102      	movs	r1, #2
 8004878:	f24d 102a 	movw	r0, #53546	; 0xd12a
 800487c:	f7fd f928 	bl	8001ad0 <LCD_WriteReg>
 8004880:	21f2      	movs	r1, #242	; 0xf2
 8004882:	f24d 102b 	movw	r0, #53547	; 0xd12b
 8004886:	f7fd f923 	bl	8001ad0 <LCD_WriteReg>
 800488a:	2102      	movs	r1, #2
 800488c:	f24d 102c 	movw	r0, #53548	; 0xd12c
 8004890:	f7fd f91e 	bl	8001ad0 <LCD_WriteReg>
 8004894:	21fe      	movs	r1, #254	; 0xfe
 8004896:	f24d 102d 	movw	r0, #53549	; 0xd12d
 800489a:	f7fd f919 	bl	8001ad0 <LCD_WriteReg>
 800489e:	2103      	movs	r1, #3
 80048a0:	f24d 102e 	movw	r0, #53550	; 0xd12e
 80048a4:	f7fd f914 	bl	8001ad0 <LCD_WriteReg>
 80048a8:	2110      	movs	r1, #16
 80048aa:	f24d 102f 	movw	r0, #53551	; 0xd12f
 80048ae:	f7fd f90f 	bl	8001ad0 <LCD_WriteReg>
 80048b2:	2103      	movs	r1, #3
 80048b4:	f24d 1030 	movw	r0, #53552	; 0xd130
 80048b8:	f7fd f90a 	bl	8001ad0 <LCD_WriteReg>
 80048bc:	2133      	movs	r1, #51	; 0x33
 80048be:	f24d 1031 	movw	r0, #53553	; 0xd131
 80048c2:	f7fd f905 	bl	8001ad0 <LCD_WriteReg>
 80048c6:	2103      	movs	r1, #3
 80048c8:	f24d 1032 	movw	r0, #53554	; 0xd132
 80048cc:	f7fd f900 	bl	8001ad0 <LCD_WriteReg>
 80048d0:	216d      	movs	r1, #109	; 0x6d
 80048d2:	f24d 1033 	movw	r0, #53555	; 0xd133
 80048d6:	f7fd f8fb 	bl	8001ad0 <LCD_WriteReg>
 80048da:	2100      	movs	r1, #0
 80048dc:	f44f 4052 	mov.w	r0, #53760	; 0xd200
 80048e0:	f7fd f8f6 	bl	8001ad0 <LCD_WriteReg>
 80048e4:	2133      	movs	r1, #51	; 0x33
 80048e6:	f24d 2001 	movw	r0, #53761	; 0xd201
 80048ea:	f7fd f8f1 	bl	8001ad0 <LCD_WriteReg>
 80048ee:	2100      	movs	r1, #0
 80048f0:	f24d 2002 	movw	r0, #53762	; 0xd202
 80048f4:	f7fd f8ec 	bl	8001ad0 <LCD_WriteReg>
 80048f8:	2134      	movs	r1, #52	; 0x34
 80048fa:	f24d 2003 	movw	r0, #53763	; 0xd203
 80048fe:	f7fd f8e7 	bl	8001ad0 <LCD_WriteReg>
 8004902:	2100      	movs	r1, #0
 8004904:	f24d 2004 	movw	r0, #53764	; 0xd204
 8004908:	f7fd f8e2 	bl	8001ad0 <LCD_WriteReg>
 800490c:	213a      	movs	r1, #58	; 0x3a
 800490e:	f24d 2005 	movw	r0, #53765	; 0xd205
 8004912:	f7fd f8dd 	bl	8001ad0 <LCD_WriteReg>
 8004916:	2100      	movs	r1, #0
 8004918:	f24d 2006 	movw	r0, #53766	; 0xd206
 800491c:	f7fd f8d8 	bl	8001ad0 <LCD_WriteReg>
 8004920:	214a      	movs	r1, #74	; 0x4a
 8004922:	f24d 2007 	movw	r0, #53767	; 0xd207
 8004926:	f7fd f8d3 	bl	8001ad0 <LCD_WriteReg>
 800492a:	2100      	movs	r1, #0
 800492c:	f24d 2008 	movw	r0, #53768	; 0xd208
 8004930:	f7fd f8ce 	bl	8001ad0 <LCD_WriteReg>
 8004934:	215c      	movs	r1, #92	; 0x5c
 8004936:	f24d 2009 	movw	r0, #53769	; 0xd209
 800493a:	f7fd f8c9 	bl	8001ad0 <LCD_WriteReg>
 800493e:	2100      	movs	r1, #0
 8004940:	f24d 200a 	movw	r0, #53770	; 0xd20a
 8004944:	f7fd f8c4 	bl	8001ad0 <LCD_WriteReg>
 8004948:	2181      	movs	r1, #129	; 0x81
 800494a:	f24d 200b 	movw	r0, #53771	; 0xd20b
 800494e:	f7fd f8bf 	bl	8001ad0 <LCD_WriteReg>
 8004952:	2100      	movs	r1, #0
 8004954:	f24d 200c 	movw	r0, #53772	; 0xd20c
 8004958:	f7fd f8ba 	bl	8001ad0 <LCD_WriteReg>
 800495c:	21a6      	movs	r1, #166	; 0xa6
 800495e:	f24d 200d 	movw	r0, #53773	; 0xd20d
 8004962:	f7fd f8b5 	bl	8001ad0 <LCD_WriteReg>
 8004966:	2100      	movs	r1, #0
 8004968:	f24d 200e 	movw	r0, #53774	; 0xd20e
 800496c:	f7fd f8b0 	bl	8001ad0 <LCD_WriteReg>
 8004970:	21e5      	movs	r1, #229	; 0xe5
 8004972:	f24d 200f 	movw	r0, #53775	; 0xd20f
 8004976:	f7fd f8ab 	bl	8001ad0 <LCD_WriteReg>
 800497a:	2101      	movs	r1, #1
 800497c:	f24d 2010 	movw	r0, #53776	; 0xd210
 8004980:	f7fd f8a6 	bl	8001ad0 <LCD_WriteReg>
 8004984:	2113      	movs	r1, #19
 8004986:	f24d 2011 	movw	r0, #53777	; 0xd211
 800498a:	f7fd f8a1 	bl	8001ad0 <LCD_WriteReg>
 800498e:	2101      	movs	r1, #1
 8004990:	f24d 2012 	movw	r0, #53778	; 0xd212
 8004994:	f7fd f89c 	bl	8001ad0 <LCD_WriteReg>
 8004998:	2154      	movs	r1, #84	; 0x54
 800499a:	f24d 2013 	movw	r0, #53779	; 0xd213
 800499e:	f7fd f897 	bl	8001ad0 <LCD_WriteReg>
 80049a2:	2101      	movs	r1, #1
 80049a4:	f24d 2014 	movw	r0, #53780	; 0xd214
 80049a8:	f7fd f892 	bl	8001ad0 <LCD_WriteReg>
 80049ac:	2182      	movs	r1, #130	; 0x82
 80049ae:	f24d 2015 	movw	r0, #53781	; 0xd215
 80049b2:	f7fd f88d 	bl	8001ad0 <LCD_WriteReg>
 80049b6:	2101      	movs	r1, #1
 80049b8:	f24d 2016 	movw	r0, #53782	; 0xd216
 80049bc:	f7fd f888 	bl	8001ad0 <LCD_WriteReg>
 80049c0:	21ca      	movs	r1, #202	; 0xca
 80049c2:	f24d 2017 	movw	r0, #53783	; 0xd217
 80049c6:	f7fd f883 	bl	8001ad0 <LCD_WriteReg>
 80049ca:	2102      	movs	r1, #2
 80049cc:	f24d 2018 	movw	r0, #53784	; 0xd218
 80049d0:	f7fd f87e 	bl	8001ad0 <LCD_WriteReg>
 80049d4:	2100      	movs	r1, #0
 80049d6:	f24d 2019 	movw	r0, #53785	; 0xd219
 80049da:	f7fd f879 	bl	8001ad0 <LCD_WriteReg>
 80049de:	2102      	movs	r1, #2
 80049e0:	f24d 201a 	movw	r0, #53786	; 0xd21a
 80049e4:	f7fd f874 	bl	8001ad0 <LCD_WriteReg>
 80049e8:	2101      	movs	r1, #1
 80049ea:	f24d 201b 	movw	r0, #53787	; 0xd21b
 80049ee:	f7fd f86f 	bl	8001ad0 <LCD_WriteReg>
 80049f2:	2102      	movs	r1, #2
 80049f4:	f24d 201c 	movw	r0, #53788	; 0xd21c
 80049f8:	f7fd f86a 	bl	8001ad0 <LCD_WriteReg>
 80049fc:	2134      	movs	r1, #52	; 0x34
 80049fe:	f24d 201d 	movw	r0, #53789	; 0xd21d
 8004a02:	f7fd f865 	bl	8001ad0 <LCD_WriteReg>
 8004a06:	2102      	movs	r1, #2
 8004a08:	f24d 201e 	movw	r0, #53790	; 0xd21e
 8004a0c:	f7fd f860 	bl	8001ad0 <LCD_WriteReg>
 8004a10:	2167      	movs	r1, #103	; 0x67
 8004a12:	f24d 201f 	movw	r0, #53791	; 0xd21f
 8004a16:	f7fd f85b 	bl	8001ad0 <LCD_WriteReg>
 8004a1a:	2102      	movs	r1, #2
 8004a1c:	f24d 2020 	movw	r0, #53792	; 0xd220
 8004a20:	f7fd f856 	bl	8001ad0 <LCD_WriteReg>
 8004a24:	2184      	movs	r1, #132	; 0x84
 8004a26:	f24d 2021 	movw	r0, #53793	; 0xd221
 8004a2a:	f7fd f851 	bl	8001ad0 <LCD_WriteReg>
 8004a2e:	2102      	movs	r1, #2
 8004a30:	f24d 2022 	movw	r0, #53794	; 0xd222
 8004a34:	f7fd f84c 	bl	8001ad0 <LCD_WriteReg>
 8004a38:	21a4      	movs	r1, #164	; 0xa4
 8004a3a:	f24d 2023 	movw	r0, #53795	; 0xd223
 8004a3e:	f7fd f847 	bl	8001ad0 <LCD_WriteReg>
 8004a42:	2102      	movs	r1, #2
 8004a44:	f24d 2024 	movw	r0, #53796	; 0xd224
 8004a48:	f7fd f842 	bl	8001ad0 <LCD_WriteReg>
 8004a4c:	21b7      	movs	r1, #183	; 0xb7
 8004a4e:	f24d 2025 	movw	r0, #53797	; 0xd225
 8004a52:	f7fd f83d 	bl	8001ad0 <LCD_WriteReg>
 8004a56:	2102      	movs	r1, #2
 8004a58:	f24d 2026 	movw	r0, #53798	; 0xd226
 8004a5c:	f7fd f838 	bl	8001ad0 <LCD_WriteReg>
 8004a60:	21cf      	movs	r1, #207	; 0xcf
 8004a62:	f24d 2027 	movw	r0, #53799	; 0xd227
 8004a66:	f7fd f833 	bl	8001ad0 <LCD_WriteReg>
 8004a6a:	2102      	movs	r1, #2
 8004a6c:	f24d 2028 	movw	r0, #53800	; 0xd228
 8004a70:	f7fd f82e 	bl	8001ad0 <LCD_WriteReg>
 8004a74:	21de      	movs	r1, #222	; 0xde
 8004a76:	f24d 2029 	movw	r0, #53801	; 0xd229
 8004a7a:	f7fd f829 	bl	8001ad0 <LCD_WriteReg>
 8004a7e:	2102      	movs	r1, #2
 8004a80:	f24d 202a 	movw	r0, #53802	; 0xd22a
 8004a84:	f7fd f824 	bl	8001ad0 <LCD_WriteReg>
 8004a88:	21f2      	movs	r1, #242	; 0xf2
 8004a8a:	f24d 202b 	movw	r0, #53803	; 0xd22b
 8004a8e:	f7fd f81f 	bl	8001ad0 <LCD_WriteReg>
 8004a92:	2102      	movs	r1, #2
 8004a94:	f24d 202c 	movw	r0, #53804	; 0xd22c
 8004a98:	f7fd f81a 	bl	8001ad0 <LCD_WriteReg>
 8004a9c:	21fe      	movs	r1, #254	; 0xfe
 8004a9e:	f24d 202d 	movw	r0, #53805	; 0xd22d
 8004aa2:	f7fd f815 	bl	8001ad0 <LCD_WriteReg>
 8004aa6:	2103      	movs	r1, #3
 8004aa8:	f24d 202e 	movw	r0, #53806	; 0xd22e
 8004aac:	f7fd f810 	bl	8001ad0 <LCD_WriteReg>
 8004ab0:	2110      	movs	r1, #16
 8004ab2:	f24d 202f 	movw	r0, #53807	; 0xd22f
 8004ab6:	f7fd f80b 	bl	8001ad0 <LCD_WriteReg>
 8004aba:	2103      	movs	r1, #3
 8004abc:	f24d 2030 	movw	r0, #53808	; 0xd230
 8004ac0:	f7fd f806 	bl	8001ad0 <LCD_WriteReg>
 8004ac4:	2133      	movs	r1, #51	; 0x33
 8004ac6:	f24d 2031 	movw	r0, #53809	; 0xd231
 8004aca:	f7fd f801 	bl	8001ad0 <LCD_WriteReg>
 8004ace:	2103      	movs	r1, #3
 8004ad0:	f24d 2032 	movw	r0, #53810	; 0xd232
 8004ad4:	f7fc fffc 	bl	8001ad0 <LCD_WriteReg>
 8004ad8:	216d      	movs	r1, #109	; 0x6d
 8004ada:	f24d 2033 	movw	r0, #53811	; 0xd233
 8004ade:	f7fc fff7 	bl	8001ad0 <LCD_WriteReg>
 8004ae2:	2100      	movs	r1, #0
 8004ae4:	f44f 4053 	mov.w	r0, #54016	; 0xd300
 8004ae8:	f7fc fff2 	bl	8001ad0 <LCD_WriteReg>
 8004aec:	2133      	movs	r1, #51	; 0x33
 8004aee:	f24d 3001 	movw	r0, #54017	; 0xd301
 8004af2:	f7fc ffed 	bl	8001ad0 <LCD_WriteReg>
 8004af6:	2100      	movs	r1, #0
 8004af8:	f24d 3002 	movw	r0, #54018	; 0xd302
 8004afc:	f7fc ffe8 	bl	8001ad0 <LCD_WriteReg>
 8004b00:	2134      	movs	r1, #52	; 0x34
 8004b02:	f24d 3003 	movw	r0, #54019	; 0xd303
 8004b06:	f7fc ffe3 	bl	8001ad0 <LCD_WriteReg>
 8004b0a:	2100      	movs	r1, #0
 8004b0c:	f24d 3004 	movw	r0, #54020	; 0xd304
 8004b10:	f7fc ffde 	bl	8001ad0 <LCD_WriteReg>
 8004b14:	213a      	movs	r1, #58	; 0x3a
 8004b16:	f24d 3005 	movw	r0, #54021	; 0xd305
 8004b1a:	f7fc ffd9 	bl	8001ad0 <LCD_WriteReg>
 8004b1e:	2100      	movs	r1, #0
 8004b20:	f24d 3006 	movw	r0, #54022	; 0xd306
 8004b24:	f7fc ffd4 	bl	8001ad0 <LCD_WriteReg>
 8004b28:	214a      	movs	r1, #74	; 0x4a
 8004b2a:	f24d 3007 	movw	r0, #54023	; 0xd307
 8004b2e:	f7fc ffcf 	bl	8001ad0 <LCD_WriteReg>
 8004b32:	2100      	movs	r1, #0
 8004b34:	f24d 3008 	movw	r0, #54024	; 0xd308
 8004b38:	f7fc ffca 	bl	8001ad0 <LCD_WriteReg>
 8004b3c:	215c      	movs	r1, #92	; 0x5c
 8004b3e:	f24d 3009 	movw	r0, #54025	; 0xd309
 8004b42:	f7fc ffc5 	bl	8001ad0 <LCD_WriteReg>
 8004b46:	2100      	movs	r1, #0
 8004b48:	f24d 300a 	movw	r0, #54026	; 0xd30a
 8004b4c:	f7fc ffc0 	bl	8001ad0 <LCD_WriteReg>
 8004b50:	2181      	movs	r1, #129	; 0x81
 8004b52:	f24d 300b 	movw	r0, #54027	; 0xd30b
 8004b56:	f7fc ffbb 	bl	8001ad0 <LCD_WriteReg>
 8004b5a:	2100      	movs	r1, #0
 8004b5c:	f24d 300c 	movw	r0, #54028	; 0xd30c
 8004b60:	f7fc ffb6 	bl	8001ad0 <LCD_WriteReg>
 8004b64:	21a6      	movs	r1, #166	; 0xa6
 8004b66:	f24d 300d 	movw	r0, #54029	; 0xd30d
 8004b6a:	f7fc ffb1 	bl	8001ad0 <LCD_WriteReg>
 8004b6e:	2100      	movs	r1, #0
 8004b70:	f24d 300e 	movw	r0, #54030	; 0xd30e
 8004b74:	f7fc ffac 	bl	8001ad0 <LCD_WriteReg>
 8004b78:	21e5      	movs	r1, #229	; 0xe5
 8004b7a:	f24d 300f 	movw	r0, #54031	; 0xd30f
 8004b7e:	f7fc ffa7 	bl	8001ad0 <LCD_WriteReg>
 8004b82:	2101      	movs	r1, #1
 8004b84:	f24d 3010 	movw	r0, #54032	; 0xd310
 8004b88:	f7fc ffa2 	bl	8001ad0 <LCD_WriteReg>
 8004b8c:	2113      	movs	r1, #19
 8004b8e:	f24d 3011 	movw	r0, #54033	; 0xd311
 8004b92:	f7fc ff9d 	bl	8001ad0 <LCD_WriteReg>
 8004b96:	2101      	movs	r1, #1
 8004b98:	f24d 3012 	movw	r0, #54034	; 0xd312
 8004b9c:	f7fc ff98 	bl	8001ad0 <LCD_WriteReg>
 8004ba0:	2154      	movs	r1, #84	; 0x54
 8004ba2:	f24d 3013 	movw	r0, #54035	; 0xd313
 8004ba6:	f7fc ff93 	bl	8001ad0 <LCD_WriteReg>
 8004baa:	2101      	movs	r1, #1
 8004bac:	f24d 3014 	movw	r0, #54036	; 0xd314
 8004bb0:	f7fc ff8e 	bl	8001ad0 <LCD_WriteReg>
 8004bb4:	2182      	movs	r1, #130	; 0x82
 8004bb6:	f24d 3015 	movw	r0, #54037	; 0xd315
 8004bba:	f7fc ff89 	bl	8001ad0 <LCD_WriteReg>
 8004bbe:	2101      	movs	r1, #1
 8004bc0:	f24d 3016 	movw	r0, #54038	; 0xd316
 8004bc4:	f7fc ff84 	bl	8001ad0 <LCD_WriteReg>
 8004bc8:	21ca      	movs	r1, #202	; 0xca
 8004bca:	f24d 3017 	movw	r0, #54039	; 0xd317
 8004bce:	f7fc ff7f 	bl	8001ad0 <LCD_WriteReg>
 8004bd2:	2102      	movs	r1, #2
 8004bd4:	f24d 3018 	movw	r0, #54040	; 0xd318
 8004bd8:	f7fc ff7a 	bl	8001ad0 <LCD_WriteReg>
 8004bdc:	2100      	movs	r1, #0
 8004bde:	f24d 3019 	movw	r0, #54041	; 0xd319
 8004be2:	f7fc ff75 	bl	8001ad0 <LCD_WriteReg>
 8004be6:	2102      	movs	r1, #2
 8004be8:	f24d 301a 	movw	r0, #54042	; 0xd31a
 8004bec:	f7fc ff70 	bl	8001ad0 <LCD_WriteReg>
 8004bf0:	2101      	movs	r1, #1
 8004bf2:	f24d 301b 	movw	r0, #54043	; 0xd31b
 8004bf6:	f7fc ff6b 	bl	8001ad0 <LCD_WriteReg>
 8004bfa:	2102      	movs	r1, #2
 8004bfc:	f24d 301c 	movw	r0, #54044	; 0xd31c
 8004c00:	f7fc ff66 	bl	8001ad0 <LCD_WriteReg>
 8004c04:	2134      	movs	r1, #52	; 0x34
 8004c06:	f24d 301d 	movw	r0, #54045	; 0xd31d
 8004c0a:	f7fc ff61 	bl	8001ad0 <LCD_WriteReg>
 8004c0e:	2102      	movs	r1, #2
 8004c10:	f24d 301e 	movw	r0, #54046	; 0xd31e
 8004c14:	f7fc ff5c 	bl	8001ad0 <LCD_WriteReg>
 8004c18:	2167      	movs	r1, #103	; 0x67
 8004c1a:	f24d 301f 	movw	r0, #54047	; 0xd31f
 8004c1e:	f7fc ff57 	bl	8001ad0 <LCD_WriteReg>
 8004c22:	2102      	movs	r1, #2
 8004c24:	f24d 3020 	movw	r0, #54048	; 0xd320
 8004c28:	f7fc ff52 	bl	8001ad0 <LCD_WriteReg>
 8004c2c:	2184      	movs	r1, #132	; 0x84
 8004c2e:	f24d 3021 	movw	r0, #54049	; 0xd321
 8004c32:	f7fc ff4d 	bl	8001ad0 <LCD_WriteReg>
 8004c36:	2102      	movs	r1, #2
 8004c38:	f24d 3022 	movw	r0, #54050	; 0xd322
 8004c3c:	f7fc ff48 	bl	8001ad0 <LCD_WriteReg>
 8004c40:	21a4      	movs	r1, #164	; 0xa4
 8004c42:	f24d 3023 	movw	r0, #54051	; 0xd323
 8004c46:	f7fc ff43 	bl	8001ad0 <LCD_WriteReg>
 8004c4a:	2102      	movs	r1, #2
 8004c4c:	f24d 3024 	movw	r0, #54052	; 0xd324
 8004c50:	f7fc ff3e 	bl	8001ad0 <LCD_WriteReg>
 8004c54:	21b7      	movs	r1, #183	; 0xb7
 8004c56:	f24d 3025 	movw	r0, #54053	; 0xd325
 8004c5a:	f7fc ff39 	bl	8001ad0 <LCD_WriteReg>
 8004c5e:	2102      	movs	r1, #2
 8004c60:	f24d 3026 	movw	r0, #54054	; 0xd326
 8004c64:	f7fc ff34 	bl	8001ad0 <LCD_WriteReg>
 8004c68:	21cf      	movs	r1, #207	; 0xcf
 8004c6a:	f24d 3027 	movw	r0, #54055	; 0xd327
 8004c6e:	f7fc ff2f 	bl	8001ad0 <LCD_WriteReg>
 8004c72:	2102      	movs	r1, #2
 8004c74:	f24d 3028 	movw	r0, #54056	; 0xd328
 8004c78:	f7fc ff2a 	bl	8001ad0 <LCD_WriteReg>
 8004c7c:	21de      	movs	r1, #222	; 0xde
 8004c7e:	f24d 3029 	movw	r0, #54057	; 0xd329
 8004c82:	f7fc ff25 	bl	8001ad0 <LCD_WriteReg>
 8004c86:	2102      	movs	r1, #2
 8004c88:	f24d 302a 	movw	r0, #54058	; 0xd32a
 8004c8c:	f7fc ff20 	bl	8001ad0 <LCD_WriteReg>
 8004c90:	21f2      	movs	r1, #242	; 0xf2
 8004c92:	f24d 302b 	movw	r0, #54059	; 0xd32b
 8004c96:	f7fc ff1b 	bl	8001ad0 <LCD_WriteReg>
 8004c9a:	2102      	movs	r1, #2
 8004c9c:	f24d 302c 	movw	r0, #54060	; 0xd32c
 8004ca0:	f7fc ff16 	bl	8001ad0 <LCD_WriteReg>
 8004ca4:	21fe      	movs	r1, #254	; 0xfe
 8004ca6:	f24d 302d 	movw	r0, #54061	; 0xd32d
 8004caa:	f7fc ff11 	bl	8001ad0 <LCD_WriteReg>
 8004cae:	2103      	movs	r1, #3
 8004cb0:	f24d 302e 	movw	r0, #54062	; 0xd32e
 8004cb4:	f7fc ff0c 	bl	8001ad0 <LCD_WriteReg>
 8004cb8:	2110      	movs	r1, #16
 8004cba:	f24d 302f 	movw	r0, #54063	; 0xd32f
 8004cbe:	f7fc ff07 	bl	8001ad0 <LCD_WriteReg>
 8004cc2:	2103      	movs	r1, #3
 8004cc4:	f24d 3030 	movw	r0, #54064	; 0xd330
 8004cc8:	f7fc ff02 	bl	8001ad0 <LCD_WriteReg>
 8004ccc:	2133      	movs	r1, #51	; 0x33
 8004cce:	f24d 3031 	movw	r0, #54065	; 0xd331
 8004cd2:	f7fc fefd 	bl	8001ad0 <LCD_WriteReg>
 8004cd6:	2103      	movs	r1, #3
 8004cd8:	f24d 3032 	movw	r0, #54066	; 0xd332
 8004cdc:	f7fc fef8 	bl	8001ad0 <LCD_WriteReg>
 8004ce0:	216d      	movs	r1, #109	; 0x6d
 8004ce2:	f24d 3033 	movw	r0, #54067	; 0xd333
 8004ce6:	f7fc fef3 	bl	8001ad0 <LCD_WriteReg>
 8004cea:	2100      	movs	r1, #0
 8004cec:	f44f 4054 	mov.w	r0, #54272	; 0xd400
 8004cf0:	f7fc feee 	bl	8001ad0 <LCD_WriteReg>
 8004cf4:	2133      	movs	r1, #51	; 0x33
 8004cf6:	f24d 4001 	movw	r0, #54273	; 0xd401
 8004cfa:	f7fc fee9 	bl	8001ad0 <LCD_WriteReg>
 8004cfe:	2100      	movs	r1, #0
 8004d00:	f24d 4002 	movw	r0, #54274	; 0xd402
 8004d04:	f7fc fee4 	bl	8001ad0 <LCD_WriteReg>
 8004d08:	2134      	movs	r1, #52	; 0x34
 8004d0a:	f24d 4003 	movw	r0, #54275	; 0xd403
 8004d0e:	f7fc fedf 	bl	8001ad0 <LCD_WriteReg>
 8004d12:	2100      	movs	r1, #0
 8004d14:	f24d 4004 	movw	r0, #54276	; 0xd404
 8004d18:	f7fc feda 	bl	8001ad0 <LCD_WriteReg>
 8004d1c:	213a      	movs	r1, #58	; 0x3a
 8004d1e:	f24d 4005 	movw	r0, #54277	; 0xd405
 8004d22:	f7fc fed5 	bl	8001ad0 <LCD_WriteReg>
 8004d26:	2100      	movs	r1, #0
 8004d28:	f24d 4006 	movw	r0, #54278	; 0xd406
 8004d2c:	f7fc fed0 	bl	8001ad0 <LCD_WriteReg>
 8004d30:	214a      	movs	r1, #74	; 0x4a
 8004d32:	f24d 4007 	movw	r0, #54279	; 0xd407
 8004d36:	f7fc fecb 	bl	8001ad0 <LCD_WriteReg>
 8004d3a:	2100      	movs	r1, #0
 8004d3c:	f24d 4008 	movw	r0, #54280	; 0xd408
 8004d40:	f7fc fec6 	bl	8001ad0 <LCD_WriteReg>
 8004d44:	215c      	movs	r1, #92	; 0x5c
 8004d46:	f24d 4009 	movw	r0, #54281	; 0xd409
 8004d4a:	f7fc fec1 	bl	8001ad0 <LCD_WriteReg>
 8004d4e:	2100      	movs	r1, #0
 8004d50:	f24d 400a 	movw	r0, #54282	; 0xd40a
 8004d54:	f7fc febc 	bl	8001ad0 <LCD_WriteReg>
 8004d58:	2181      	movs	r1, #129	; 0x81
 8004d5a:	f24d 400b 	movw	r0, #54283	; 0xd40b
 8004d5e:	f7fc feb7 	bl	8001ad0 <LCD_WriteReg>
 8004d62:	2100      	movs	r1, #0
 8004d64:	f24d 400c 	movw	r0, #54284	; 0xd40c
 8004d68:	f7fc feb2 	bl	8001ad0 <LCD_WriteReg>
 8004d6c:	21a6      	movs	r1, #166	; 0xa6
 8004d6e:	f24d 400d 	movw	r0, #54285	; 0xd40d
 8004d72:	f7fc fead 	bl	8001ad0 <LCD_WriteReg>
 8004d76:	2100      	movs	r1, #0
 8004d78:	f24d 400e 	movw	r0, #54286	; 0xd40e
 8004d7c:	f7fc fea8 	bl	8001ad0 <LCD_WriteReg>
 8004d80:	21e5      	movs	r1, #229	; 0xe5
 8004d82:	f24d 400f 	movw	r0, #54287	; 0xd40f
 8004d86:	f7fc fea3 	bl	8001ad0 <LCD_WriteReg>
 8004d8a:	2101      	movs	r1, #1
 8004d8c:	f24d 4010 	movw	r0, #54288	; 0xd410
 8004d90:	f7fc fe9e 	bl	8001ad0 <LCD_WriteReg>
 8004d94:	2113      	movs	r1, #19
 8004d96:	f24d 4011 	movw	r0, #54289	; 0xd411
 8004d9a:	f7fc fe99 	bl	8001ad0 <LCD_WriteReg>
 8004d9e:	2101      	movs	r1, #1
 8004da0:	f24d 4012 	movw	r0, #54290	; 0xd412
 8004da4:	f7fc fe94 	bl	8001ad0 <LCD_WriteReg>
 8004da8:	2154      	movs	r1, #84	; 0x54
 8004daa:	f24d 4013 	movw	r0, #54291	; 0xd413
 8004dae:	f7fc fe8f 	bl	8001ad0 <LCD_WriteReg>
 8004db2:	2101      	movs	r1, #1
 8004db4:	f24d 4014 	movw	r0, #54292	; 0xd414
 8004db8:	f7fc fe8a 	bl	8001ad0 <LCD_WriteReg>
 8004dbc:	2182      	movs	r1, #130	; 0x82
 8004dbe:	f24d 4015 	movw	r0, #54293	; 0xd415
 8004dc2:	f7fc fe85 	bl	8001ad0 <LCD_WriteReg>
 8004dc6:	2101      	movs	r1, #1
 8004dc8:	f24d 4016 	movw	r0, #54294	; 0xd416
 8004dcc:	f7fc fe80 	bl	8001ad0 <LCD_WriteReg>
 8004dd0:	21ca      	movs	r1, #202	; 0xca
 8004dd2:	f24d 4017 	movw	r0, #54295	; 0xd417
 8004dd6:	f7fc fe7b 	bl	8001ad0 <LCD_WriteReg>
 8004dda:	2102      	movs	r1, #2
 8004ddc:	f24d 4018 	movw	r0, #54296	; 0xd418
 8004de0:	f7fc fe76 	bl	8001ad0 <LCD_WriteReg>
 8004de4:	2100      	movs	r1, #0
 8004de6:	f24d 4019 	movw	r0, #54297	; 0xd419
 8004dea:	f7fc fe71 	bl	8001ad0 <LCD_WriteReg>
 8004dee:	2102      	movs	r1, #2
 8004df0:	f24d 401a 	movw	r0, #54298	; 0xd41a
 8004df4:	f7fc fe6c 	bl	8001ad0 <LCD_WriteReg>
 8004df8:	2101      	movs	r1, #1
 8004dfa:	f24d 401b 	movw	r0, #54299	; 0xd41b
 8004dfe:	f7fc fe67 	bl	8001ad0 <LCD_WriteReg>
 8004e02:	2102      	movs	r1, #2
 8004e04:	f24d 401c 	movw	r0, #54300	; 0xd41c
 8004e08:	f7fc fe62 	bl	8001ad0 <LCD_WriteReg>
 8004e0c:	2134      	movs	r1, #52	; 0x34
 8004e0e:	f24d 401d 	movw	r0, #54301	; 0xd41d
 8004e12:	f7fc fe5d 	bl	8001ad0 <LCD_WriteReg>
 8004e16:	2102      	movs	r1, #2
 8004e18:	f24d 401e 	movw	r0, #54302	; 0xd41e
 8004e1c:	f7fc fe58 	bl	8001ad0 <LCD_WriteReg>
 8004e20:	2167      	movs	r1, #103	; 0x67
 8004e22:	f24d 401f 	movw	r0, #54303	; 0xd41f
 8004e26:	f7fc fe53 	bl	8001ad0 <LCD_WriteReg>
 8004e2a:	2102      	movs	r1, #2
 8004e2c:	f24d 4020 	movw	r0, #54304	; 0xd420
 8004e30:	f7fc fe4e 	bl	8001ad0 <LCD_WriteReg>
 8004e34:	2184      	movs	r1, #132	; 0x84
 8004e36:	f24d 4021 	movw	r0, #54305	; 0xd421
 8004e3a:	f7fc fe49 	bl	8001ad0 <LCD_WriteReg>
 8004e3e:	2102      	movs	r1, #2
 8004e40:	f24d 4022 	movw	r0, #54306	; 0xd422
 8004e44:	f7fc fe44 	bl	8001ad0 <LCD_WriteReg>
 8004e48:	21a4      	movs	r1, #164	; 0xa4
 8004e4a:	f24d 4023 	movw	r0, #54307	; 0xd423
 8004e4e:	f7fc fe3f 	bl	8001ad0 <LCD_WriteReg>
 8004e52:	2102      	movs	r1, #2
 8004e54:	f24d 4024 	movw	r0, #54308	; 0xd424
 8004e58:	f7fc fe3a 	bl	8001ad0 <LCD_WriteReg>
 8004e5c:	21b7      	movs	r1, #183	; 0xb7
 8004e5e:	f24d 4025 	movw	r0, #54309	; 0xd425
 8004e62:	f7fc fe35 	bl	8001ad0 <LCD_WriteReg>
 8004e66:	2102      	movs	r1, #2
 8004e68:	f24d 4026 	movw	r0, #54310	; 0xd426
 8004e6c:	f7fc fe30 	bl	8001ad0 <LCD_WriteReg>
 8004e70:	21cf      	movs	r1, #207	; 0xcf
 8004e72:	f24d 4027 	movw	r0, #54311	; 0xd427
 8004e76:	f7fc fe2b 	bl	8001ad0 <LCD_WriteReg>
 8004e7a:	2102      	movs	r1, #2
 8004e7c:	f24d 4028 	movw	r0, #54312	; 0xd428
 8004e80:	f7fc fe26 	bl	8001ad0 <LCD_WriteReg>
 8004e84:	21de      	movs	r1, #222	; 0xde
 8004e86:	f24d 4029 	movw	r0, #54313	; 0xd429
 8004e8a:	f7fc fe21 	bl	8001ad0 <LCD_WriteReg>
 8004e8e:	2102      	movs	r1, #2
 8004e90:	f24d 402a 	movw	r0, #54314	; 0xd42a
 8004e94:	f7fc fe1c 	bl	8001ad0 <LCD_WriteReg>
 8004e98:	21f2      	movs	r1, #242	; 0xf2
 8004e9a:	f24d 402b 	movw	r0, #54315	; 0xd42b
 8004e9e:	f7fc fe17 	bl	8001ad0 <LCD_WriteReg>
 8004ea2:	2102      	movs	r1, #2
 8004ea4:	f24d 402c 	movw	r0, #54316	; 0xd42c
 8004ea8:	f7fc fe12 	bl	8001ad0 <LCD_WriteReg>
 8004eac:	21fe      	movs	r1, #254	; 0xfe
 8004eae:	f24d 402d 	movw	r0, #54317	; 0xd42d
 8004eb2:	f7fc fe0d 	bl	8001ad0 <LCD_WriteReg>
 8004eb6:	2103      	movs	r1, #3
 8004eb8:	f24d 402e 	movw	r0, #54318	; 0xd42e
 8004ebc:	f7fc fe08 	bl	8001ad0 <LCD_WriteReg>
 8004ec0:	2110      	movs	r1, #16
 8004ec2:	f24d 402f 	movw	r0, #54319	; 0xd42f
 8004ec6:	f7fc fe03 	bl	8001ad0 <LCD_WriteReg>
 8004eca:	2103      	movs	r1, #3
 8004ecc:	f24d 4030 	movw	r0, #54320	; 0xd430
 8004ed0:	f7fc fdfe 	bl	8001ad0 <LCD_WriteReg>
 8004ed4:	2133      	movs	r1, #51	; 0x33
 8004ed6:	f24d 4031 	movw	r0, #54321	; 0xd431
 8004eda:	f7fc fdf9 	bl	8001ad0 <LCD_WriteReg>
 8004ede:	2103      	movs	r1, #3
 8004ee0:	f24d 4032 	movw	r0, #54322	; 0xd432
 8004ee4:	f7fc fdf4 	bl	8001ad0 <LCD_WriteReg>
 8004ee8:	216d      	movs	r1, #109	; 0x6d
 8004eea:	f24d 4033 	movw	r0, #54323	; 0xd433
 8004eee:	f7fc fdef 	bl	8001ad0 <LCD_WriteReg>
 8004ef2:	2100      	movs	r1, #0
 8004ef4:	f44f 4055 	mov.w	r0, #54528	; 0xd500
 8004ef8:	f7fc fdea 	bl	8001ad0 <LCD_WriteReg>
 8004efc:	2133      	movs	r1, #51	; 0x33
 8004efe:	f24d 5001 	movw	r0, #54529	; 0xd501
 8004f02:	f7fc fde5 	bl	8001ad0 <LCD_WriteReg>
 8004f06:	2100      	movs	r1, #0
 8004f08:	f24d 5002 	movw	r0, #54530	; 0xd502
 8004f0c:	f7fc fde0 	bl	8001ad0 <LCD_WriteReg>
 8004f10:	2134      	movs	r1, #52	; 0x34
 8004f12:	f24d 5003 	movw	r0, #54531	; 0xd503
 8004f16:	f7fc fddb 	bl	8001ad0 <LCD_WriteReg>
 8004f1a:	2100      	movs	r1, #0
 8004f1c:	f24d 5004 	movw	r0, #54532	; 0xd504
 8004f20:	f7fc fdd6 	bl	8001ad0 <LCD_WriteReg>
 8004f24:	213a      	movs	r1, #58	; 0x3a
 8004f26:	f24d 5005 	movw	r0, #54533	; 0xd505
 8004f2a:	f7fc fdd1 	bl	8001ad0 <LCD_WriteReg>
 8004f2e:	2100      	movs	r1, #0
 8004f30:	f24d 5006 	movw	r0, #54534	; 0xd506
 8004f34:	f7fc fdcc 	bl	8001ad0 <LCD_WriteReg>
 8004f38:	214a      	movs	r1, #74	; 0x4a
 8004f3a:	f24d 5007 	movw	r0, #54535	; 0xd507
 8004f3e:	f7fc fdc7 	bl	8001ad0 <LCD_WriteReg>
 8004f42:	2100      	movs	r1, #0
 8004f44:	f24d 5008 	movw	r0, #54536	; 0xd508
 8004f48:	f7fc fdc2 	bl	8001ad0 <LCD_WriteReg>
 8004f4c:	215c      	movs	r1, #92	; 0x5c
 8004f4e:	f24d 5009 	movw	r0, #54537	; 0xd509
 8004f52:	f7fc fdbd 	bl	8001ad0 <LCD_WriteReg>
 8004f56:	2100      	movs	r1, #0
 8004f58:	f24d 500a 	movw	r0, #54538	; 0xd50a
 8004f5c:	f7fc fdb8 	bl	8001ad0 <LCD_WriteReg>
 8004f60:	2181      	movs	r1, #129	; 0x81
 8004f62:	f24d 500b 	movw	r0, #54539	; 0xd50b
 8004f66:	f7fc fdb3 	bl	8001ad0 <LCD_WriteReg>
 8004f6a:	2100      	movs	r1, #0
 8004f6c:	f24d 500c 	movw	r0, #54540	; 0xd50c
 8004f70:	f7fc fdae 	bl	8001ad0 <LCD_WriteReg>
 8004f74:	21a6      	movs	r1, #166	; 0xa6
 8004f76:	f24d 500d 	movw	r0, #54541	; 0xd50d
 8004f7a:	f7fc fda9 	bl	8001ad0 <LCD_WriteReg>
 8004f7e:	2100      	movs	r1, #0
 8004f80:	f24d 500e 	movw	r0, #54542	; 0xd50e
 8004f84:	f7fc fda4 	bl	8001ad0 <LCD_WriteReg>
 8004f88:	21e5      	movs	r1, #229	; 0xe5
 8004f8a:	f24d 500f 	movw	r0, #54543	; 0xd50f
 8004f8e:	f7fc fd9f 	bl	8001ad0 <LCD_WriteReg>
 8004f92:	2101      	movs	r1, #1
 8004f94:	f24d 5010 	movw	r0, #54544	; 0xd510
 8004f98:	f7fc fd9a 	bl	8001ad0 <LCD_WriteReg>
 8004f9c:	2113      	movs	r1, #19
 8004f9e:	f24d 5011 	movw	r0, #54545	; 0xd511
 8004fa2:	f7fc fd95 	bl	8001ad0 <LCD_WriteReg>
 8004fa6:	2101      	movs	r1, #1
 8004fa8:	f24d 5012 	movw	r0, #54546	; 0xd512
 8004fac:	f7fc fd90 	bl	8001ad0 <LCD_WriteReg>
 8004fb0:	2154      	movs	r1, #84	; 0x54
 8004fb2:	f24d 5013 	movw	r0, #54547	; 0xd513
 8004fb6:	f7fc fd8b 	bl	8001ad0 <LCD_WriteReg>
 8004fba:	2101      	movs	r1, #1
 8004fbc:	f24d 5014 	movw	r0, #54548	; 0xd514
 8004fc0:	f7fc fd86 	bl	8001ad0 <LCD_WriteReg>
 8004fc4:	2182      	movs	r1, #130	; 0x82
 8004fc6:	f24d 5015 	movw	r0, #54549	; 0xd515
 8004fca:	f7fc fd81 	bl	8001ad0 <LCD_WriteReg>
 8004fce:	2101      	movs	r1, #1
 8004fd0:	f24d 5016 	movw	r0, #54550	; 0xd516
 8004fd4:	f7fc fd7c 	bl	8001ad0 <LCD_WriteReg>
 8004fd8:	21ca      	movs	r1, #202	; 0xca
 8004fda:	f24d 5017 	movw	r0, #54551	; 0xd517
 8004fde:	f7fc fd77 	bl	8001ad0 <LCD_WriteReg>
 8004fe2:	2102      	movs	r1, #2
 8004fe4:	f24d 5018 	movw	r0, #54552	; 0xd518
 8004fe8:	f7fc fd72 	bl	8001ad0 <LCD_WriteReg>
 8004fec:	2100      	movs	r1, #0
 8004fee:	f24d 5019 	movw	r0, #54553	; 0xd519
 8004ff2:	f7fc fd6d 	bl	8001ad0 <LCD_WriteReg>
 8004ff6:	2102      	movs	r1, #2
 8004ff8:	f24d 501a 	movw	r0, #54554	; 0xd51a
 8004ffc:	f7fc fd68 	bl	8001ad0 <LCD_WriteReg>
 8005000:	2101      	movs	r1, #1
 8005002:	f24d 501b 	movw	r0, #54555	; 0xd51b
 8005006:	f7fc fd63 	bl	8001ad0 <LCD_WriteReg>
 800500a:	2102      	movs	r1, #2
 800500c:	f24d 501c 	movw	r0, #54556	; 0xd51c
 8005010:	f7fc fd5e 	bl	8001ad0 <LCD_WriteReg>
 8005014:	2134      	movs	r1, #52	; 0x34
 8005016:	f24d 501d 	movw	r0, #54557	; 0xd51d
 800501a:	f7fc fd59 	bl	8001ad0 <LCD_WriteReg>
 800501e:	2102      	movs	r1, #2
 8005020:	f24d 501e 	movw	r0, #54558	; 0xd51e
 8005024:	f7fc fd54 	bl	8001ad0 <LCD_WriteReg>
 8005028:	2167      	movs	r1, #103	; 0x67
 800502a:	f24d 501f 	movw	r0, #54559	; 0xd51f
 800502e:	f7fc fd4f 	bl	8001ad0 <LCD_WriteReg>
 8005032:	2102      	movs	r1, #2
 8005034:	f24d 5020 	movw	r0, #54560	; 0xd520
 8005038:	f7fc fd4a 	bl	8001ad0 <LCD_WriteReg>
 800503c:	2184      	movs	r1, #132	; 0x84
 800503e:	f24d 5021 	movw	r0, #54561	; 0xd521
 8005042:	f7fc fd45 	bl	8001ad0 <LCD_WriteReg>
 8005046:	2102      	movs	r1, #2
 8005048:	f24d 5022 	movw	r0, #54562	; 0xd522
 800504c:	f7fc fd40 	bl	8001ad0 <LCD_WriteReg>
 8005050:	21a4      	movs	r1, #164	; 0xa4
 8005052:	f24d 5023 	movw	r0, #54563	; 0xd523
 8005056:	f7fc fd3b 	bl	8001ad0 <LCD_WriteReg>
 800505a:	2102      	movs	r1, #2
 800505c:	f24d 5024 	movw	r0, #54564	; 0xd524
 8005060:	f7fc fd36 	bl	8001ad0 <LCD_WriteReg>
 8005064:	21b7      	movs	r1, #183	; 0xb7
 8005066:	f24d 5025 	movw	r0, #54565	; 0xd525
 800506a:	f7fc fd31 	bl	8001ad0 <LCD_WriteReg>
 800506e:	2102      	movs	r1, #2
 8005070:	f24d 5026 	movw	r0, #54566	; 0xd526
 8005074:	f7fc fd2c 	bl	8001ad0 <LCD_WriteReg>
 8005078:	21cf      	movs	r1, #207	; 0xcf
 800507a:	f24d 5027 	movw	r0, #54567	; 0xd527
 800507e:	f7fc fd27 	bl	8001ad0 <LCD_WriteReg>
 8005082:	2102      	movs	r1, #2
 8005084:	f24d 5028 	movw	r0, #54568	; 0xd528
 8005088:	f7fc fd22 	bl	8001ad0 <LCD_WriteReg>
 800508c:	21de      	movs	r1, #222	; 0xde
 800508e:	f24d 5029 	movw	r0, #54569	; 0xd529
 8005092:	f7fc fd1d 	bl	8001ad0 <LCD_WriteReg>
 8005096:	2102      	movs	r1, #2
 8005098:	f24d 502a 	movw	r0, #54570	; 0xd52a
 800509c:	f7fc fd18 	bl	8001ad0 <LCD_WriteReg>
 80050a0:	21f2      	movs	r1, #242	; 0xf2
 80050a2:	f24d 502b 	movw	r0, #54571	; 0xd52b
 80050a6:	f7fc fd13 	bl	8001ad0 <LCD_WriteReg>
 80050aa:	2102      	movs	r1, #2
 80050ac:	f24d 502c 	movw	r0, #54572	; 0xd52c
 80050b0:	f7fc fd0e 	bl	8001ad0 <LCD_WriteReg>
 80050b4:	21fe      	movs	r1, #254	; 0xfe
 80050b6:	f24d 502d 	movw	r0, #54573	; 0xd52d
 80050ba:	f7fc fd09 	bl	8001ad0 <LCD_WriteReg>
 80050be:	2103      	movs	r1, #3
 80050c0:	f24d 502e 	movw	r0, #54574	; 0xd52e
 80050c4:	f7fc fd04 	bl	8001ad0 <LCD_WriteReg>
 80050c8:	2110      	movs	r1, #16
 80050ca:	f24d 502f 	movw	r0, #54575	; 0xd52f
 80050ce:	f7fc fcff 	bl	8001ad0 <LCD_WriteReg>
 80050d2:	2103      	movs	r1, #3
 80050d4:	f24d 5030 	movw	r0, #54576	; 0xd530
 80050d8:	f7fc fcfa 	bl	8001ad0 <LCD_WriteReg>
 80050dc:	2133      	movs	r1, #51	; 0x33
 80050de:	f24d 5031 	movw	r0, #54577	; 0xd531
 80050e2:	f7fc fcf5 	bl	8001ad0 <LCD_WriteReg>
 80050e6:	2103      	movs	r1, #3
 80050e8:	f24d 5032 	movw	r0, #54578	; 0xd532
 80050ec:	f7fc fcf0 	bl	8001ad0 <LCD_WriteReg>
 80050f0:	216d      	movs	r1, #109	; 0x6d
 80050f2:	f24d 5033 	movw	r0, #54579	; 0xd533
 80050f6:	f7fc fceb 	bl	8001ad0 <LCD_WriteReg>
 80050fa:	2100      	movs	r1, #0
 80050fc:	f44f 4056 	mov.w	r0, #54784	; 0xd600
 8005100:	f7fc fce6 	bl	8001ad0 <LCD_WriteReg>
 8005104:	2133      	movs	r1, #51	; 0x33
 8005106:	f24d 6001 	movw	r0, #54785	; 0xd601
 800510a:	f7fc fce1 	bl	8001ad0 <LCD_WriteReg>
 800510e:	2100      	movs	r1, #0
 8005110:	f24d 6002 	movw	r0, #54786	; 0xd602
 8005114:	f7fc fcdc 	bl	8001ad0 <LCD_WriteReg>
 8005118:	2134      	movs	r1, #52	; 0x34
 800511a:	f24d 6003 	movw	r0, #54787	; 0xd603
 800511e:	f7fc fcd7 	bl	8001ad0 <LCD_WriteReg>
 8005122:	2100      	movs	r1, #0
 8005124:	f24d 6004 	movw	r0, #54788	; 0xd604
 8005128:	f7fc fcd2 	bl	8001ad0 <LCD_WriteReg>
 800512c:	213a      	movs	r1, #58	; 0x3a
 800512e:	f24d 6005 	movw	r0, #54789	; 0xd605
 8005132:	f7fc fccd 	bl	8001ad0 <LCD_WriteReg>
 8005136:	2100      	movs	r1, #0
 8005138:	f24d 6006 	movw	r0, #54790	; 0xd606
 800513c:	f7fc fcc8 	bl	8001ad0 <LCD_WriteReg>
 8005140:	214a      	movs	r1, #74	; 0x4a
 8005142:	f24d 6007 	movw	r0, #54791	; 0xd607
 8005146:	f7fc fcc3 	bl	8001ad0 <LCD_WriteReg>
 800514a:	2100      	movs	r1, #0
 800514c:	f24d 6008 	movw	r0, #54792	; 0xd608
 8005150:	f7fc fcbe 	bl	8001ad0 <LCD_WriteReg>
 8005154:	215c      	movs	r1, #92	; 0x5c
 8005156:	f24d 6009 	movw	r0, #54793	; 0xd609
 800515a:	f7fc fcb9 	bl	8001ad0 <LCD_WriteReg>
 800515e:	2100      	movs	r1, #0
 8005160:	f24d 600a 	movw	r0, #54794	; 0xd60a
 8005164:	f7fc fcb4 	bl	8001ad0 <LCD_WriteReg>
 8005168:	2181      	movs	r1, #129	; 0x81
 800516a:	f24d 600b 	movw	r0, #54795	; 0xd60b
 800516e:	f7fc fcaf 	bl	8001ad0 <LCD_WriteReg>
 8005172:	2100      	movs	r1, #0
 8005174:	f24d 600c 	movw	r0, #54796	; 0xd60c
 8005178:	f7fc fcaa 	bl	8001ad0 <LCD_WriteReg>
 800517c:	21a6      	movs	r1, #166	; 0xa6
 800517e:	f24d 600d 	movw	r0, #54797	; 0xd60d
 8005182:	f7fc fca5 	bl	8001ad0 <LCD_WriteReg>
 8005186:	2100      	movs	r1, #0
 8005188:	f24d 600e 	movw	r0, #54798	; 0xd60e
 800518c:	f7fc fca0 	bl	8001ad0 <LCD_WriteReg>
 8005190:	21e5      	movs	r1, #229	; 0xe5
 8005192:	f24d 600f 	movw	r0, #54799	; 0xd60f
 8005196:	f7fc fc9b 	bl	8001ad0 <LCD_WriteReg>
 800519a:	2101      	movs	r1, #1
 800519c:	f24d 6010 	movw	r0, #54800	; 0xd610
 80051a0:	f7fc fc96 	bl	8001ad0 <LCD_WriteReg>
 80051a4:	2113      	movs	r1, #19
 80051a6:	f24d 6011 	movw	r0, #54801	; 0xd611
 80051aa:	f7fc fc91 	bl	8001ad0 <LCD_WriteReg>
 80051ae:	2101      	movs	r1, #1
 80051b0:	f24d 6012 	movw	r0, #54802	; 0xd612
 80051b4:	f7fc fc8c 	bl	8001ad0 <LCD_WriteReg>
 80051b8:	2154      	movs	r1, #84	; 0x54
 80051ba:	f24d 6013 	movw	r0, #54803	; 0xd613
 80051be:	f7fc fc87 	bl	8001ad0 <LCD_WriteReg>
 80051c2:	2101      	movs	r1, #1
 80051c4:	f24d 6014 	movw	r0, #54804	; 0xd614
 80051c8:	f7fc fc82 	bl	8001ad0 <LCD_WriteReg>
 80051cc:	2182      	movs	r1, #130	; 0x82
 80051ce:	f24d 6015 	movw	r0, #54805	; 0xd615
 80051d2:	f7fc fc7d 	bl	8001ad0 <LCD_WriteReg>
 80051d6:	2101      	movs	r1, #1
 80051d8:	f24d 6016 	movw	r0, #54806	; 0xd616
 80051dc:	f7fc fc78 	bl	8001ad0 <LCD_WriteReg>
 80051e0:	21ca      	movs	r1, #202	; 0xca
 80051e2:	f24d 6017 	movw	r0, #54807	; 0xd617
 80051e6:	f7fc fc73 	bl	8001ad0 <LCD_WriteReg>
 80051ea:	2102      	movs	r1, #2
 80051ec:	f24d 6018 	movw	r0, #54808	; 0xd618
 80051f0:	f7fc fc6e 	bl	8001ad0 <LCD_WriteReg>
 80051f4:	2100      	movs	r1, #0
 80051f6:	f24d 6019 	movw	r0, #54809	; 0xd619
 80051fa:	f7fc fc69 	bl	8001ad0 <LCD_WriteReg>
 80051fe:	2102      	movs	r1, #2
 8005200:	f24d 601a 	movw	r0, #54810	; 0xd61a
 8005204:	f7fc fc64 	bl	8001ad0 <LCD_WriteReg>
 8005208:	2101      	movs	r1, #1
 800520a:	f24d 601b 	movw	r0, #54811	; 0xd61b
 800520e:	f7fc fc5f 	bl	8001ad0 <LCD_WriteReg>
 8005212:	2102      	movs	r1, #2
 8005214:	f24d 601c 	movw	r0, #54812	; 0xd61c
 8005218:	f7fc fc5a 	bl	8001ad0 <LCD_WriteReg>
 800521c:	2134      	movs	r1, #52	; 0x34
 800521e:	f24d 601d 	movw	r0, #54813	; 0xd61d
 8005222:	f7fc fc55 	bl	8001ad0 <LCD_WriteReg>
 8005226:	2102      	movs	r1, #2
 8005228:	f24d 601e 	movw	r0, #54814	; 0xd61e
 800522c:	f7fc fc50 	bl	8001ad0 <LCD_WriteReg>
 8005230:	2167      	movs	r1, #103	; 0x67
 8005232:	f24d 601f 	movw	r0, #54815	; 0xd61f
 8005236:	f7fc fc4b 	bl	8001ad0 <LCD_WriteReg>
 800523a:	2102      	movs	r1, #2
 800523c:	f24d 6020 	movw	r0, #54816	; 0xd620
 8005240:	f7fc fc46 	bl	8001ad0 <LCD_WriteReg>
 8005244:	2184      	movs	r1, #132	; 0x84
 8005246:	f24d 6021 	movw	r0, #54817	; 0xd621
 800524a:	f7fc fc41 	bl	8001ad0 <LCD_WriteReg>
 800524e:	2102      	movs	r1, #2
 8005250:	f24d 6022 	movw	r0, #54818	; 0xd622
 8005254:	f7fc fc3c 	bl	8001ad0 <LCD_WriteReg>
 8005258:	21a4      	movs	r1, #164	; 0xa4
 800525a:	f24d 6023 	movw	r0, #54819	; 0xd623
 800525e:	f7fc fc37 	bl	8001ad0 <LCD_WriteReg>
 8005262:	2102      	movs	r1, #2
 8005264:	f24d 6024 	movw	r0, #54820	; 0xd624
 8005268:	f7fc fc32 	bl	8001ad0 <LCD_WriteReg>
 800526c:	21b7      	movs	r1, #183	; 0xb7
 800526e:	f24d 6025 	movw	r0, #54821	; 0xd625
 8005272:	f7fc fc2d 	bl	8001ad0 <LCD_WriteReg>
 8005276:	2102      	movs	r1, #2
 8005278:	f24d 6026 	movw	r0, #54822	; 0xd626
 800527c:	f7fc fc28 	bl	8001ad0 <LCD_WriteReg>
 8005280:	21cf      	movs	r1, #207	; 0xcf
 8005282:	f24d 6027 	movw	r0, #54823	; 0xd627
 8005286:	f7fc fc23 	bl	8001ad0 <LCD_WriteReg>
 800528a:	2102      	movs	r1, #2
 800528c:	f24d 6028 	movw	r0, #54824	; 0xd628
 8005290:	f7fc fc1e 	bl	8001ad0 <LCD_WriteReg>
 8005294:	21de      	movs	r1, #222	; 0xde
 8005296:	f24d 6029 	movw	r0, #54825	; 0xd629
 800529a:	f7fc fc19 	bl	8001ad0 <LCD_WriteReg>
 800529e:	2102      	movs	r1, #2
 80052a0:	f24d 602a 	movw	r0, #54826	; 0xd62a
 80052a4:	f7fc fc14 	bl	8001ad0 <LCD_WriteReg>
 80052a8:	21f2      	movs	r1, #242	; 0xf2
 80052aa:	f24d 602b 	movw	r0, #54827	; 0xd62b
 80052ae:	f7fc fc0f 	bl	8001ad0 <LCD_WriteReg>
 80052b2:	2102      	movs	r1, #2
 80052b4:	f24d 602c 	movw	r0, #54828	; 0xd62c
 80052b8:	f7fc fc0a 	bl	8001ad0 <LCD_WriteReg>
 80052bc:	21fe      	movs	r1, #254	; 0xfe
 80052be:	f24d 602d 	movw	r0, #54829	; 0xd62d
 80052c2:	f7fc fc05 	bl	8001ad0 <LCD_WriteReg>
 80052c6:	2103      	movs	r1, #3
 80052c8:	f24d 602e 	movw	r0, #54830	; 0xd62e
 80052cc:	f7fc fc00 	bl	8001ad0 <LCD_WriteReg>
 80052d0:	2110      	movs	r1, #16
 80052d2:	f24d 602f 	movw	r0, #54831	; 0xd62f
 80052d6:	f7fc fbfb 	bl	8001ad0 <LCD_WriteReg>
 80052da:	2103      	movs	r1, #3
 80052dc:	f24d 6030 	movw	r0, #54832	; 0xd630
 80052e0:	f7fc fbf6 	bl	8001ad0 <LCD_WriteReg>
 80052e4:	2133      	movs	r1, #51	; 0x33
 80052e6:	f24d 6031 	movw	r0, #54833	; 0xd631
 80052ea:	f7fc fbf1 	bl	8001ad0 <LCD_WriteReg>
 80052ee:	2103      	movs	r1, #3
 80052f0:	f24d 6032 	movw	r0, #54834	; 0xd632
 80052f4:	f7fc fbec 	bl	8001ad0 <LCD_WriteReg>
 80052f8:	216d      	movs	r1, #109	; 0x6d
 80052fa:	f24d 6033 	movw	r0, #54835	; 0xd633
 80052fe:	f7fc fbe7 	bl	8001ad0 <LCD_WriteReg>
 8005302:	2155      	movs	r1, #85	; 0x55
 8005304:	f44f 4070 	mov.w	r0, #61440	; 0xf000
 8005308:	f7fc fbe2 	bl	8001ad0 <LCD_WriteReg>
 800530c:	21aa      	movs	r1, #170	; 0xaa
 800530e:	f24f 0001 	movw	r0, #61441	; 0xf001
 8005312:	f7fc fbdd 	bl	8001ad0 <LCD_WriteReg>
 8005316:	2152      	movs	r1, #82	; 0x52
 8005318:	f24f 0002 	movw	r0, #61442	; 0xf002
 800531c:	f7fc fbd8 	bl	8001ad0 <LCD_WriteReg>
 8005320:	2108      	movs	r1, #8
 8005322:	f24f 0003 	movw	r0, #61443	; 0xf003
 8005326:	f7fc fbd3 	bl	8001ad0 <LCD_WriteReg>
 800532a:	2100      	movs	r1, #0
 800532c:	f24f 0004 	movw	r0, #61444	; 0xf004
 8005330:	f7fc fbce 	bl	8001ad0 <LCD_WriteReg>
 8005334:	21cc      	movs	r1, #204	; 0xcc
 8005336:	f44f 4031 	mov.w	r0, #45312	; 0xb100
 800533a:	f7fc fbc9 	bl	8001ad0 <LCD_WriteReg>
 800533e:	2100      	movs	r1, #0
 8005340:	f24b 1001 	movw	r0, #45313	; 0xb101
 8005344:	f7fc fbc4 	bl	8001ad0 <LCD_WriteReg>
 8005348:	2105      	movs	r1, #5
 800534a:	f44f 4036 	mov.w	r0, #46592	; 0xb600
 800534e:	f7fc fbbf 	bl	8001ad0 <LCD_WriteReg>
 8005352:	2170      	movs	r1, #112	; 0x70
 8005354:	f44f 4037 	mov.w	r0, #46848	; 0xb700
 8005358:	f7fc fbba 	bl	8001ad0 <LCD_WriteReg>
 800535c:	2170      	movs	r1, #112	; 0x70
 800535e:	f24b 7001 	movw	r0, #46849	; 0xb701
 8005362:	f7fc fbb5 	bl	8001ad0 <LCD_WriteReg>
 8005366:	2101      	movs	r1, #1
 8005368:	f44f 4038 	mov.w	r0, #47104	; 0xb800
 800536c:	f7fc fbb0 	bl	8001ad0 <LCD_WriteReg>
 8005370:	2103      	movs	r1, #3
 8005372:	f64b 0001 	movw	r0, #47105	; 0xb801
 8005376:	f7fc fbab 	bl	8001ad0 <LCD_WriteReg>
 800537a:	2103      	movs	r1, #3
 800537c:	f64b 0002 	movw	r0, #47106	; 0xb802
 8005380:	f7fc fba6 	bl	8001ad0 <LCD_WriteReg>
 8005384:	2103      	movs	r1, #3
 8005386:	f64b 0003 	movw	r0, #47107	; 0xb803
 800538a:	f7fc fba1 	bl	8001ad0 <LCD_WriteReg>
 800538e:	2102      	movs	r1, #2
 8005390:	f44f 403c 	mov.w	r0, #48128	; 0xbc00
 8005394:	f7fc fb9c 	bl	8001ad0 <LCD_WriteReg>
 8005398:	2100      	movs	r1, #0
 800539a:	f64b 4001 	movw	r0, #48129	; 0xbc01
 800539e:	f7fc fb97 	bl	8001ad0 <LCD_WriteReg>
 80053a2:	2100      	movs	r1, #0
 80053a4:	f64b 4002 	movw	r0, #48130	; 0xbc02
 80053a8:	f7fc fb92 	bl	8001ad0 <LCD_WriteReg>
 80053ac:	21d0      	movs	r1, #208	; 0xd0
 80053ae:	f44f 4049 	mov.w	r0, #51456	; 0xc900
 80053b2:	f7fc fb8d 	bl	8001ad0 <LCD_WriteReg>
 80053b6:	2102      	movs	r1, #2
 80053b8:	f64c 1001 	movw	r0, #51457	; 0xc901
 80053bc:	f7fc fb88 	bl	8001ad0 <LCD_WriteReg>
 80053c0:	2150      	movs	r1, #80	; 0x50
 80053c2:	f64c 1002 	movw	r0, #51458	; 0xc902
 80053c6:	f7fc fb83 	bl	8001ad0 <LCD_WriteReg>
 80053ca:	2150      	movs	r1, #80	; 0x50
 80053cc:	f64c 1003 	movw	r0, #51459	; 0xc903
 80053d0:	f7fc fb7e 	bl	8001ad0 <LCD_WriteReg>
 80053d4:	2150      	movs	r1, #80	; 0x50
 80053d6:	f64c 1004 	movw	r0, #51460	; 0xc904
 80053da:	f7fc fb79 	bl	8001ad0 <LCD_WriteReg>
 80053de:	2100      	movs	r1, #0
 80053e0:	f44f 5054 	mov.w	r0, #13568	; 0x3500
 80053e4:	f7fc fb74 	bl	8001ad0 <LCD_WriteReg>
 80053e8:	2155      	movs	r1, #85	; 0x55
 80053ea:	f44f 5068 	mov.w	r0, #14848	; 0x3a00
 80053ee:	f7fc fb6f 	bl	8001ad0 <LCD_WriteReg>
 80053f2:	f44f 5088 	mov.w	r0, #4352	; 0x1100
 80053f6:	f7fc fadf 	bl	80019b8 <LCD_WR_REG>
 80053fa:	2001      	movs	r0, #1
 80053fc:	f7fb fb64 	bl	8000ac8 <HAL_Delay>
 8005400:	f44f 5024 	mov.w	r0, #10496	; 0x2900
 8005404:	f7fc fad8 	bl	80019b8 <LCD_WR_REG>
 8005408:	f001 bd18 	b.w	8006e3c <LCD_Init+0x3e34>
 800540c:	4bec      	ldr	r3, [pc, #944]	; (80057c0 <LCD_Init+0x27b8>)
 800540e:	889b      	ldrh	r3, [r3, #4]
 8005410:	f249 3225 	movw	r2, #37669	; 0x9325
 8005414:	4293      	cmp	r3, r2
 8005416:	f040 80d7 	bne.w	80055c8 <LCD_Init+0x25c0>
 800541a:	f647 01f0 	movw	r1, #30960	; 0x78f0
 800541e:	20e5      	movs	r0, #229	; 0xe5
 8005420:	f7fc fb56 	bl	8001ad0 <LCD_WriteReg>
 8005424:	f44f 7180 	mov.w	r1, #256	; 0x100
 8005428:	2001      	movs	r0, #1
 800542a:	f7fc fb51 	bl	8001ad0 <LCD_WriteReg>
 800542e:	f44f 61e0 	mov.w	r1, #1792	; 0x700
 8005432:	2002      	movs	r0, #2
 8005434:	f7fc fb4c 	bl	8001ad0 <LCD_WriteReg>
 8005438:	f241 0130 	movw	r1, #4144	; 0x1030
 800543c:	2003      	movs	r0, #3
 800543e:	f7fc fb47 	bl	8001ad0 <LCD_WriteReg>
 8005442:	2100      	movs	r1, #0
 8005444:	2004      	movs	r0, #4
 8005446:	f7fc fb43 	bl	8001ad0 <LCD_WriteReg>
 800544a:	f240 2102 	movw	r1, #514	; 0x202
 800544e:	2008      	movs	r0, #8
 8005450:	f7fc fb3e 	bl	8001ad0 <LCD_WriteReg>
 8005454:	2100      	movs	r1, #0
 8005456:	2009      	movs	r0, #9
 8005458:	f7fc fb3a 	bl	8001ad0 <LCD_WriteReg>
 800545c:	2100      	movs	r1, #0
 800545e:	200a      	movs	r0, #10
 8005460:	f7fc fb36 	bl	8001ad0 <LCD_WriteReg>
 8005464:	2100      	movs	r1, #0
 8005466:	200c      	movs	r0, #12
 8005468:	f7fc fb32 	bl	8001ad0 <LCD_WriteReg>
 800546c:	2100      	movs	r1, #0
 800546e:	200d      	movs	r0, #13
 8005470:	f7fc fb2e 	bl	8001ad0 <LCD_WriteReg>
 8005474:	2100      	movs	r1, #0
 8005476:	200f      	movs	r0, #15
 8005478:	f7fc fb2a 	bl	8001ad0 <LCD_WriteReg>
 800547c:	2100      	movs	r1, #0
 800547e:	2010      	movs	r0, #16
 8005480:	f7fc fb26 	bl	8001ad0 <LCD_WriteReg>
 8005484:	2107      	movs	r1, #7
 8005486:	2011      	movs	r0, #17
 8005488:	f7fc fb22 	bl	8001ad0 <LCD_WriteReg>
 800548c:	2100      	movs	r1, #0
 800548e:	2012      	movs	r0, #18
 8005490:	f7fc fb1e 	bl	8001ad0 <LCD_WriteReg>
 8005494:	2100      	movs	r1, #0
 8005496:	2013      	movs	r0, #19
 8005498:	f7fc fb1a 	bl	8001ad0 <LCD_WriteReg>
 800549c:	2100      	movs	r1, #0
 800549e:	2007      	movs	r0, #7
 80054a0:	f7fc fb16 	bl	8001ad0 <LCD_WriteReg>
 80054a4:	f241 6190 	movw	r1, #5776	; 0x1690
 80054a8:	2010      	movs	r0, #16
 80054aa:	f7fc fb11 	bl	8001ad0 <LCD_WriteReg>
 80054ae:	f240 2127 	movw	r1, #551	; 0x227
 80054b2:	2011      	movs	r0, #17
 80054b4:	f7fc fb0c 	bl	8001ad0 <LCD_WriteReg>
 80054b8:	219d      	movs	r1, #157	; 0x9d
 80054ba:	2012      	movs	r0, #18
 80054bc:	f7fc fb08 	bl	8001ad0 <LCD_WriteReg>
 80054c0:	f44f 51c8 	mov.w	r1, #6400	; 0x1900
 80054c4:	2013      	movs	r0, #19
 80054c6:	f7fc fb03 	bl	8001ad0 <LCD_WriteReg>
 80054ca:	2125      	movs	r1, #37	; 0x25
 80054cc:	2029      	movs	r0, #41	; 0x29
 80054ce:	f7fc faff 	bl	8001ad0 <LCD_WriteReg>
 80054d2:	210d      	movs	r1, #13
 80054d4:	202b      	movs	r0, #43	; 0x2b
 80054d6:	f7fc fafb 	bl	8001ad0 <LCD_WriteReg>
 80054da:	2107      	movs	r1, #7
 80054dc:	2030      	movs	r0, #48	; 0x30
 80054de:	f7fc faf7 	bl	8001ad0 <LCD_WriteReg>
 80054e2:	f240 3103 	movw	r1, #771	; 0x303
 80054e6:	2031      	movs	r0, #49	; 0x31
 80054e8:	f7fc faf2 	bl	8001ad0 <LCD_WriteReg>
 80054ec:	2103      	movs	r1, #3
 80054ee:	2032      	movs	r0, #50	; 0x32
 80054f0:	f7fc faee 	bl	8001ad0 <LCD_WriteReg>
 80054f4:	f240 2106 	movw	r1, #518	; 0x206
 80054f8:	2035      	movs	r0, #53	; 0x35
 80054fa:	f7fc fae9 	bl	8001ad0 <LCD_WriteReg>
 80054fe:	2108      	movs	r1, #8
 8005500:	2036      	movs	r0, #54	; 0x36
 8005502:	f7fc fae5 	bl	8001ad0 <LCD_WriteReg>
 8005506:	f240 4106 	movw	r1, #1030	; 0x406
 800550a:	2037      	movs	r0, #55	; 0x37
 800550c:	f7fc fae0 	bl	8001ad0 <LCD_WriteReg>
 8005510:	f44f 7141 	mov.w	r1, #772	; 0x304
 8005514:	2038      	movs	r0, #56	; 0x38
 8005516:	f7fc fadb 	bl	8001ad0 <LCD_WriteReg>
 800551a:	2107      	movs	r1, #7
 800551c:	2039      	movs	r0, #57	; 0x39
 800551e:	f7fc fad7 	bl	8001ad0 <LCD_WriteReg>
 8005522:	f240 6102 	movw	r1, #1538	; 0x602
 8005526:	203c      	movs	r0, #60	; 0x3c
 8005528:	f7fc fad2 	bl	8001ad0 <LCD_WriteReg>
 800552c:	2108      	movs	r1, #8
 800552e:	203d      	movs	r0, #61	; 0x3d
 8005530:	f7fc face 	bl	8001ad0 <LCD_WriteReg>
 8005534:	2100      	movs	r1, #0
 8005536:	2050      	movs	r0, #80	; 0x50
 8005538:	f7fc faca 	bl	8001ad0 <LCD_WriteReg>
 800553c:	21ef      	movs	r1, #239	; 0xef
 800553e:	2051      	movs	r0, #81	; 0x51
 8005540:	f7fc fac6 	bl	8001ad0 <LCD_WriteReg>
 8005544:	2100      	movs	r1, #0
 8005546:	2052      	movs	r0, #82	; 0x52
 8005548:	f7fc fac2 	bl	8001ad0 <LCD_WriteReg>
 800554c:	f240 113f 	movw	r1, #319	; 0x13f
 8005550:	2053      	movs	r0, #83	; 0x53
 8005552:	f7fc fabd 	bl	8001ad0 <LCD_WriteReg>
 8005556:	f44f 4127 	mov.w	r1, #42752	; 0xa700
 800555a:	2060      	movs	r0, #96	; 0x60
 800555c:	f7fc fab8 	bl	8001ad0 <LCD_WriteReg>
 8005560:	2101      	movs	r1, #1
 8005562:	2061      	movs	r0, #97	; 0x61
 8005564:	f7fc fab4 	bl	8001ad0 <LCD_WriteReg>
 8005568:	2100      	movs	r1, #0
 800556a:	206a      	movs	r0, #106	; 0x6a
 800556c:	f7fc fab0 	bl	8001ad0 <LCD_WriteReg>
 8005570:	2100      	movs	r1, #0
 8005572:	2080      	movs	r0, #128	; 0x80
 8005574:	f7fc faac 	bl	8001ad0 <LCD_WriteReg>
 8005578:	2100      	movs	r1, #0
 800557a:	2081      	movs	r0, #129	; 0x81
 800557c:	f7fc faa8 	bl	8001ad0 <LCD_WriteReg>
 8005580:	2100      	movs	r1, #0
 8005582:	2082      	movs	r0, #130	; 0x82
 8005584:	f7fc faa4 	bl	8001ad0 <LCD_WriteReg>
 8005588:	2100      	movs	r1, #0
 800558a:	2083      	movs	r0, #131	; 0x83
 800558c:	f7fc faa0 	bl	8001ad0 <LCD_WriteReg>
 8005590:	2100      	movs	r1, #0
 8005592:	2084      	movs	r0, #132	; 0x84
 8005594:	f7fc fa9c 	bl	8001ad0 <LCD_WriteReg>
 8005598:	2100      	movs	r1, #0
 800559a:	2085      	movs	r0, #133	; 0x85
 800559c:	f7fc fa98 	bl	8001ad0 <LCD_WriteReg>
 80055a0:	2110      	movs	r1, #16
 80055a2:	2090      	movs	r0, #144	; 0x90
 80055a4:	f7fc fa94 	bl	8001ad0 <LCD_WriteReg>
 80055a8:	f44f 61c0 	mov.w	r1, #1536	; 0x600
 80055ac:	2092      	movs	r0, #146	; 0x92
 80055ae:	f7fc fa8f 	bl	8001ad0 <LCD_WriteReg>
 80055b2:	f240 1133 	movw	r1, #307	; 0x133
 80055b6:	2007      	movs	r0, #7
 80055b8:	f7fc fa8a 	bl	8001ad0 <LCD_WriteReg>
 80055bc:	2122      	movs	r1, #34	; 0x22
 80055be:	2000      	movs	r0, #0
 80055c0:	f7fc fa86 	bl	8001ad0 <LCD_WriteReg>
 80055c4:	f001 bc3a 	b.w	8006e3c <LCD_Init+0x3e34>
 80055c8:	4b7d      	ldr	r3, [pc, #500]	; (80057c0 <LCD_Init+0x27b8>)
 80055ca:	889b      	ldrh	r3, [r3, #4]
 80055cc:	f249 3228 	movw	r2, #37672	; 0x9328
 80055d0:	4293      	cmp	r3, r2
 80055d2:	f040 80f7 	bne.w	80057c4 <LCD_Init+0x27bc>
 80055d6:	f241 018f 	movw	r1, #4239	; 0x108f
 80055da:	20ec      	movs	r0, #236	; 0xec
 80055dc:	f7fc fa78 	bl	8001ad0 <LCD_WriteReg>
 80055e0:	f241 2134 	movw	r1, #4660	; 0x1234
 80055e4:	20ef      	movs	r0, #239	; 0xef
 80055e6:	f7fc fa73 	bl	8001ad0 <LCD_WriteReg>
 80055ea:	f44f 7180 	mov.w	r1, #256	; 0x100
 80055ee:	2001      	movs	r0, #1
 80055f0:	f7fc fa6e 	bl	8001ad0 <LCD_WriteReg>
 80055f4:	f44f 61e0 	mov.w	r1, #1792	; 0x700
 80055f8:	2002      	movs	r0, #2
 80055fa:	f7fc fa69 	bl	8001ad0 <LCD_WriteReg>
 80055fe:	f241 0130 	movw	r1, #4144	; 0x1030
 8005602:	2003      	movs	r0, #3
 8005604:	f7fc fa64 	bl	8001ad0 <LCD_WriteReg>
 8005608:	2100      	movs	r1, #0
 800560a:	2004      	movs	r0, #4
 800560c:	f7fc fa60 	bl	8001ad0 <LCD_WriteReg>
 8005610:	f240 2102 	movw	r1, #514	; 0x202
 8005614:	2008      	movs	r0, #8
 8005616:	f7fc fa5b 	bl	8001ad0 <LCD_WriteReg>
 800561a:	2100      	movs	r1, #0
 800561c:	2009      	movs	r0, #9
 800561e:	f7fc fa57 	bl	8001ad0 <LCD_WriteReg>
 8005622:	2100      	movs	r1, #0
 8005624:	200a      	movs	r0, #10
 8005626:	f7fc fa53 	bl	8001ad0 <LCD_WriteReg>
 800562a:	2101      	movs	r1, #1
 800562c:	200c      	movs	r0, #12
 800562e:	f7fc fa4f 	bl	8001ad0 <LCD_WriteReg>
 8005632:	2100      	movs	r1, #0
 8005634:	200d      	movs	r0, #13
 8005636:	f7fc fa4b 	bl	8001ad0 <LCD_WriteReg>
 800563a:	2100      	movs	r1, #0
 800563c:	200f      	movs	r0, #15
 800563e:	f7fc fa47 	bl	8001ad0 <LCD_WriteReg>
 8005642:	2100      	movs	r1, #0
 8005644:	2010      	movs	r0, #16
 8005646:	f7fc fa43 	bl	8001ad0 <LCD_WriteReg>
 800564a:	2107      	movs	r1, #7
 800564c:	2011      	movs	r0, #17
 800564e:	f7fc fa3f 	bl	8001ad0 <LCD_WriteReg>
 8005652:	2100      	movs	r1, #0
 8005654:	2012      	movs	r0, #18
 8005656:	f7fc fa3b 	bl	8001ad0 <LCD_WriteReg>
 800565a:	2100      	movs	r1, #0
 800565c:	2013      	movs	r0, #19
 800565e:	f7fc fa37 	bl	8001ad0 <LCD_WriteReg>
 8005662:	2101      	movs	r1, #1
 8005664:	2007      	movs	r0, #7
 8005666:	f7fc fa33 	bl	8001ad0 <LCD_WriteReg>
 800566a:	2032      	movs	r0, #50	; 0x32
 800566c:	f7fb fa2c 	bl	8000ac8 <HAL_Delay>
 8005670:	f241 4190 	movw	r1, #5264	; 0x1490
 8005674:	2010      	movs	r0, #16
 8005676:	f7fc fa2b 	bl	8001ad0 <LCD_WriteReg>
 800567a:	f240 2127 	movw	r1, #551	; 0x227
 800567e:	2011      	movs	r0, #17
 8005680:	f7fc fa26 	bl	8001ad0 <LCD_WriteReg>
 8005684:	2032      	movs	r0, #50	; 0x32
 8005686:	f7fb fa1f 	bl	8000ac8 <HAL_Delay>
 800568a:	218a      	movs	r1, #138	; 0x8a
 800568c:	2012      	movs	r0, #18
 800568e:	f7fc fa1f 	bl	8001ad0 <LCD_WriteReg>
 8005692:	2032      	movs	r0, #50	; 0x32
 8005694:	f7fb fa18 	bl	8000ac8 <HAL_Delay>
 8005698:	f44f 51d0 	mov.w	r1, #6656	; 0x1a00
 800569c:	2013      	movs	r0, #19
 800569e:	f7fc fa17 	bl	8001ad0 <LCD_WriteReg>
 80056a2:	2106      	movs	r1, #6
 80056a4:	2029      	movs	r0, #41	; 0x29
 80056a6:	f7fc fa13 	bl	8001ad0 <LCD_WriteReg>
 80056aa:	210d      	movs	r1, #13
 80056ac:	202b      	movs	r0, #43	; 0x2b
 80056ae:	f7fc fa0f 	bl	8001ad0 <LCD_WriteReg>
 80056b2:	2032      	movs	r0, #50	; 0x32
 80056b4:	f7fb fa08 	bl	8000ac8 <HAL_Delay>
 80056b8:	2100      	movs	r1, #0
 80056ba:	2020      	movs	r0, #32
 80056bc:	f7fc fa08 	bl	8001ad0 <LCD_WriteReg>
 80056c0:	2100      	movs	r1, #0
 80056c2:	2021      	movs	r0, #33	; 0x21
 80056c4:	f7fc fa04 	bl	8001ad0 <LCD_WriteReg>
 80056c8:	2032      	movs	r0, #50	; 0x32
 80056ca:	f7fb f9fd 	bl	8000ac8 <HAL_Delay>
 80056ce:	2100      	movs	r1, #0
 80056d0:	2030      	movs	r0, #48	; 0x30
 80056d2:	f7fc f9fd 	bl	8001ad0 <LCD_WriteReg>
 80056d6:	f240 6104 	movw	r1, #1540	; 0x604
 80056da:	2031      	movs	r0, #49	; 0x31
 80056dc:	f7fc f9f8 	bl	8001ad0 <LCD_WriteReg>
 80056e0:	f240 3105 	movw	r1, #773	; 0x305
 80056e4:	2032      	movs	r0, #50	; 0x32
 80056e6:	f7fc f9f3 	bl	8001ad0 <LCD_WriteReg>
 80056ea:	2100      	movs	r1, #0
 80056ec:	2035      	movs	r0, #53	; 0x35
 80056ee:	f7fc f9ef 	bl	8001ad0 <LCD_WriteReg>
 80056f2:	f640 4109 	movw	r1, #3081	; 0xc09
 80056f6:	2036      	movs	r0, #54	; 0x36
 80056f8:	f7fc f9ea 	bl	8001ad0 <LCD_WriteReg>
 80056fc:	f44f 7101 	mov.w	r1, #516	; 0x204
 8005700:	2037      	movs	r0, #55	; 0x37
 8005702:	f7fc f9e5 	bl	8001ad0 <LCD_WriteReg>
 8005706:	f240 3101 	movw	r1, #769	; 0x301
 800570a:	2038      	movs	r0, #56	; 0x38
 800570c:	f7fc f9e0 	bl	8001ad0 <LCD_WriteReg>
 8005710:	f240 7107 	movw	r1, #1799	; 0x707
 8005714:	2039      	movs	r0, #57	; 0x39
 8005716:	f7fc f9db 	bl	8001ad0 <LCD_WriteReg>
 800571a:	2100      	movs	r1, #0
 800571c:	203c      	movs	r0, #60	; 0x3c
 800571e:	f7fc f9d7 	bl	8001ad0 <LCD_WriteReg>
 8005722:	f640 210a 	movw	r1, #2570	; 0xa0a
 8005726:	203d      	movs	r0, #61	; 0x3d
 8005728:	f7fc f9d2 	bl	8001ad0 <LCD_WriteReg>
 800572c:	2032      	movs	r0, #50	; 0x32
 800572e:	f7fb f9cb 	bl	8000ac8 <HAL_Delay>
 8005732:	2100      	movs	r1, #0
 8005734:	2050      	movs	r0, #80	; 0x50
 8005736:	f7fc f9cb 	bl	8001ad0 <LCD_WriteReg>
 800573a:	21ef      	movs	r1, #239	; 0xef
 800573c:	2051      	movs	r0, #81	; 0x51
 800573e:	f7fc f9c7 	bl	8001ad0 <LCD_WriteReg>
 8005742:	2100      	movs	r1, #0
 8005744:	2052      	movs	r0, #82	; 0x52
 8005746:	f7fc f9c3 	bl	8001ad0 <LCD_WriteReg>
 800574a:	f240 113f 	movw	r1, #319	; 0x13f
 800574e:	2053      	movs	r0, #83	; 0x53
 8005750:	f7fc f9be 	bl	8001ad0 <LCD_WriteReg>
 8005754:	f44f 4127 	mov.w	r1, #42752	; 0xa700
 8005758:	2060      	movs	r0, #96	; 0x60
 800575a:	f7fc f9b9 	bl	8001ad0 <LCD_WriteReg>
 800575e:	2101      	movs	r1, #1
 8005760:	2061      	movs	r0, #97	; 0x61
 8005762:	f7fc f9b5 	bl	8001ad0 <LCD_WriteReg>
 8005766:	2100      	movs	r1, #0
 8005768:	206a      	movs	r0, #106	; 0x6a
 800576a:	f7fc f9b1 	bl	8001ad0 <LCD_WriteReg>
 800576e:	2100      	movs	r1, #0
 8005770:	2080      	movs	r0, #128	; 0x80
 8005772:	f7fc f9ad 	bl	8001ad0 <LCD_WriteReg>
 8005776:	2100      	movs	r1, #0
 8005778:	2081      	movs	r0, #129	; 0x81
 800577a:	f7fc f9a9 	bl	8001ad0 <LCD_WriteReg>
 800577e:	2100      	movs	r1, #0
 8005780:	2082      	movs	r0, #130	; 0x82
 8005782:	f7fc f9a5 	bl	8001ad0 <LCD_WriteReg>
 8005786:	2100      	movs	r1, #0
 8005788:	2083      	movs	r0, #131	; 0x83
 800578a:	f7fc f9a1 	bl	8001ad0 <LCD_WriteReg>
 800578e:	2100      	movs	r1, #0
 8005790:	2084      	movs	r0, #132	; 0x84
 8005792:	f7fc f99d 	bl	8001ad0 <LCD_WriteReg>
 8005796:	2100      	movs	r1, #0
 8005798:	2085      	movs	r0, #133	; 0x85
 800579a:	f7fc f999 	bl	8001ad0 <LCD_WriteReg>
 800579e:	2110      	movs	r1, #16
 80057a0:	2090      	movs	r0, #144	; 0x90
 80057a2:	f7fc f995 	bl	8001ad0 <LCD_WriteReg>
 80057a6:	f44f 61c0 	mov.w	r1, #1536	; 0x600
 80057aa:	2092      	movs	r0, #146	; 0x92
 80057ac:	f7fc f990 	bl	8001ad0 <LCD_WriteReg>
 80057b0:	f240 1133 	movw	r1, #307	; 0x133
 80057b4:	2007      	movs	r0, #7
 80057b6:	f7fc f98b 	bl	8001ad0 <LCD_WriteReg>
 80057ba:	f001 bb3f 	b.w	8006e3c <LCD_Init+0x3e34>
 80057be:	bf00      	nop
 80057c0:	20000030 	.word	0x20000030
 80057c4:	4bce      	ldr	r3, [pc, #824]	; (8005b00 <LCD_Init+0x2af8>)
 80057c6:	889b      	ldrh	r3, [r3, #4]
 80057c8:	f249 3220 	movw	r2, #37664	; 0x9320
 80057cc:	4293      	cmp	r3, r2
 80057ce:	f040 80ad 	bne.w	800592c <LCD_Init+0x2924>
 80057d2:	2100      	movs	r1, #0
 80057d4:	2000      	movs	r0, #0
 80057d6:	f7fc f97b 	bl	8001ad0 <LCD_WriteReg>
 80057da:	f44f 7180 	mov.w	r1, #256	; 0x100
 80057de:	2001      	movs	r0, #1
 80057e0:	f7fc f976 	bl	8001ad0 <LCD_WriteReg>
 80057e4:	f44f 61e0 	mov.w	r1, #1792	; 0x700
 80057e8:	2002      	movs	r0, #2
 80057ea:	f7fc f971 	bl	8001ad0 <LCD_WriteReg>
 80057ee:	f241 0130 	movw	r1, #4144	; 0x1030
 80057f2:	2003      	movs	r0, #3
 80057f4:	f7fc f96c 	bl	8001ad0 <LCD_WriteReg>
 80057f8:	2100      	movs	r1, #0
 80057fa:	2004      	movs	r0, #4
 80057fc:	f7fc f968 	bl	8001ad0 <LCD_WriteReg>
 8005800:	f240 2102 	movw	r1, #514	; 0x202
 8005804:	2008      	movs	r0, #8
 8005806:	f7fc f963 	bl	8001ad0 <LCD_WriteReg>
 800580a:	2100      	movs	r1, #0
 800580c:	2009      	movs	r0, #9
 800580e:	f7fc f95f 	bl	8001ad0 <LCD_WriteReg>
 8005812:	2100      	movs	r1, #0
 8005814:	200a      	movs	r0, #10
 8005816:	f7fc f95b 	bl	8001ad0 <LCD_WriteReg>
 800581a:	2101      	movs	r1, #1
 800581c:	200c      	movs	r0, #12
 800581e:	f7fc f957 	bl	8001ad0 <LCD_WriteReg>
 8005822:	2100      	movs	r1, #0
 8005824:	200d      	movs	r0, #13
 8005826:	f7fc f953 	bl	8001ad0 <LCD_WriteReg>
 800582a:	2100      	movs	r1, #0
 800582c:	200f      	movs	r0, #15
 800582e:	f7fc f94f 	bl	8001ad0 <LCD_WriteReg>
 8005832:	2032      	movs	r0, #50	; 0x32
 8005834:	f7fb f948 	bl	8000ac8 <HAL_Delay>
 8005838:	f240 1101 	movw	r1, #257	; 0x101
 800583c:	2007      	movs	r0, #7
 800583e:	f7fc f947 	bl	8001ad0 <LCD_WriteReg>
 8005842:	2032      	movs	r0, #50	; 0x32
 8005844:	f7fb f940 	bl	8000ac8 <HAL_Delay>
 8005848:	f44f 5186 	mov.w	r1, #4288	; 0x10c0
 800584c:	2010      	movs	r0, #16
 800584e:	f7fc f93f 	bl	8001ad0 <LCD_WriteReg>
 8005852:	2107      	movs	r1, #7
 8005854:	2011      	movs	r0, #17
 8005856:	f7fc f93b 	bl	8001ad0 <LCD_WriteReg>
 800585a:	f44f 7188 	mov.w	r1, #272	; 0x110
 800585e:	2012      	movs	r0, #18
 8005860:	f7fc f936 	bl	8001ad0 <LCD_WriteReg>
 8005864:	f44f 6130 	mov.w	r1, #2816	; 0xb00
 8005868:	2013      	movs	r0, #19
 800586a:	f7fc f931 	bl	8001ad0 <LCD_WriteReg>
 800586e:	2100      	movs	r1, #0
 8005870:	2029      	movs	r0, #41	; 0x29
 8005872:	f7fc f92d 	bl	8001ad0 <LCD_WriteReg>
 8005876:	f244 0110 	movw	r1, #16400	; 0x4010
 800587a:	202b      	movs	r0, #43	; 0x2b
 800587c:	f7fc f928 	bl	8001ad0 <LCD_WriteReg>
 8005880:	2100      	movs	r1, #0
 8005882:	2050      	movs	r0, #80	; 0x50
 8005884:	f7fc f924 	bl	8001ad0 <LCD_WriteReg>
 8005888:	21ef      	movs	r1, #239	; 0xef
 800588a:	2051      	movs	r0, #81	; 0x51
 800588c:	f7fc f920 	bl	8001ad0 <LCD_WriteReg>
 8005890:	2100      	movs	r1, #0
 8005892:	2052      	movs	r0, #82	; 0x52
 8005894:	f7fc f91c 	bl	8001ad0 <LCD_WriteReg>
 8005898:	f240 113f 	movw	r1, #319	; 0x13f
 800589c:	2053      	movs	r0, #83	; 0x53
 800589e:	f7fc f917 	bl	8001ad0 <LCD_WriteReg>
 80058a2:	f44f 511c 	mov.w	r1, #9984	; 0x2700
 80058a6:	2060      	movs	r0, #96	; 0x60
 80058a8:	f7fc f912 	bl	8001ad0 <LCD_WriteReg>
 80058ac:	2101      	movs	r1, #1
 80058ae:	2061      	movs	r0, #97	; 0x61
 80058b0:	f7fc f90e 	bl	8001ad0 <LCD_WriteReg>
 80058b4:	2100      	movs	r1, #0
 80058b6:	206a      	movs	r0, #106	; 0x6a
 80058b8:	f7fc f90a 	bl	8001ad0 <LCD_WriteReg>
 80058bc:	2100      	movs	r1, #0
 80058be:	2080      	movs	r0, #128	; 0x80
 80058c0:	f7fc f906 	bl	8001ad0 <LCD_WriteReg>
 80058c4:	2100      	movs	r1, #0
 80058c6:	2081      	movs	r0, #129	; 0x81
 80058c8:	f7fc f902 	bl	8001ad0 <LCD_WriteReg>
 80058cc:	2100      	movs	r1, #0
 80058ce:	2082      	movs	r0, #130	; 0x82
 80058d0:	f7fc f8fe 	bl	8001ad0 <LCD_WriteReg>
 80058d4:	2100      	movs	r1, #0
 80058d6:	2083      	movs	r0, #131	; 0x83
 80058d8:	f7fc f8fa 	bl	8001ad0 <LCD_WriteReg>
 80058dc:	2100      	movs	r1, #0
 80058de:	2084      	movs	r0, #132	; 0x84
 80058e0:	f7fc f8f6 	bl	8001ad0 <LCD_WriteReg>
 80058e4:	2100      	movs	r1, #0
 80058e6:	2085      	movs	r0, #133	; 0x85
 80058e8:	f7fc f8f2 	bl	8001ad0 <LCD_WriteReg>
 80058ec:	2110      	movs	r1, #16
 80058ee:	2090      	movs	r0, #144	; 0x90
 80058f0:	f7fc f8ee 	bl	8001ad0 <LCD_WriteReg>
 80058f4:	2100      	movs	r1, #0
 80058f6:	2092      	movs	r0, #146	; 0x92
 80058f8:	f7fc f8ea 	bl	8001ad0 <LCD_WriteReg>
 80058fc:	2101      	movs	r1, #1
 80058fe:	2093      	movs	r0, #147	; 0x93
 8005900:	f7fc f8e6 	bl	8001ad0 <LCD_WriteReg>
 8005904:	f44f 7188 	mov.w	r1, #272	; 0x110
 8005908:	2095      	movs	r0, #149	; 0x95
 800590a:	f7fc f8e1 	bl	8001ad0 <LCD_WriteReg>
 800590e:	2100      	movs	r1, #0
 8005910:	2097      	movs	r0, #151	; 0x97
 8005912:	f7fc f8dd 	bl	8001ad0 <LCD_WriteReg>
 8005916:	2100      	movs	r1, #0
 8005918:	2098      	movs	r0, #152	; 0x98
 800591a:	f7fc f8d9 	bl	8001ad0 <LCD_WriteReg>
 800591e:	f240 1173 	movw	r1, #371	; 0x173
 8005922:	2007      	movs	r0, #7
 8005924:	f7fc f8d4 	bl	8001ad0 <LCD_WriteReg>
 8005928:	f001 ba88 	b.w	8006e3c <LCD_Init+0x3e34>
 800592c:	4b74      	ldr	r3, [pc, #464]	; (8005b00 <LCD_Init+0x2af8>)
 800592e:	889b      	ldrh	r3, [r3, #4]
 8005930:	f249 3231 	movw	r2, #37681	; 0x9331
 8005934:	4293      	cmp	r3, r2
 8005936:	f040 80e5 	bne.w	8005b04 <LCD_Init+0x2afc>
 800593a:	f241 0114 	movw	r1, #4116	; 0x1014
 800593e:	20e7      	movs	r0, #231	; 0xe7
 8005940:	f7fc f8c6 	bl	8001ad0 <LCD_WriteReg>
 8005944:	f44f 7180 	mov.w	r1, #256	; 0x100
 8005948:	2001      	movs	r0, #1
 800594a:	f7fc f8c1 	bl	8001ad0 <LCD_WriteReg>
 800594e:	f44f 7100 	mov.w	r1, #512	; 0x200
 8005952:	2002      	movs	r0, #2
 8005954:	f7fc f8bc 	bl	8001ad0 <LCD_WriteReg>
 8005958:	f241 0138 	movw	r1, #4152	; 0x1038
 800595c:	2003      	movs	r0, #3
 800595e:	f7fc f8b7 	bl	8001ad0 <LCD_WriteReg>
 8005962:	f240 2102 	movw	r1, #514	; 0x202
 8005966:	2008      	movs	r0, #8
 8005968:	f7fc f8b2 	bl	8001ad0 <LCD_WriteReg>
 800596c:	2100      	movs	r1, #0
 800596e:	2009      	movs	r0, #9
 8005970:	f7fc f8ae 	bl	8001ad0 <LCD_WriteReg>
 8005974:	2100      	movs	r1, #0
 8005976:	200a      	movs	r0, #10
 8005978:	f7fc f8aa 	bl	8001ad0 <LCD_WriteReg>
 800597c:	2100      	movs	r1, #0
 800597e:	200c      	movs	r0, #12
 8005980:	f7fc f8a6 	bl	8001ad0 <LCD_WriteReg>
 8005984:	2100      	movs	r1, #0
 8005986:	200d      	movs	r0, #13
 8005988:	f7fc f8a2 	bl	8001ad0 <LCD_WriteReg>
 800598c:	2100      	movs	r1, #0
 800598e:	200f      	movs	r0, #15
 8005990:	f7fc f89e 	bl	8001ad0 <LCD_WriteReg>
 8005994:	2100      	movs	r1, #0
 8005996:	2010      	movs	r0, #16
 8005998:	f7fc f89a 	bl	8001ad0 <LCD_WriteReg>
 800599c:	2107      	movs	r1, #7
 800599e:	2011      	movs	r0, #17
 80059a0:	f7fc f896 	bl	8001ad0 <LCD_WriteReg>
 80059a4:	2100      	movs	r1, #0
 80059a6:	2012      	movs	r0, #18
 80059a8:	f7fc f892 	bl	8001ad0 <LCD_WriteReg>
 80059ac:	2100      	movs	r1, #0
 80059ae:	2013      	movs	r0, #19
 80059b0:	f7fc f88e 	bl	8001ad0 <LCD_WriteReg>
 80059b4:	20c8      	movs	r0, #200	; 0xc8
 80059b6:	f7fb f887 	bl	8000ac8 <HAL_Delay>
 80059ba:	f241 6190 	movw	r1, #5776	; 0x1690
 80059be:	2010      	movs	r0, #16
 80059c0:	f7fc f886 	bl	8001ad0 <LCD_WriteReg>
 80059c4:	f240 2127 	movw	r1, #551	; 0x227
 80059c8:	2011      	movs	r0, #17
 80059ca:	f7fc f881 	bl	8001ad0 <LCD_WriteReg>
 80059ce:	2032      	movs	r0, #50	; 0x32
 80059d0:	f7fb f87a 	bl	8000ac8 <HAL_Delay>
 80059d4:	210c      	movs	r1, #12
 80059d6:	2012      	movs	r0, #18
 80059d8:	f7fc f87a 	bl	8001ad0 <LCD_WriteReg>
 80059dc:	2032      	movs	r0, #50	; 0x32
 80059de:	f7fb f873 	bl	8000ac8 <HAL_Delay>
 80059e2:	f44f 6100 	mov.w	r1, #2048	; 0x800
 80059e6:	2013      	movs	r0, #19
 80059e8:	f7fc f872 	bl	8001ad0 <LCD_WriteReg>
 80059ec:	2111      	movs	r1, #17
 80059ee:	2029      	movs	r0, #41	; 0x29
 80059f0:	f7fc f86e 	bl	8001ad0 <LCD_WriteReg>
 80059f4:	210b      	movs	r1, #11
 80059f6:	202b      	movs	r0, #43	; 0x2b
 80059f8:	f7fc f86a 	bl	8001ad0 <LCD_WriteReg>
 80059fc:	2032      	movs	r0, #50	; 0x32
 80059fe:	f7fb f863 	bl	8000ac8 <HAL_Delay>
 8005a02:	2100      	movs	r1, #0
 8005a04:	2020      	movs	r0, #32
 8005a06:	f7fc f863 	bl	8001ad0 <LCD_WriteReg>
 8005a0a:	f240 113f 	movw	r1, #319	; 0x13f
 8005a0e:	2021      	movs	r0, #33	; 0x21
 8005a10:	f7fc f85e 	bl	8001ad0 <LCD_WriteReg>
 8005a14:	2100      	movs	r1, #0
 8005a16:	2030      	movs	r0, #48	; 0x30
 8005a18:	f7fc f85a 	bl	8001ad0 <LCD_WriteReg>
 8005a1c:	f44f 7183 	mov.w	r1, #262	; 0x106
 8005a20:	2031      	movs	r0, #49	; 0x31
 8005a22:	f7fc f855 	bl	8001ad0 <LCD_WriteReg>
 8005a26:	2100      	movs	r1, #0
 8005a28:	2032      	movs	r0, #50	; 0x32
 8005a2a:	f7fc f851 	bl	8001ad0 <LCD_WriteReg>
 8005a2e:	f44f 7101 	mov.w	r1, #516	; 0x204
 8005a32:	2035      	movs	r0, #53	; 0x35
 8005a34:	f7fc f84c 	bl	8001ad0 <LCD_WriteReg>
 8005a38:	f241 610a 	movw	r1, #5642	; 0x160a
 8005a3c:	2036      	movs	r0, #54	; 0x36
 8005a3e:	f7fc f847 	bl	8001ad0 <LCD_WriteReg>
 8005a42:	f240 7107 	movw	r1, #1799	; 0x707
 8005a46:	2037      	movs	r0, #55	; 0x37
 8005a48:	f7fc f842 	bl	8001ad0 <LCD_WriteReg>
 8005a4c:	f44f 7183 	mov.w	r1, #262	; 0x106
 8005a50:	2038      	movs	r0, #56	; 0x38
 8005a52:	f7fc f83d 	bl	8001ad0 <LCD_WriteReg>
 8005a56:	f240 7107 	movw	r1, #1799	; 0x707
 8005a5a:	2039      	movs	r0, #57	; 0x39
 8005a5c:	f7fc f838 	bl	8001ad0 <LCD_WriteReg>
 8005a60:	f240 4102 	movw	r1, #1026	; 0x402
 8005a64:	203c      	movs	r0, #60	; 0x3c
 8005a66:	f7fc f833 	bl	8001ad0 <LCD_WriteReg>
 8005a6a:	f640 410f 	movw	r1, #3087	; 0xc0f
 8005a6e:	203d      	movs	r0, #61	; 0x3d
 8005a70:	f7fc f82e 	bl	8001ad0 <LCD_WriteReg>
 8005a74:	2100      	movs	r1, #0
 8005a76:	2050      	movs	r0, #80	; 0x50
 8005a78:	f7fc f82a 	bl	8001ad0 <LCD_WriteReg>
 8005a7c:	21ef      	movs	r1, #239	; 0xef
 8005a7e:	2051      	movs	r0, #81	; 0x51
 8005a80:	f7fc f826 	bl	8001ad0 <LCD_WriteReg>
 8005a84:	2100      	movs	r1, #0
 8005a86:	2052      	movs	r0, #82	; 0x52
 8005a88:	f7fc f822 	bl	8001ad0 <LCD_WriteReg>
 8005a8c:	f240 113f 	movw	r1, #319	; 0x13f
 8005a90:	2053      	movs	r0, #83	; 0x53
 8005a92:	f7fc f81d 	bl	8001ad0 <LCD_WriteReg>
 8005a96:	f44f 511c 	mov.w	r1, #9984	; 0x2700
 8005a9a:	2060      	movs	r0, #96	; 0x60
 8005a9c:	f7fc f818 	bl	8001ad0 <LCD_WriteReg>
 8005aa0:	2101      	movs	r1, #1
 8005aa2:	2061      	movs	r0, #97	; 0x61
 8005aa4:	f7fc f814 	bl	8001ad0 <LCD_WriteReg>
 8005aa8:	2100      	movs	r1, #0
 8005aaa:	206a      	movs	r0, #106	; 0x6a
 8005aac:	f7fc f810 	bl	8001ad0 <LCD_WriteReg>
 8005ab0:	2100      	movs	r1, #0
 8005ab2:	2080      	movs	r0, #128	; 0x80
 8005ab4:	f7fc f80c 	bl	8001ad0 <LCD_WriteReg>
 8005ab8:	2100      	movs	r1, #0
 8005aba:	2081      	movs	r0, #129	; 0x81
 8005abc:	f7fc f808 	bl	8001ad0 <LCD_WriteReg>
 8005ac0:	2100      	movs	r1, #0
 8005ac2:	2082      	movs	r0, #130	; 0x82
 8005ac4:	f7fc f804 	bl	8001ad0 <LCD_WriteReg>
 8005ac8:	2100      	movs	r1, #0
 8005aca:	2083      	movs	r0, #131	; 0x83
 8005acc:	f7fc f800 	bl	8001ad0 <LCD_WriteReg>
 8005ad0:	2100      	movs	r1, #0
 8005ad2:	2084      	movs	r0, #132	; 0x84
 8005ad4:	f7fb fffc 	bl	8001ad0 <LCD_WriteReg>
 8005ad8:	2100      	movs	r1, #0
 8005ada:	2085      	movs	r0, #133	; 0x85
 8005adc:	f7fb fff8 	bl	8001ad0 <LCD_WriteReg>
 8005ae0:	2110      	movs	r1, #16
 8005ae2:	2090      	movs	r0, #144	; 0x90
 8005ae4:	f7fb fff4 	bl	8001ad0 <LCD_WriteReg>
 8005ae8:	f44f 61c0 	mov.w	r1, #1536	; 0x600
 8005aec:	2092      	movs	r0, #146	; 0x92
 8005aee:	f7fb ffef 	bl	8001ad0 <LCD_WriteReg>
 8005af2:	f240 1133 	movw	r1, #307	; 0x133
 8005af6:	2007      	movs	r0, #7
 8005af8:	f7fb ffea 	bl	8001ad0 <LCD_WriteReg>
 8005afc:	f001 b99e 	b.w	8006e3c <LCD_Init+0x3e34>
 8005b00:	20000030 	.word	0x20000030
 8005b04:	4be2      	ldr	r3, [pc, #904]	; (8005e90 <LCD_Init+0x2e88>)
 8005b06:	889b      	ldrh	r3, [r3, #4]
 8005b08:	f245 4208 	movw	r2, #21512	; 0x5408
 8005b0c:	4293      	cmp	r3, r2
 8005b0e:	f040 80a3 	bne.w	8005c58 <LCD_Init+0x2c50>
 8005b12:	f44f 7180 	mov.w	r1, #256	; 0x100
 8005b16:	2001      	movs	r0, #1
 8005b18:	f7fb ffda 	bl	8001ad0 <LCD_WriteReg>
 8005b1c:	f44f 61e0 	mov.w	r1, #1792	; 0x700
 8005b20:	2002      	movs	r0, #2
 8005b22:	f7fb ffd5 	bl	8001ad0 <LCD_WriteReg>
 8005b26:	f241 0130 	movw	r1, #4144	; 0x1030
 8005b2a:	2003      	movs	r0, #3
 8005b2c:	f7fb ffd0 	bl	8001ad0 <LCD_WriteReg>
 8005b30:	2100      	movs	r1, #0
 8005b32:	2004      	movs	r0, #4
 8005b34:	f7fb ffcc 	bl	8001ad0 <LCD_WriteReg>
 8005b38:	f240 2107 	movw	r1, #519	; 0x207
 8005b3c:	2008      	movs	r0, #8
 8005b3e:	f7fb ffc7 	bl	8001ad0 <LCD_WriteReg>
 8005b42:	2100      	movs	r1, #0
 8005b44:	2009      	movs	r0, #9
 8005b46:	f7fb ffc3 	bl	8001ad0 <LCD_WriteReg>
 8005b4a:	2100      	movs	r1, #0
 8005b4c:	200a      	movs	r0, #10
 8005b4e:	f7fb ffbf 	bl	8001ad0 <LCD_WriteReg>
 8005b52:	2100      	movs	r1, #0
 8005b54:	200c      	movs	r0, #12
 8005b56:	f7fb ffbb 	bl	8001ad0 <LCD_WriteReg>
 8005b5a:	2100      	movs	r1, #0
 8005b5c:	200d      	movs	r0, #13
 8005b5e:	f7fb ffb7 	bl	8001ad0 <LCD_WriteReg>
 8005b62:	2100      	movs	r1, #0
 8005b64:	200f      	movs	r0, #15
 8005b66:	f7fb ffb3 	bl	8001ad0 <LCD_WriteReg>
 8005b6a:	2014      	movs	r0, #20
 8005b6c:	f7fa ffac 	bl	8000ac8 <HAL_Delay>
 8005b70:	f241 61b0 	movw	r1, #5808	; 0x16b0
 8005b74:	2010      	movs	r0, #16
 8005b76:	f7fb ffab 	bl	8001ad0 <LCD_WriteReg>
 8005b7a:	2101      	movs	r1, #1
 8005b7c:	2011      	movs	r0, #17
 8005b7e:	f7fb ffa7 	bl	8001ad0 <LCD_WriteReg>
 8005b82:	2101      	movs	r1, #1
 8005b84:	2017      	movs	r0, #23
 8005b86:	f7fb ffa3 	bl	8001ad0 <LCD_WriteReg>
 8005b8a:	f44f 719c 	mov.w	r1, #312	; 0x138
 8005b8e:	2012      	movs	r0, #18
 8005b90:	f7fb ff9e 	bl	8001ad0 <LCD_WriteReg>
 8005b94:	f44f 6100 	mov.w	r1, #2048	; 0x800
 8005b98:	2013      	movs	r0, #19
 8005b9a:	f7fb ff99 	bl	8001ad0 <LCD_WriteReg>
 8005b9e:	2109      	movs	r1, #9
 8005ba0:	2029      	movs	r0, #41	; 0x29
 8005ba2:	f7fb ff95 	bl	8001ad0 <LCD_WriteReg>
 8005ba6:	2109      	movs	r1, #9
 8005ba8:	202a      	movs	r0, #42	; 0x2a
 8005baa:	f7fb ff91 	bl	8001ad0 <LCD_WriteReg>
 8005bae:	2100      	movs	r1, #0
 8005bb0:	20a4      	movs	r0, #164	; 0xa4
 8005bb2:	f7fb ff8d 	bl	8001ad0 <LCD_WriteReg>
 8005bb6:	2100      	movs	r1, #0
 8005bb8:	2050      	movs	r0, #80	; 0x50
 8005bba:	f7fb ff89 	bl	8001ad0 <LCD_WriteReg>
 8005bbe:	21ef      	movs	r1, #239	; 0xef
 8005bc0:	2051      	movs	r0, #81	; 0x51
 8005bc2:	f7fb ff85 	bl	8001ad0 <LCD_WriteReg>
 8005bc6:	2100      	movs	r1, #0
 8005bc8:	2052      	movs	r0, #82	; 0x52
 8005bca:	f7fb ff81 	bl	8001ad0 <LCD_WriteReg>
 8005bce:	f240 113f 	movw	r1, #319	; 0x13f
 8005bd2:	2053      	movs	r0, #83	; 0x53
 8005bd4:	f7fb ff7c 	bl	8001ad0 <LCD_WriteReg>
 8005bd8:	f44f 511c 	mov.w	r1, #9984	; 0x2700
 8005bdc:	2060      	movs	r0, #96	; 0x60
 8005bde:	f7fb ff77 	bl	8001ad0 <LCD_WriteReg>
 8005be2:	2101      	movs	r1, #1
 8005be4:	2061      	movs	r0, #97	; 0x61
 8005be6:	f7fb ff73 	bl	8001ad0 <LCD_WriteReg>
 8005bea:	2100      	movs	r1, #0
 8005bec:	206a      	movs	r0, #106	; 0x6a
 8005bee:	f7fb ff6f 	bl	8001ad0 <LCD_WriteReg>
 8005bf2:	2100      	movs	r1, #0
 8005bf4:	2080      	movs	r0, #128	; 0x80
 8005bf6:	f7fb ff6b 	bl	8001ad0 <LCD_WriteReg>
 8005bfa:	2100      	movs	r1, #0
 8005bfc:	2081      	movs	r0, #129	; 0x81
 8005bfe:	f7fb ff67 	bl	8001ad0 <LCD_WriteReg>
 8005c02:	2100      	movs	r1, #0
 8005c04:	2082      	movs	r0, #130	; 0x82
 8005c06:	f7fb ff63 	bl	8001ad0 <LCD_WriteReg>
 8005c0a:	2100      	movs	r1, #0
 8005c0c:	2083      	movs	r0, #131	; 0x83
 8005c0e:	f7fb ff5f 	bl	8001ad0 <LCD_WriteReg>
 8005c12:	2100      	movs	r1, #0
 8005c14:	2084      	movs	r0, #132	; 0x84
 8005c16:	f7fb ff5b 	bl	8001ad0 <LCD_WriteReg>
 8005c1a:	2100      	movs	r1, #0
 8005c1c:	2085      	movs	r0, #133	; 0x85
 8005c1e:	f7fb ff57 	bl	8001ad0 <LCD_WriteReg>
 8005c22:	2113      	movs	r1, #19
 8005c24:	2090      	movs	r0, #144	; 0x90
 8005c26:	f7fb ff53 	bl	8001ad0 <LCD_WriteReg>
 8005c2a:	2100      	movs	r1, #0
 8005c2c:	2092      	movs	r0, #146	; 0x92
 8005c2e:	f7fb ff4f 	bl	8001ad0 <LCD_WriteReg>
 8005c32:	2103      	movs	r1, #3
 8005c34:	2093      	movs	r0, #147	; 0x93
 8005c36:	f7fb ff4b 	bl	8001ad0 <LCD_WriteReg>
 8005c3a:	f44f 7188 	mov.w	r1, #272	; 0x110
 8005c3e:	2095      	movs	r0, #149	; 0x95
 8005c40:	f7fb ff46 	bl	8001ad0 <LCD_WriteReg>
 8005c44:	f240 1173 	movw	r1, #371	; 0x173
 8005c48:	2007      	movs	r0, #7
 8005c4a:	f7fb ff41 	bl	8001ad0 <LCD_WriteReg>
 8005c4e:	2032      	movs	r0, #50	; 0x32
 8005c50:	f7fa ff3a 	bl	8000ac8 <HAL_Delay>
 8005c54:	f001 b8f2 	b.w	8006e3c <LCD_Init+0x3e34>
 8005c58:	4b8d      	ldr	r3, [pc, #564]	; (8005e90 <LCD_Init+0x2e88>)
 8005c5a:	889b      	ldrh	r3, [r3, #4]
 8005c5c:	f241 5205 	movw	r2, #5381	; 0x1505
 8005c60:	4293      	cmp	r3, r2
 8005c62:	f040 8117 	bne.w	8005e94 <LCD_Init+0x2e8c>
 8005c66:	2100      	movs	r1, #0
 8005c68:	2007      	movs	r0, #7
 8005c6a:	f7fb ff31 	bl	8001ad0 <LCD_WriteReg>
 8005c6e:	2032      	movs	r0, #50	; 0x32
 8005c70:	f7fa ff2a 	bl	8000ac8 <HAL_Delay>
 8005c74:	f44f 718e 	mov.w	r1, #284	; 0x11c
 8005c78:	2012      	movs	r0, #18
 8005c7a:	f7fb ff29 	bl	8001ad0 <LCD_WriteReg>
 8005c7e:	2101      	movs	r1, #1
 8005c80:	20a4      	movs	r0, #164	; 0xa4
 8005c82:	f7fb ff25 	bl	8001ad0 <LCD_WriteReg>
 8005c86:	210f      	movs	r1, #15
 8005c88:	2008      	movs	r0, #8
 8005c8a:	f7fb ff21 	bl	8001ad0 <LCD_WriteReg>
 8005c8e:	2108      	movs	r1, #8
 8005c90:	200a      	movs	r0, #10
 8005c92:	f7fb ff1d 	bl	8001ad0 <LCD_WriteReg>
 8005c96:	2108      	movs	r1, #8
 8005c98:	200d      	movs	r0, #13
 8005c9a:	f7fb ff19 	bl	8001ad0 <LCD_WriteReg>
 8005c9e:	f240 7107 	movw	r1, #1799	; 0x707
 8005ca2:	2030      	movs	r0, #48	; 0x30
 8005ca4:	f7fb ff14 	bl	8001ad0 <LCD_WriteReg>
 8005ca8:	2107      	movs	r1, #7
 8005caa:	2031      	movs	r0, #49	; 0x31
 8005cac:	f7fb ff10 	bl	8001ad0 <LCD_WriteReg>
 8005cb0:	f240 6103 	movw	r1, #1539	; 0x603
 8005cb4:	2032      	movs	r0, #50	; 0x32
 8005cb6:	f7fb ff0b 	bl	8001ad0 <LCD_WriteReg>
 8005cba:	f44f 61e0 	mov.w	r1, #1792	; 0x700
 8005cbe:	2033      	movs	r0, #51	; 0x33
 8005cc0:	f7fb ff06 	bl	8001ad0 <LCD_WriteReg>
 8005cc4:	f240 2102 	movw	r1, #514	; 0x202
 8005cc8:	2034      	movs	r0, #52	; 0x34
 8005cca:	f7fb ff01 	bl	8001ad0 <LCD_WriteReg>
 8005cce:	2102      	movs	r1, #2
 8005cd0:	2035      	movs	r0, #53	; 0x35
 8005cd2:	f7fb fefd 	bl	8001ad0 <LCD_WriteReg>
 8005cd6:	f641 710f 	movw	r1, #7951	; 0x1f0f
 8005cda:	2036      	movs	r0, #54	; 0x36
 8005cdc:	f7fb fef8 	bl	8001ad0 <LCD_WriteReg>
 8005ce0:	f240 7107 	movw	r1, #1799	; 0x707
 8005ce4:	2037      	movs	r0, #55	; 0x37
 8005ce6:	f7fb fef3 	bl	8001ad0 <LCD_WriteReg>
 8005cea:	2100      	movs	r1, #0
 8005cec:	2038      	movs	r0, #56	; 0x38
 8005cee:	f7fb feef 	bl	8001ad0 <LCD_WriteReg>
 8005cf2:	2100      	movs	r1, #0
 8005cf4:	2039      	movs	r0, #57	; 0x39
 8005cf6:	f7fb feeb 	bl	8001ad0 <LCD_WriteReg>
 8005cfa:	f240 7107 	movw	r1, #1799	; 0x707
 8005cfe:	203a      	movs	r0, #58	; 0x3a
 8005d00:	f7fb fee6 	bl	8001ad0 <LCD_WriteReg>
 8005d04:	2100      	movs	r1, #0
 8005d06:	203b      	movs	r0, #59	; 0x3b
 8005d08:	f7fb fee2 	bl	8001ad0 <LCD_WriteReg>
 8005d0c:	2107      	movs	r1, #7
 8005d0e:	203c      	movs	r0, #60	; 0x3c
 8005d10:	f7fb fede 	bl	8001ad0 <LCD_WriteReg>
 8005d14:	2100      	movs	r1, #0
 8005d16:	203d      	movs	r0, #61	; 0x3d
 8005d18:	f7fb feda 	bl	8001ad0 <LCD_WriteReg>
 8005d1c:	2032      	movs	r0, #50	; 0x32
 8005d1e:	f7fa fed3 	bl	8000ac8 <HAL_Delay>
 8005d22:	2101      	movs	r1, #1
 8005d24:	2007      	movs	r0, #7
 8005d26:	f7fb fed3 	bl	8001ad0 <LCD_WriteReg>
 8005d2a:	2101      	movs	r1, #1
 8005d2c:	2017      	movs	r0, #23
 8005d2e:	f7fb fecf 	bl	8001ad0 <LCD_WriteReg>
 8005d32:	2032      	movs	r0, #50	; 0x32
 8005d34:	f7fa fec8 	bl	8000ac8 <HAL_Delay>
 8005d38:	f44f 51bd 	mov.w	r1, #6048	; 0x17a0
 8005d3c:	2010      	movs	r0, #16
 8005d3e:	f7fb fec7 	bl	8001ad0 <LCD_WriteReg>
 8005d42:	f240 2117 	movw	r1, #535	; 0x217
 8005d46:	2011      	movs	r0, #17
 8005d48:	f7fb fec2 	bl	8001ad0 <LCD_WriteReg>
 8005d4c:	f44f 718f 	mov.w	r1, #286	; 0x11e
 8005d50:	2012      	movs	r0, #18
 8005d52:	f7fb febd 	bl	8001ad0 <LCD_WriteReg>
 8005d56:	f44f 6170 	mov.w	r1, #3840	; 0xf00
 8005d5a:	2013      	movs	r0, #19
 8005d5c:	f7fb feb8 	bl	8001ad0 <LCD_WriteReg>
 8005d60:	2100      	movs	r1, #0
 8005d62:	202a      	movs	r0, #42	; 0x2a
 8005d64:	f7fb feb4 	bl	8001ad0 <LCD_WriteReg>
 8005d68:	210a      	movs	r1, #10
 8005d6a:	2029      	movs	r0, #41	; 0x29
 8005d6c:	f7fb feb0 	bl	8001ad0 <LCD_WriteReg>
 8005d70:	f44f 719f 	mov.w	r1, #318	; 0x13e
 8005d74:	2012      	movs	r0, #18
 8005d76:	f7fb feab 	bl	8001ad0 <LCD_WriteReg>
 8005d7a:	2100      	movs	r1, #0
 8005d7c:	2050      	movs	r0, #80	; 0x50
 8005d7e:	f7fb fea7 	bl	8001ad0 <LCD_WriteReg>
 8005d82:	21ef      	movs	r1, #239	; 0xef
 8005d84:	2051      	movs	r0, #81	; 0x51
 8005d86:	f7fb fea3 	bl	8001ad0 <LCD_WriteReg>
 8005d8a:	2100      	movs	r1, #0
 8005d8c:	2052      	movs	r0, #82	; 0x52
 8005d8e:	f7fb fe9f 	bl	8001ad0 <LCD_WriteReg>
 8005d92:	f240 113f 	movw	r1, #319	; 0x13f
 8005d96:	2053      	movs	r0, #83	; 0x53
 8005d98:	f7fb fe9a 	bl	8001ad0 <LCD_WriteReg>
 8005d9c:	f44f 511c 	mov.w	r1, #9984	; 0x2700
 8005da0:	2060      	movs	r0, #96	; 0x60
 8005da2:	f7fb fe95 	bl	8001ad0 <LCD_WriteReg>
 8005da6:	2101      	movs	r1, #1
 8005da8:	2061      	movs	r0, #97	; 0x61
 8005daa:	f7fb fe91 	bl	8001ad0 <LCD_WriteReg>
 8005dae:	2100      	movs	r1, #0
 8005db0:	206a      	movs	r0, #106	; 0x6a
 8005db2:	f7fb fe8d 	bl	8001ad0 <LCD_WriteReg>
 8005db6:	2100      	movs	r1, #0
 8005db8:	2080      	movs	r0, #128	; 0x80
 8005dba:	f7fb fe89 	bl	8001ad0 <LCD_WriteReg>
 8005dbe:	2100      	movs	r1, #0
 8005dc0:	2081      	movs	r0, #129	; 0x81
 8005dc2:	f7fb fe85 	bl	8001ad0 <LCD_WriteReg>
 8005dc6:	2100      	movs	r1, #0
 8005dc8:	2082      	movs	r0, #130	; 0x82
 8005dca:	f7fb fe81 	bl	8001ad0 <LCD_WriteReg>
 8005dce:	2100      	movs	r1, #0
 8005dd0:	2083      	movs	r0, #131	; 0x83
 8005dd2:	f7fb fe7d 	bl	8001ad0 <LCD_WriteReg>
 8005dd6:	2100      	movs	r1, #0
 8005dd8:	2084      	movs	r0, #132	; 0x84
 8005dda:	f7fb fe79 	bl	8001ad0 <LCD_WriteReg>
 8005dde:	2100      	movs	r1, #0
 8005de0:	2085      	movs	r0, #133	; 0x85
 8005de2:	f7fb fe75 	bl	8001ad0 <LCD_WriteReg>
 8005de6:	2113      	movs	r1, #19
 8005de8:	2090      	movs	r0, #144	; 0x90
 8005dea:	f7fb fe71 	bl	8001ad0 <LCD_WriteReg>
 8005dee:	f44f 7140 	mov.w	r1, #768	; 0x300
 8005df2:	2092      	movs	r0, #146	; 0x92
 8005df4:	f7fb fe6c 	bl	8001ad0 <LCD_WriteReg>
 8005df8:	2105      	movs	r1, #5
 8005dfa:	2093      	movs	r0, #147	; 0x93
 8005dfc:	f7fb fe68 	bl	8001ad0 <LCD_WriteReg>
 8005e00:	2100      	movs	r1, #0
 8005e02:	2095      	movs	r0, #149	; 0x95
 8005e04:	f7fb fe64 	bl	8001ad0 <LCD_WriteReg>
 8005e08:	2100      	movs	r1, #0
 8005e0a:	2097      	movs	r0, #151	; 0x97
 8005e0c:	f7fb fe60 	bl	8001ad0 <LCD_WriteReg>
 8005e10:	2100      	movs	r1, #0
 8005e12:	2098      	movs	r0, #152	; 0x98
 8005e14:	f7fb fe5c 	bl	8001ad0 <LCD_WriteReg>
 8005e18:	f44f 7180 	mov.w	r1, #256	; 0x100
 8005e1c:	2001      	movs	r0, #1
 8005e1e:	f7fb fe57 	bl	8001ad0 <LCD_WriteReg>
 8005e22:	f44f 61e0 	mov.w	r1, #1792	; 0x700
 8005e26:	2002      	movs	r0, #2
 8005e28:	f7fb fe52 	bl	8001ad0 <LCD_WriteReg>
 8005e2c:	f241 0138 	movw	r1, #4152	; 0x1038
 8005e30:	2003      	movs	r0, #3
 8005e32:	f7fb fe4d 	bl	8001ad0 <LCD_WriteReg>
 8005e36:	2100      	movs	r1, #0
 8005e38:	2004      	movs	r0, #4
 8005e3a:	f7fb fe49 	bl	8001ad0 <LCD_WriteReg>
 8005e3e:	2100      	movs	r1, #0
 8005e40:	200c      	movs	r0, #12
 8005e42:	f7fb fe45 	bl	8001ad0 <LCD_WriteReg>
 8005e46:	2100      	movs	r1, #0
 8005e48:	200f      	movs	r0, #15
 8005e4a:	f7fb fe41 	bl	8001ad0 <LCD_WriteReg>
 8005e4e:	2100      	movs	r1, #0
 8005e50:	2020      	movs	r0, #32
 8005e52:	f7fb fe3d 	bl	8001ad0 <LCD_WriteReg>
 8005e56:	2100      	movs	r1, #0
 8005e58:	2021      	movs	r0, #33	; 0x21
 8005e5a:	f7fb fe39 	bl	8001ad0 <LCD_WriteReg>
 8005e5e:	2121      	movs	r1, #33	; 0x21
 8005e60:	2007      	movs	r0, #7
 8005e62:	f7fb fe35 	bl	8001ad0 <LCD_WriteReg>
 8005e66:	2014      	movs	r0, #20
 8005e68:	f7fa fe2e 	bl	8000ac8 <HAL_Delay>
 8005e6c:	2161      	movs	r1, #97	; 0x61
 8005e6e:	2007      	movs	r0, #7
 8005e70:	f7fb fe2e 	bl	8001ad0 <LCD_WriteReg>
 8005e74:	2014      	movs	r0, #20
 8005e76:	f7fa fe27 	bl	8000ac8 <HAL_Delay>
 8005e7a:	f240 1173 	movw	r1, #371	; 0x173
 8005e7e:	2007      	movs	r0, #7
 8005e80:	f7fb fe26 	bl	8001ad0 <LCD_WriteReg>
 8005e84:	2014      	movs	r0, #20
 8005e86:	f7fa fe1f 	bl	8000ac8 <HAL_Delay>
 8005e8a:	f000 bfd7 	b.w	8006e3c <LCD_Init+0x3e34>
 8005e8e:	bf00      	nop
 8005e90:	20000030 	.word	0x20000030
 8005e94:	4bf0      	ldr	r3, [pc, #960]	; (8006258 <LCD_Init+0x3250>)
 8005e96:	889b      	ldrh	r3, [r3, #4]
 8005e98:	f24b 5205 	movw	r2, #46341	; 0xb505
 8005e9c:	4293      	cmp	r3, r2
 8005e9e:	f040 8103 	bne.w	80060a8 <LCD_Init+0x30a0>
 8005ea2:	2100      	movs	r1, #0
 8005ea4:	2000      	movs	r0, #0
 8005ea6:	f7fb fe13 	bl	8001ad0 <LCD_WriteReg>
 8005eaa:	2100      	movs	r1, #0
 8005eac:	2000      	movs	r0, #0
 8005eae:	f7fb fe0f 	bl	8001ad0 <LCD_WriteReg>
 8005eb2:	2100      	movs	r1, #0
 8005eb4:	2000      	movs	r0, #0
 8005eb6:	f7fb fe0b 	bl	8001ad0 <LCD_WriteReg>
 8005eba:	2100      	movs	r1, #0
 8005ebc:	2000      	movs	r0, #0
 8005ebe:	f7fb fe07 	bl	8001ad0 <LCD_WriteReg>
 8005ec2:	2101      	movs	r1, #1
 8005ec4:	20a4      	movs	r0, #164	; 0xa4
 8005ec6:	f7fb fe03 	bl	8001ad0 <LCD_WriteReg>
 8005eca:	2014      	movs	r0, #20
 8005ecc:	f7fa fdfc 	bl	8000ac8 <HAL_Delay>
 8005ed0:	f44f 511c 	mov.w	r1, #9984	; 0x2700
 8005ed4:	2060      	movs	r0, #96	; 0x60
 8005ed6:	f7fb fdfb 	bl	8001ad0 <LCD_WriteReg>
 8005eda:	f240 2102 	movw	r1, #514	; 0x202
 8005ede:	2008      	movs	r0, #8
 8005ee0:	f7fb fdf6 	bl	8001ad0 <LCD_WriteReg>
 8005ee4:	f44f 7105 	mov.w	r1, #532	; 0x214
 8005ee8:	2030      	movs	r0, #48	; 0x30
 8005eea:	f7fb fdf1 	bl	8001ad0 <LCD_WriteReg>
 8005eee:	f243 7115 	movw	r1, #14101	; 0x3715
 8005ef2:	2031      	movs	r0, #49	; 0x31
 8005ef4:	f7fb fdec 	bl	8001ad0 <LCD_WriteReg>
 8005ef8:	f240 6104 	movw	r1, #1540	; 0x604
 8005efc:	2032      	movs	r0, #50	; 0x32
 8005efe:	f7fb fde7 	bl	8001ad0 <LCD_WriteReg>
 8005f02:	f640 6116 	movw	r1, #3606	; 0xe16
 8005f06:	2033      	movs	r0, #51	; 0x33
 8005f08:	f7fb fde2 	bl	8001ad0 <LCD_WriteReg>
 8005f0c:	f242 2111 	movw	r1, #8721	; 0x2211
 8005f10:	2034      	movs	r0, #52	; 0x34
 8005f12:	f7fb fddd 	bl	8001ad0 <LCD_WriteReg>
 8005f16:	f44f 51a8 	mov.w	r1, #5376	; 0x1500
 8005f1a:	2035      	movs	r0, #53	; 0x35
 8005f1c:	f7fb fdd8 	bl	8001ad0 <LCD_WriteReg>
 8005f20:	f248 5107 	movw	r1, #34055	; 0x8507
 8005f24:	2036      	movs	r0, #54	; 0x36
 8005f26:	f7fb fdd3 	bl	8001ad0 <LCD_WriteReg>
 8005f2a:	f241 4107 	movw	r1, #5127	; 0x1407
 8005f2e:	2037      	movs	r0, #55	; 0x37
 8005f30:	f7fb fdce 	bl	8001ad0 <LCD_WriteReg>
 8005f34:	f241 4103 	movw	r1, #5123	; 0x1403
 8005f38:	2038      	movs	r0, #56	; 0x38
 8005f3a:	f7fb fdc9 	bl	8001ad0 <LCD_WriteReg>
 8005f3e:	2120      	movs	r1, #32
 8005f40:	2039      	movs	r0, #57	; 0x39
 8005f42:	f7fb fdc5 	bl	8001ad0 <LCD_WriteReg>
 8005f46:	211a      	movs	r1, #26
 8005f48:	2090      	movs	r0, #144	; 0x90
 8005f4a:	f7fb fdc1 	bl	8001ad0 <LCD_WriteReg>
 8005f4e:	2100      	movs	r1, #0
 8005f50:	2010      	movs	r0, #16
 8005f52:	f7fb fdbd 	bl	8001ad0 <LCD_WriteReg>
 8005f56:	2107      	movs	r1, #7
 8005f58:	2011      	movs	r0, #17
 8005f5a:	f7fb fdb9 	bl	8001ad0 <LCD_WriteReg>
 8005f5e:	2100      	movs	r1, #0
 8005f60:	2012      	movs	r0, #18
 8005f62:	f7fb fdb5 	bl	8001ad0 <LCD_WriteReg>
 8005f66:	2100      	movs	r1, #0
 8005f68:	2013      	movs	r0, #19
 8005f6a:	f7fb fdb1 	bl	8001ad0 <LCD_WriteReg>
 8005f6e:	2014      	movs	r0, #20
 8005f70:	f7fa fdaa 	bl	8000ac8 <HAL_Delay>
 8005f74:	f44f 61e6 	mov.w	r1, #1840	; 0x730
 8005f78:	2010      	movs	r0, #16
 8005f7a:	f7fb fda9 	bl	8001ad0 <LCD_WriteReg>
 8005f7e:	f240 1137 	movw	r1, #311	; 0x137
 8005f82:	2011      	movs	r0, #17
 8005f84:	f7fb fda4 	bl	8001ad0 <LCD_WriteReg>
 8005f88:	2014      	movs	r0, #20
 8005f8a:	f7fa fd9d 	bl	8000ac8 <HAL_Delay>
 8005f8e:	f44f 71dc 	mov.w	r1, #440	; 0x1b8
 8005f92:	2012      	movs	r0, #18
 8005f94:	f7fb fd9c 	bl	8001ad0 <LCD_WriteReg>
 8005f98:	2014      	movs	r0, #20
 8005f9a:	f7fa fd95 	bl	8000ac8 <HAL_Delay>
 8005f9e:	f44f 6170 	mov.w	r1, #3840	; 0xf00
 8005fa2:	2013      	movs	r0, #19
 8005fa4:	f7fb fd94 	bl	8001ad0 <LCD_WriteReg>
 8005fa8:	2180      	movs	r1, #128	; 0x80
 8005faa:	202a      	movs	r0, #42	; 0x2a
 8005fac:	f7fb fd90 	bl	8001ad0 <LCD_WriteReg>
 8005fb0:	2148      	movs	r1, #72	; 0x48
 8005fb2:	2029      	movs	r0, #41	; 0x29
 8005fb4:	f7fb fd8c 	bl	8001ad0 <LCD_WriteReg>
 8005fb8:	2014      	movs	r0, #20
 8005fba:	f7fa fd85 	bl	8000ac8 <HAL_Delay>
 8005fbe:	f44f 7180 	mov.w	r1, #256	; 0x100
 8005fc2:	2001      	movs	r0, #1
 8005fc4:	f7fb fd84 	bl	8001ad0 <LCD_WriteReg>
 8005fc8:	f44f 61e0 	mov.w	r1, #1792	; 0x700
 8005fcc:	2002      	movs	r0, #2
 8005fce:	f7fb fd7f 	bl	8001ad0 <LCD_WriteReg>
 8005fd2:	f241 0138 	movw	r1, #4152	; 0x1038
 8005fd6:	2003      	movs	r0, #3
 8005fd8:	f7fb fd7a 	bl	8001ad0 <LCD_WriteReg>
 8005fdc:	f240 2102 	movw	r1, #514	; 0x202
 8005fe0:	2008      	movs	r0, #8
 8005fe2:	f7fb fd75 	bl	8001ad0 <LCD_WriteReg>
 8005fe6:	2100      	movs	r1, #0
 8005fe8:	200a      	movs	r0, #10
 8005fea:	f7fb fd71 	bl	8001ad0 <LCD_WriteReg>
 8005fee:	2100      	movs	r1, #0
 8005ff0:	200c      	movs	r0, #12
 8005ff2:	f7fb fd6d 	bl	8001ad0 <LCD_WriteReg>
 8005ff6:	2100      	movs	r1, #0
 8005ff8:	200d      	movs	r0, #13
 8005ffa:	f7fb fd69 	bl	8001ad0 <LCD_WriteReg>
 8005ffe:	2130      	movs	r1, #48	; 0x30
 8006000:	200e      	movs	r0, #14
 8006002:	f7fb fd65 	bl	8001ad0 <LCD_WriteReg>
 8006006:	2100      	movs	r1, #0
 8006008:	2050      	movs	r0, #80	; 0x50
 800600a:	f7fb fd61 	bl	8001ad0 <LCD_WriteReg>
 800600e:	21ef      	movs	r1, #239	; 0xef
 8006010:	2051      	movs	r0, #81	; 0x51
 8006012:	f7fb fd5d 	bl	8001ad0 <LCD_WriteReg>
 8006016:	2100      	movs	r1, #0
 8006018:	2052      	movs	r0, #82	; 0x52
 800601a:	f7fb fd59 	bl	8001ad0 <LCD_WriteReg>
 800601e:	f240 113f 	movw	r1, #319	; 0x13f
 8006022:	2053      	movs	r0, #83	; 0x53
 8006024:	f7fb fd54 	bl	8001ad0 <LCD_WriteReg>
 8006028:	f44f 511c 	mov.w	r1, #9984	; 0x2700
 800602c:	2060      	movs	r0, #96	; 0x60
 800602e:	f7fb fd4f 	bl	8001ad0 <LCD_WriteReg>
 8006032:	2101      	movs	r1, #1
 8006034:	2061      	movs	r0, #97	; 0x61
 8006036:	f7fb fd4b 	bl	8001ad0 <LCD_WriteReg>
 800603a:	2100      	movs	r1, #0
 800603c:	206a      	movs	r0, #106	; 0x6a
 800603e:	f7fb fd47 	bl	8001ad0 <LCD_WriteReg>
 8006042:	2111      	movs	r1, #17
 8006044:	2090      	movs	r0, #144	; 0x90
 8006046:	f7fb fd43 	bl	8001ad0 <LCD_WriteReg>
 800604a:	f44f 61c0 	mov.w	r1, #1536	; 0x600
 800604e:	2092      	movs	r0, #146	; 0x92
 8006050:	f7fb fd3e 	bl	8001ad0 <LCD_WriteReg>
 8006054:	f240 4102 	movw	r1, #1026	; 0x402
 8006058:	2093      	movs	r0, #147	; 0x93
 800605a:	f7fb fd39 	bl	8001ad0 <LCD_WriteReg>
 800605e:	2102      	movs	r1, #2
 8006060:	2094      	movs	r0, #148	; 0x94
 8006062:	f7fb fd35 	bl	8001ad0 <LCD_WriteReg>
 8006066:	2014      	movs	r0, #20
 8006068:	f7fa fd2e 	bl	8000ac8 <HAL_Delay>
 800606c:	2101      	movs	r1, #1
 800606e:	2007      	movs	r0, #7
 8006070:	f7fb fd2e 	bl	8001ad0 <LCD_WriteReg>
 8006074:	2014      	movs	r0, #20
 8006076:	f7fa fd27 	bl	8000ac8 <HAL_Delay>
 800607a:	2161      	movs	r1, #97	; 0x61
 800607c:	2007      	movs	r0, #7
 800607e:	f7fb fd27 	bl	8001ad0 <LCD_WriteReg>
 8006082:	f240 1173 	movw	r1, #371	; 0x173
 8006086:	2007      	movs	r0, #7
 8006088:	f7fb fd22 	bl	8001ad0 <LCD_WriteReg>
 800608c:	2100      	movs	r1, #0
 800608e:	2020      	movs	r0, #32
 8006090:	f7fb fd1e 	bl	8001ad0 <LCD_WriteReg>
 8006094:	2100      	movs	r1, #0
 8006096:	2021      	movs	r0, #33	; 0x21
 8006098:	f7fb fd1a 	bl	8001ad0 <LCD_WriteReg>
 800609c:	2122      	movs	r1, #34	; 0x22
 800609e:	2000      	movs	r0, #0
 80060a0:	f7fb fd16 	bl	8001ad0 <LCD_WriteReg>
 80060a4:	f000 beca 	b.w	8006e3c <LCD_Init+0x3e34>
 80060a8:	4b6b      	ldr	r3, [pc, #428]	; (8006258 <LCD_Init+0x3250>)
 80060aa:	889b      	ldrh	r3, [r3, #4]
 80060ac:	f24c 5205 	movw	r2, #50437	; 0xc505
 80060b0:	4293      	cmp	r3, r2
 80060b2:	f040 80d3 	bne.w	800625c <LCD_Init+0x3254>
 80060b6:	2100      	movs	r1, #0
 80060b8:	2000      	movs	r0, #0
 80060ba:	f7fb fd09 	bl	8001ad0 <LCD_WriteReg>
 80060be:	2100      	movs	r1, #0
 80060c0:	2000      	movs	r0, #0
 80060c2:	f7fb fd05 	bl	8001ad0 <LCD_WriteReg>
 80060c6:	2014      	movs	r0, #20
 80060c8:	f7fa fcfe 	bl	8000ac8 <HAL_Delay>
 80060cc:	2100      	movs	r1, #0
 80060ce:	2000      	movs	r0, #0
 80060d0:	f7fb fcfe 	bl	8001ad0 <LCD_WriteReg>
 80060d4:	2100      	movs	r1, #0
 80060d6:	2000      	movs	r0, #0
 80060d8:	f7fb fcfa 	bl	8001ad0 <LCD_WriteReg>
 80060dc:	2100      	movs	r1, #0
 80060de:	2000      	movs	r0, #0
 80060e0:	f7fb fcf6 	bl	8001ad0 <LCD_WriteReg>
 80060e4:	2100      	movs	r1, #0
 80060e6:	2000      	movs	r0, #0
 80060e8:	f7fb fcf2 	bl	8001ad0 <LCD_WriteReg>
 80060ec:	2101      	movs	r1, #1
 80060ee:	20a4      	movs	r0, #164	; 0xa4
 80060f0:	f7fb fcee 	bl	8001ad0 <LCD_WriteReg>
 80060f4:	2014      	movs	r0, #20
 80060f6:	f7fa fce7 	bl	8000ac8 <HAL_Delay>
 80060fa:	f44f 511c 	mov.w	r1, #9984	; 0x2700
 80060fe:	2060      	movs	r0, #96	; 0x60
 8006100:	f7fb fce6 	bl	8001ad0 <LCD_WriteReg>
 8006104:	f640 0106 	movw	r1, #2054	; 0x806
 8006108:	2008      	movs	r0, #8
 800610a:	f7fb fce1 	bl	8001ad0 <LCD_WriteReg>
 800610e:	f240 7103 	movw	r1, #1795	; 0x703
 8006112:	2030      	movs	r0, #48	; 0x30
 8006114:	f7fb fcdc 	bl	8001ad0 <LCD_WriteReg>
 8006118:	2101      	movs	r1, #1
 800611a:	2031      	movs	r0, #49	; 0x31
 800611c:	f7fb fcd8 	bl	8001ad0 <LCD_WriteReg>
 8006120:	2104      	movs	r1, #4
 8006122:	2032      	movs	r0, #50	; 0x32
 8006124:	f7fb fcd4 	bl	8001ad0 <LCD_WriteReg>
 8006128:	f44f 7181 	mov.w	r1, #258	; 0x102
 800612c:	2033      	movs	r0, #51	; 0x33
 800612e:	f7fb fccf 	bl	8001ad0 <LCD_WriteReg>
 8006132:	f44f 7140 	mov.w	r1, #768	; 0x300
 8006136:	2034      	movs	r0, #52	; 0x34
 8006138:	f7fb fcca 	bl	8001ad0 <LCD_WriteReg>
 800613c:	f240 1103 	movw	r1, #259	; 0x103
 8006140:	2035      	movs	r0, #53	; 0x35
 8006142:	f7fb fcc5 	bl	8001ad0 <LCD_WriteReg>
 8006146:	211f      	movs	r1, #31
 8006148:	2036      	movs	r0, #54	; 0x36
 800614a:	f7fb fcc1 	bl	8001ad0 <LCD_WriteReg>
 800614e:	f240 7103 	movw	r1, #1795	; 0x703
 8006152:	2037      	movs	r0, #55	; 0x37
 8006154:	f7fb fcbc 	bl	8001ad0 <LCD_WriteReg>
 8006158:	2101      	movs	r1, #1
 800615a:	2038      	movs	r0, #56	; 0x38
 800615c:	f7fb fcb8 	bl	8001ad0 <LCD_WriteReg>
 8006160:	2104      	movs	r1, #4
 8006162:	2039      	movs	r0, #57	; 0x39
 8006164:	f7fb fcb4 	bl	8001ad0 <LCD_WriteReg>
 8006168:	2115      	movs	r1, #21
 800616a:	2090      	movs	r0, #144	; 0x90
 800616c:	f7fb fcb0 	bl	8001ad0 <LCD_WriteReg>
 8006170:	f44f 6182 	mov.w	r1, #1040	; 0x410
 8006174:	2010      	movs	r0, #16
 8006176:	f7fb fcab 	bl	8001ad0 <LCD_WriteReg>
 800617a:	f240 2147 	movw	r1, #583	; 0x247
 800617e:	2011      	movs	r0, #17
 8006180:	f7fb fca6 	bl	8001ad0 <LCD_WriteReg>
 8006184:	f44f 71de 	mov.w	r1, #444	; 0x1bc
 8006188:	2012      	movs	r0, #18
 800618a:	f7fb fca1 	bl	8001ad0 <LCD_WriteReg>
 800618e:	f44f 6160 	mov.w	r1, #3584	; 0xe00
 8006192:	2013      	movs	r0, #19
 8006194:	f7fb fc9c 	bl	8001ad0 <LCD_WriteReg>
 8006198:	2078      	movs	r0, #120	; 0x78
 800619a:	f7fa fc95 	bl	8000ac8 <HAL_Delay>
 800619e:	f44f 7180 	mov.w	r1, #256	; 0x100
 80061a2:	2001      	movs	r0, #1
 80061a4:	f7fb fc94 	bl	8001ad0 <LCD_WriteReg>
 80061a8:	f44f 7100 	mov.w	r1, #512	; 0x200
 80061ac:	2002      	movs	r0, #2
 80061ae:	f7fb fc8f 	bl	8001ad0 <LCD_WriteReg>
 80061b2:	f241 0130 	movw	r1, #4144	; 0x1030
 80061b6:	2003      	movs	r0, #3
 80061b8:	f7fb fc8a 	bl	8001ad0 <LCD_WriteReg>
 80061bc:	2108      	movs	r1, #8
 80061be:	200a      	movs	r0, #10
 80061c0:	f7fb fc86 	bl	8001ad0 <LCD_WriteReg>
 80061c4:	2100      	movs	r1, #0
 80061c6:	200c      	movs	r0, #12
 80061c8:	f7fb fc82 	bl	8001ad0 <LCD_WriteReg>
 80061cc:	2120      	movs	r1, #32
 80061ce:	200e      	movs	r0, #14
 80061d0:	f7fb fc7e 	bl	8001ad0 <LCD_WriteReg>
 80061d4:	2100      	movs	r1, #0
 80061d6:	200f      	movs	r0, #15
 80061d8:	f7fb fc7a 	bl	8001ad0 <LCD_WriteReg>
 80061dc:	2100      	movs	r1, #0
 80061de:	2020      	movs	r0, #32
 80061e0:	f7fb fc76 	bl	8001ad0 <LCD_WriteReg>
 80061e4:	2100      	movs	r1, #0
 80061e6:	2021      	movs	r0, #33	; 0x21
 80061e8:	f7fb fc72 	bl	8001ad0 <LCD_WriteReg>
 80061ec:	213d      	movs	r1, #61	; 0x3d
 80061ee:	202a      	movs	r0, #42	; 0x2a
 80061f0:	f7fb fc6e 	bl	8001ad0 <LCD_WriteReg>
 80061f4:	2014      	movs	r0, #20
 80061f6:	f7fa fc67 	bl	8000ac8 <HAL_Delay>
 80061fa:	212d      	movs	r1, #45	; 0x2d
 80061fc:	2029      	movs	r0, #41	; 0x29
 80061fe:	f7fb fc67 	bl	8001ad0 <LCD_WriteReg>
 8006202:	2100      	movs	r1, #0
 8006204:	2050      	movs	r0, #80	; 0x50
 8006206:	f7fb fc63 	bl	8001ad0 <LCD_WriteReg>
 800620a:	f24d 01ef 	movw	r1, #53487	; 0xd0ef
 800620e:	2051      	movs	r0, #81	; 0x51
 8006210:	f7fb fc5e 	bl	8001ad0 <LCD_WriteReg>
 8006214:	2100      	movs	r1, #0
 8006216:	2052      	movs	r0, #82	; 0x52
 8006218:	f7fb fc5a 	bl	8001ad0 <LCD_WriteReg>
 800621c:	f240 113f 	movw	r1, #319	; 0x13f
 8006220:	2053      	movs	r0, #83	; 0x53
 8006222:	f7fb fc55 	bl	8001ad0 <LCD_WriteReg>
 8006226:	2100      	movs	r1, #0
 8006228:	2061      	movs	r0, #97	; 0x61
 800622a:	f7fb fc51 	bl	8001ad0 <LCD_WriteReg>
 800622e:	2100      	movs	r1, #0
 8006230:	206a      	movs	r0, #106	; 0x6a
 8006232:	f7fb fc4d 	bl	8001ad0 <LCD_WriteReg>
 8006236:	f44f 7140 	mov.w	r1, #768	; 0x300
 800623a:	2092      	movs	r0, #146	; 0x92
 800623c:	f7fb fc48 	bl	8001ad0 <LCD_WriteReg>
 8006240:	2105      	movs	r1, #5
 8006242:	2093      	movs	r0, #147	; 0x93
 8006244:	f7fb fc44 	bl	8001ad0 <LCD_WriteReg>
 8006248:	f44f 7180 	mov.w	r1, #256	; 0x100
 800624c:	2007      	movs	r0, #7
 800624e:	f7fb fc3f 	bl	8001ad0 <LCD_WriteReg>
 8006252:	f000 bdf3 	b.w	8006e3c <LCD_Init+0x3e34>
 8006256:	bf00      	nop
 8006258:	20000030 	.word	0x20000030
 800625c:	4bc2      	ldr	r3, [pc, #776]	; (8006568 <LCD_Init+0x3560>)
 800625e:	889b      	ldrh	r3, [r3, #4]
 8006260:	f648 1289 	movw	r2, #35209	; 0x8989
 8006264:	4293      	cmp	r3, r2
 8006266:	f040 80bc 	bne.w	80063e2 <LCD_Init+0x33da>
 800626a:	2101      	movs	r1, #1
 800626c:	2000      	movs	r0, #0
 800626e:	f7fb fc2f 	bl	8001ad0 <LCD_WriteReg>
 8006272:	f64a 01a4 	movw	r1, #43172	; 0xa8a4
 8006276:	2003      	movs	r0, #3
 8006278:	f7fb fc2a 	bl	8001ad0 <LCD_WriteReg>
 800627c:	2100      	movs	r1, #0
 800627e:	200c      	movs	r0, #12
 8006280:	f7fb fc26 	bl	8001ad0 <LCD_WriteReg>
 8006284:	f640 010c 	movw	r1, #2060	; 0x80c
 8006288:	200d      	movs	r0, #13
 800628a:	f7fb fc21 	bl	8001ad0 <LCD_WriteReg>
 800628e:	f44f 512c 	mov.w	r1, #11008	; 0x2b00
 8006292:	200e      	movs	r0, #14
 8006294:	f7fb fc1c 	bl	8001ad0 <LCD_WriteReg>
 8006298:	21b0      	movs	r1, #176	; 0xb0
 800629a:	201e      	movs	r0, #30
 800629c:	f7fb fc18 	bl	8001ad0 <LCD_WriteReg>
 80062a0:	f642 313f 	movw	r1, #11071	; 0x2b3f
 80062a4:	2001      	movs	r0, #1
 80062a6:	f7fb fc13 	bl	8001ad0 <LCD_WriteReg>
 80062aa:	f44f 61c0 	mov.w	r1, #1536	; 0x600
 80062ae:	2002      	movs	r0, #2
 80062b0:	f7fb fc0e 	bl	8001ad0 <LCD_WriteReg>
 80062b4:	2100      	movs	r1, #0
 80062b6:	2010      	movs	r0, #16
 80062b8:	f7fb fc0a 	bl	8001ad0 <LCD_WriteReg>
 80062bc:	f246 0178 	movw	r1, #24696	; 0x6078
 80062c0:	2011      	movs	r0, #17
 80062c2:	f7fb fc05 	bl	8001ad0 <LCD_WriteReg>
 80062c6:	2100      	movs	r1, #0
 80062c8:	2005      	movs	r0, #5
 80062ca:	f7fb fc01 	bl	8001ad0 <LCD_WriteReg>
 80062ce:	2100      	movs	r1, #0
 80062d0:	2006      	movs	r0, #6
 80062d2:	f7fb fbfd 	bl	8001ad0 <LCD_WriteReg>
 80062d6:	f64e 711c 	movw	r1, #61212	; 0xef1c
 80062da:	2016      	movs	r0, #22
 80062dc:	f7fb fbf8 	bl	8001ad0 <LCD_WriteReg>
 80062e0:	2103      	movs	r1, #3
 80062e2:	2017      	movs	r0, #23
 80062e4:	f7fb fbf4 	bl	8001ad0 <LCD_WriteReg>
 80062e8:	f240 2133 	movw	r1, #563	; 0x233
 80062ec:	2007      	movs	r0, #7
 80062ee:	f7fb fbef 	bl	8001ad0 <LCD_WriteReg>
 80062f2:	2100      	movs	r1, #0
 80062f4:	200b      	movs	r0, #11
 80062f6:	f7fb fbeb 	bl	8001ad0 <LCD_WriteReg>
 80062fa:	2100      	movs	r1, #0
 80062fc:	200f      	movs	r0, #15
 80062fe:	f7fb fbe7 	bl	8001ad0 <LCD_WriteReg>
 8006302:	2100      	movs	r1, #0
 8006304:	2041      	movs	r0, #65	; 0x41
 8006306:	f7fb fbe3 	bl	8001ad0 <LCD_WriteReg>
 800630a:	2100      	movs	r1, #0
 800630c:	2042      	movs	r0, #66	; 0x42
 800630e:	f7fb fbdf 	bl	8001ad0 <LCD_WriteReg>
 8006312:	2100      	movs	r1, #0
 8006314:	2048      	movs	r0, #72	; 0x48
 8006316:	f7fb fbdb 	bl	8001ad0 <LCD_WriteReg>
 800631a:	f240 113f 	movw	r1, #319	; 0x13f
 800631e:	2049      	movs	r0, #73	; 0x49
 8006320:	f7fb fbd6 	bl	8001ad0 <LCD_WriteReg>
 8006324:	2100      	movs	r1, #0
 8006326:	204a      	movs	r0, #74	; 0x4a
 8006328:	f7fb fbd2 	bl	8001ad0 <LCD_WriteReg>
 800632c:	2100      	movs	r1, #0
 800632e:	204b      	movs	r0, #75	; 0x4b
 8006330:	f7fb fbce 	bl	8001ad0 <LCD_WriteReg>
 8006334:	f44f 416f 	mov.w	r1, #61184	; 0xef00
 8006338:	2044      	movs	r0, #68	; 0x44
 800633a:	f7fb fbc9 	bl	8001ad0 <LCD_WriteReg>
 800633e:	2100      	movs	r1, #0
 8006340:	2045      	movs	r0, #69	; 0x45
 8006342:	f7fb fbc5 	bl	8001ad0 <LCD_WriteReg>
 8006346:	f240 113f 	movw	r1, #319	; 0x13f
 800634a:	2046      	movs	r0, #70	; 0x46
 800634c:	f7fb fbc0 	bl	8001ad0 <LCD_WriteReg>
 8006350:	f240 7107 	movw	r1, #1799	; 0x707
 8006354:	2030      	movs	r0, #48	; 0x30
 8006356:	f7fb fbbb 	bl	8001ad0 <LCD_WriteReg>
 800635a:	f44f 7101 	mov.w	r1, #516	; 0x204
 800635e:	2031      	movs	r0, #49	; 0x31
 8006360:	f7fb fbb6 	bl	8001ad0 <LCD_WriteReg>
 8006364:	f44f 7101 	mov.w	r1, #516	; 0x204
 8006368:	2032      	movs	r0, #50	; 0x32
 800636a:	f7fb fbb1 	bl	8001ad0 <LCD_WriteReg>
 800636e:	f240 5102 	movw	r1, #1282	; 0x502
 8006372:	2033      	movs	r0, #51	; 0x33
 8006374:	f7fb fbac 	bl	8001ad0 <LCD_WriteReg>
 8006378:	f240 5107 	movw	r1, #1287	; 0x507
 800637c:	2034      	movs	r0, #52	; 0x34
 800637e:	f7fb fba7 	bl	8001ad0 <LCD_WriteReg>
 8006382:	f44f 7101 	mov.w	r1, #516	; 0x204
 8006386:	2035      	movs	r0, #53	; 0x35
 8006388:	f7fb fba2 	bl	8001ad0 <LCD_WriteReg>
 800638c:	f44f 7101 	mov.w	r1, #516	; 0x204
 8006390:	2036      	movs	r0, #54	; 0x36
 8006392:	f7fb fb9d 	bl	8001ad0 <LCD_WriteReg>
 8006396:	f240 5102 	movw	r1, #1282	; 0x502
 800639a:	2037      	movs	r0, #55	; 0x37
 800639c:	f7fb fb98 	bl	8001ad0 <LCD_WriteReg>
 80063a0:	f240 3102 	movw	r1, #770	; 0x302
 80063a4:	203a      	movs	r0, #58	; 0x3a
 80063a6:	f7fb fb93 	bl	8001ad0 <LCD_WriteReg>
 80063aa:	f240 3102 	movw	r1, #770	; 0x302
 80063ae:	203b      	movs	r0, #59	; 0x3b
 80063b0:	f7fb fb8e 	bl	8001ad0 <LCD_WriteReg>
 80063b4:	2100      	movs	r1, #0
 80063b6:	2023      	movs	r0, #35	; 0x23
 80063b8:	f7fb fb8a 	bl	8001ad0 <LCD_WriteReg>
 80063bc:	2100      	movs	r1, #0
 80063be:	2024      	movs	r0, #36	; 0x24
 80063c0:	f7fb fb86 	bl	8001ad0 <LCD_WriteReg>
 80063c4:	f44f 4100 	mov.w	r1, #32768	; 0x8000
 80063c8:	2025      	movs	r0, #37	; 0x25
 80063ca:	f7fb fb81 	bl	8001ad0 <LCD_WriteReg>
 80063ce:	2100      	movs	r1, #0
 80063d0:	204f      	movs	r0, #79	; 0x4f
 80063d2:	f7fb fb7d 	bl	8001ad0 <LCD_WriteReg>
 80063d6:	2100      	movs	r1, #0
 80063d8:	204e      	movs	r0, #78	; 0x4e
 80063da:	f7fb fb79 	bl	8001ad0 <LCD_WriteReg>
 80063de:	f000 bd2d 	b.w	8006e3c <LCD_Init+0x3e34>
 80063e2:	4b61      	ldr	r3, [pc, #388]	; (8006568 <LCD_Init+0x3560>)
 80063e4:	889b      	ldrh	r3, [r3, #4]
 80063e6:	f244 5231 	movw	r2, #17713	; 0x4531
 80063ea:	4293      	cmp	r3, r2
 80063ec:	f040 80be 	bne.w	800656c <LCD_Init+0x3564>
 80063f0:	2101      	movs	r1, #1
 80063f2:	2000      	movs	r0, #0
 80063f4:	f7fb fb6c 	bl	8001ad0 <LCD_WriteReg>
 80063f8:	200a      	movs	r0, #10
 80063fa:	f7fa fb65 	bl	8000ac8 <HAL_Delay>
 80063fe:	f241 6128 	movw	r1, #5672	; 0x1628
 8006402:	2010      	movs	r0, #16
 8006404:	f7fb fb64 	bl	8001ad0 <LCD_WriteReg>
 8006408:	210e      	movs	r1, #14
 800640a:	2012      	movs	r0, #18
 800640c:	f7fb fb60 	bl	8001ad0 <LCD_WriteReg>
 8006410:	f640 2139 	movw	r1, #2617	; 0xa39
 8006414:	2013      	movs	r0, #19
 8006416:	f7fb fb5b 	bl	8001ad0 <LCD_WriteReg>
 800641a:	200a      	movs	r0, #10
 800641c:	f7fa fb54 	bl	8000ac8 <HAL_Delay>
 8006420:	2140      	movs	r1, #64	; 0x40
 8006422:	2011      	movs	r0, #17
 8006424:	f7fb fb54 	bl	8001ad0 <LCD_WriteReg>
 8006428:	2150      	movs	r1, #80	; 0x50
 800642a:	2015      	movs	r0, #21
 800642c:	f7fb fb50 	bl	8001ad0 <LCD_WriteReg>
 8006430:	200a      	movs	r0, #10
 8006432:	f7fa fb49 	bl	8000ac8 <HAL_Delay>
 8006436:	211e      	movs	r1, #30
 8006438:	2012      	movs	r0, #18
 800643a:	f7fb fb49 	bl	8001ad0 <LCD_WriteReg>
 800643e:	200a      	movs	r0, #10
 8006440:	f7fa fb42 	bl	8000ac8 <HAL_Delay>
 8006444:	f44f 51b1 	mov.w	r1, #5664	; 0x1620
 8006448:	2010      	movs	r0, #16
 800644a:	f7fb fb41 	bl	8001ad0 <LCD_WriteReg>
 800644e:	f642 2139 	movw	r1, #10809	; 0x2a39
 8006452:	2013      	movs	r0, #19
 8006454:	f7fb fb3c 	bl	8001ad0 <LCD_WriteReg>
 8006458:	200a      	movs	r0, #10
 800645a:	f7fa fb35 	bl	8000ac8 <HAL_Delay>
 800645e:	f44f 7180 	mov.w	r1, #256	; 0x100
 8006462:	2001      	movs	r0, #1
 8006464:	f7fb fb34 	bl	8001ad0 <LCD_WriteReg>
 8006468:	f44f 7140 	mov.w	r1, #768	; 0x300
 800646c:	2002      	movs	r0, #2
 800646e:	f7fb fb2f 	bl	8001ad0 <LCD_WriteReg>
 8006472:	f241 0138 	movw	r1, #4152	; 0x1038
 8006476:	2003      	movs	r0, #3
 8006478:	f7fb fb2a 	bl	8001ad0 <LCD_WriteReg>
 800647c:	f240 2102 	movw	r1, #514	; 0x202
 8006480:	2008      	movs	r0, #8
 8006482:	f7fb fb25 	bl	8001ad0 <LCD_WriteReg>
 8006486:	2108      	movs	r1, #8
 8006488:	200a      	movs	r0, #10
 800648a:	f7fb fb21 	bl	8001ad0 <LCD_WriteReg>
 800648e:	2100      	movs	r1, #0
 8006490:	2030      	movs	r0, #48	; 0x30
 8006492:	f7fb fb1d 	bl	8001ad0 <LCD_WriteReg>
 8006496:	f240 4102 	movw	r1, #1026	; 0x402
 800649a:	2031      	movs	r0, #49	; 0x31
 800649c:	f7fb fb18 	bl	8001ad0 <LCD_WriteReg>
 80064a0:	f44f 7183 	mov.w	r1, #262	; 0x106
 80064a4:	2032      	movs	r0, #50	; 0x32
 80064a6:	f7fb fb13 	bl	8001ad0 <LCD_WriteReg>
 80064aa:	f240 5103 	movw	r1, #1283	; 0x503
 80064ae:	2033      	movs	r0, #51	; 0x33
 80064b0:	f7fb fb0e 	bl	8001ad0 <LCD_WriteReg>
 80064b4:	f44f 7182 	mov.w	r1, #260	; 0x104
 80064b8:	2034      	movs	r0, #52	; 0x34
 80064ba:	f7fb fb09 	bl	8001ad0 <LCD_WriteReg>
 80064be:	f240 3101 	movw	r1, #769	; 0x301
 80064c2:	2035      	movs	r0, #53	; 0x35
 80064c4:	f7fb fb04 	bl	8001ad0 <LCD_WriteReg>
 80064c8:	f240 7107 	movw	r1, #1799	; 0x707
 80064cc:	2036      	movs	r0, #54	; 0x36
 80064ce:	f7fb faff 	bl	8001ad0 <LCD_WriteReg>
 80064d2:	f240 3105 	movw	r1, #773	; 0x305
 80064d6:	2037      	movs	r0, #55	; 0x37
 80064d8:	f7fb fafa 	bl	8001ad0 <LCD_WriteReg>
 80064dc:	f44f 7102 	mov.w	r1, #520	; 0x208
 80064e0:	2038      	movs	r0, #56	; 0x38
 80064e2:	f7fb faf5 	bl	8001ad0 <LCD_WriteReg>
 80064e6:	f640 710b 	movw	r1, #3851	; 0xf0b
 80064ea:	2039      	movs	r0, #57	; 0x39
 80064ec:	f7fb faf0 	bl	8001ad0 <LCD_WriteReg>
 80064f0:	2102      	movs	r1, #2
 80064f2:	2041      	movs	r0, #65	; 0x41
 80064f4:	f7fb faec 	bl	8001ad0 <LCD_WriteReg>
 80064f8:	f44f 511c 	mov.w	r1, #9984	; 0x2700
 80064fc:	2060      	movs	r0, #96	; 0x60
 80064fe:	f7fb fae7 	bl	8001ad0 <LCD_WriteReg>
 8006502:	2101      	movs	r1, #1
 8006504:	2061      	movs	r0, #97	; 0x61
 8006506:	f7fb fae3 	bl	8001ad0 <LCD_WriteReg>
 800650a:	f44f 7104 	mov.w	r1, #528	; 0x210
 800650e:	2090      	movs	r0, #144	; 0x90
 8006510:	f7fb fade 	bl	8001ad0 <LCD_WriteReg>
 8006514:	f44f 7185 	mov.w	r1, #266	; 0x10a
 8006518:	2092      	movs	r0, #146	; 0x92
 800651a:	f7fb fad9 	bl	8001ad0 <LCD_WriteReg>
 800651e:	2104      	movs	r1, #4
 8006520:	2093      	movs	r0, #147	; 0x93
 8006522:	f7fb fad5 	bl	8001ad0 <LCD_WriteReg>
 8006526:	f44f 7180 	mov.w	r1, #256	; 0x100
 800652a:	20a0      	movs	r0, #160	; 0xa0
 800652c:	f7fb fad0 	bl	8001ad0 <LCD_WriteReg>
 8006530:	2101      	movs	r1, #1
 8006532:	2007      	movs	r0, #7
 8006534:	f7fb facc 	bl	8001ad0 <LCD_WriteReg>
 8006538:	2121      	movs	r1, #33	; 0x21
 800653a:	2007      	movs	r0, #7
 800653c:	f7fb fac8 	bl	8001ad0 <LCD_WriteReg>
 8006540:	2123      	movs	r1, #35	; 0x23
 8006542:	2007      	movs	r0, #7
 8006544:	f7fb fac4 	bl	8001ad0 <LCD_WriteReg>
 8006548:	2133      	movs	r1, #51	; 0x33
 800654a:	2007      	movs	r0, #7
 800654c:	f7fb fac0 	bl	8001ad0 <LCD_WriteReg>
 8006550:	f240 1133 	movw	r1, #307	; 0x133
 8006554:	2007      	movs	r0, #7
 8006556:	f7fb fabb 	bl	8001ad0 <LCD_WriteReg>
 800655a:	2100      	movs	r1, #0
 800655c:	20a0      	movs	r0, #160	; 0xa0
 800655e:	f7fb fab7 	bl	8001ad0 <LCD_WriteReg>
 8006562:	f000 bc6b 	b.w	8006e3c <LCD_Init+0x3e34>
 8006566:	bf00      	nop
 8006568:	20000030 	.word	0x20000030
 800656c:	4b5b      	ldr	r3, [pc, #364]	; (80066dc <LCD_Init+0x36d4>)
 800656e:	889b      	ldrh	r3, [r3, #4]
 8006570:	f244 5235 	movw	r2, #17717	; 0x4535
 8006574:	4293      	cmp	r3, r2
 8006576:	f040 80b3 	bne.w	80066e0 <LCD_Init+0x36d8>
 800657a:	2130      	movs	r1, #48	; 0x30
 800657c:	2015      	movs	r0, #21
 800657e:	f7fb faa7 	bl	8001ad0 <LCD_WriteReg>
 8006582:	2110      	movs	r1, #16
 8006584:	209a      	movs	r0, #154	; 0x9a
 8006586:	f7fb faa3 	bl	8001ad0 <LCD_WriteReg>
 800658a:	2120      	movs	r1, #32
 800658c:	2011      	movs	r0, #17
 800658e:	f7fb fa9f 	bl	8001ad0 <LCD_WriteReg>
 8006592:	f243 4128 	movw	r1, #13352	; 0x3428
 8006596:	2010      	movs	r0, #16
 8006598:	f7fb fa9a 	bl	8001ad0 <LCD_WriteReg>
 800659c:	2102      	movs	r1, #2
 800659e:	2012      	movs	r0, #18
 80065a0:	f7fb fa96 	bl	8001ad0 <LCD_WriteReg>
 80065a4:	f241 0138 	movw	r1, #4152	; 0x1038
 80065a8:	2013      	movs	r0, #19
 80065aa:	f7fb fa91 	bl	8001ad0 <LCD_WriteReg>
 80065ae:	2028      	movs	r0, #40	; 0x28
 80065b0:	f7fa fa8a 	bl	8000ac8 <HAL_Delay>
 80065b4:	2112      	movs	r1, #18
 80065b6:	2012      	movs	r0, #18
 80065b8:	f7fb fa8a 	bl	8001ad0 <LCD_WriteReg>
 80065bc:	2028      	movs	r0, #40	; 0x28
 80065be:	f7fa fa83 	bl	8000ac8 <HAL_Delay>
 80065c2:	f243 4120 	movw	r1, #13344	; 0x3420
 80065c6:	2010      	movs	r0, #16
 80065c8:	f7fb fa82 	bl	8001ad0 <LCD_WriteReg>
 80065cc:	f243 0138 	movw	r1, #12344	; 0x3038
 80065d0:	2013      	movs	r0, #19
 80065d2:	f7fb fa7d 	bl	8001ad0 <LCD_WriteReg>
 80065d6:	2046      	movs	r0, #70	; 0x46
 80065d8:	f7fa fa76 	bl	8000ac8 <HAL_Delay>
 80065dc:	2100      	movs	r1, #0
 80065de:	2030      	movs	r0, #48	; 0x30
 80065e0:	f7fb fa76 	bl	8001ad0 <LCD_WriteReg>
 80065e4:	f240 4102 	movw	r1, #1026	; 0x402
 80065e8:	2031      	movs	r0, #49	; 0x31
 80065ea:	f7fb fa71 	bl	8001ad0 <LCD_WriteReg>
 80065ee:	f240 3107 	movw	r1, #775	; 0x307
 80065f2:	2032      	movs	r0, #50	; 0x32
 80065f4:	f7fb fa6c 	bl	8001ad0 <LCD_WriteReg>
 80065f8:	f44f 7141 	mov.w	r1, #772	; 0x304
 80065fc:	2033      	movs	r0, #51	; 0x33
 80065fe:	f7fb fa67 	bl	8001ad0 <LCD_WriteReg>
 8006602:	2104      	movs	r1, #4
 8006604:	2034      	movs	r0, #52	; 0x34
 8006606:	f7fb fa63 	bl	8001ad0 <LCD_WriteReg>
 800660a:	f240 4101 	movw	r1, #1025	; 0x401
 800660e:	2035      	movs	r0, #53	; 0x35
 8006610:	f7fb fa5e 	bl	8001ad0 <LCD_WriteReg>
 8006614:	f240 7107 	movw	r1, #1799	; 0x707
 8006618:	2036      	movs	r0, #54	; 0x36
 800661a:	f7fb fa59 	bl	8001ad0 <LCD_WriteReg>
 800661e:	f240 3105 	movw	r1, #773	; 0x305
 8006622:	2037      	movs	r0, #55	; 0x37
 8006624:	f7fb fa54 	bl	8001ad0 <LCD_WriteReg>
 8006628:	f44f 61c2 	mov.w	r1, #1552	; 0x610
 800662c:	2038      	movs	r0, #56	; 0x38
 800662e:	f7fb fa4f 	bl	8001ad0 <LCD_WriteReg>
 8006632:	f44f 61c2 	mov.w	r1, #1552	; 0x610
 8006636:	2039      	movs	r0, #57	; 0x39
 8006638:	f7fb fa4a 	bl	8001ad0 <LCD_WriteReg>
 800663c:	f44f 7180 	mov.w	r1, #256	; 0x100
 8006640:	2001      	movs	r0, #1
 8006642:	f7fb fa45 	bl	8001ad0 <LCD_WriteReg>
 8006646:	f44f 7140 	mov.w	r1, #768	; 0x300
 800664a:	2002      	movs	r0, #2
 800664c:	f7fb fa40 	bl	8001ad0 <LCD_WriteReg>
 8006650:	f241 0130 	movw	r1, #4144	; 0x1030
 8006654:	2003      	movs	r0, #3
 8006656:	f7fb fa3b 	bl	8001ad0 <LCD_WriteReg>
 800665a:	f640 0108 	movw	r1, #2056	; 0x808
 800665e:	2008      	movs	r0, #8
 8006660:	f7fb fa36 	bl	8001ad0 <LCD_WriteReg>
 8006664:	2108      	movs	r1, #8
 8006666:	200a      	movs	r0, #10
 8006668:	f7fb fa32 	bl	8001ad0 <LCD_WriteReg>
 800666c:	f44f 511c 	mov.w	r1, #9984	; 0x2700
 8006670:	2060      	movs	r0, #96	; 0x60
 8006672:	f7fb fa2d 	bl	8001ad0 <LCD_WriteReg>
 8006676:	2101      	movs	r1, #1
 8006678:	2061      	movs	r0, #97	; 0x61
 800667a:	f7fb fa29 	bl	8001ad0 <LCD_WriteReg>
 800667e:	f44f 719f 	mov.w	r1, #318	; 0x13e
 8006682:	2090      	movs	r0, #144	; 0x90
 8006684:	f7fb fa24 	bl	8001ad0 <LCD_WriteReg>
 8006688:	f44f 7180 	mov.w	r1, #256	; 0x100
 800668c:	2092      	movs	r0, #146	; 0x92
 800668e:	f7fb fa1f 	bl	8001ad0 <LCD_WriteReg>
 8006692:	f44f 7180 	mov.w	r1, #256	; 0x100
 8006696:	2093      	movs	r0, #147	; 0x93
 8006698:	f7fb fa1a 	bl	8001ad0 <LCD_WriteReg>
 800669c:	f44f 5140 	mov.w	r1, #12288	; 0x3000
 80066a0:	20a0      	movs	r0, #160	; 0xa0
 80066a2:	f7fb fa15 	bl	8001ad0 <LCD_WriteReg>
 80066a6:	2110      	movs	r1, #16
 80066a8:	20a3      	movs	r0, #163	; 0xa3
 80066aa:	f7fb fa11 	bl	8001ad0 <LCD_WriteReg>
 80066ae:	2101      	movs	r1, #1
 80066b0:	2007      	movs	r0, #7
 80066b2:	f7fb fa0d 	bl	8001ad0 <LCD_WriteReg>
 80066b6:	2121      	movs	r1, #33	; 0x21
 80066b8:	2007      	movs	r0, #7
 80066ba:	f7fb fa09 	bl	8001ad0 <LCD_WriteReg>
 80066be:	2123      	movs	r1, #35	; 0x23
 80066c0:	2007      	movs	r0, #7
 80066c2:	f7fb fa05 	bl	8001ad0 <LCD_WriteReg>
 80066c6:	2133      	movs	r1, #51	; 0x33
 80066c8:	2007      	movs	r0, #7
 80066ca:	f7fb fa01 	bl	8001ad0 <LCD_WriteReg>
 80066ce:	f240 1133 	movw	r1, #307	; 0x133
 80066d2:	2007      	movs	r0, #7
 80066d4:	f7fb f9fc 	bl	8001ad0 <LCD_WriteReg>
 80066d8:	e3b0      	b.n	8006e3c <LCD_Init+0x3e34>
 80066da:	bf00      	nop
 80066dc:	20000030 	.word	0x20000030
 80066e0:	4ba8      	ldr	r3, [pc, #672]	; (8006984 <LCD_Init+0x397c>)
 80066e2:	889b      	ldrh	r3, [r3, #4]
 80066e4:	f641 1263 	movw	r2, #6499	; 0x1963
 80066e8:	4293      	cmp	r3, r2
 80066ea:	f040 83a7 	bne.w	8006e3c <LCD_Init+0x3e34>
 80066ee:	20e2      	movs	r0, #226	; 0xe2
 80066f0:	f7fb f962 	bl	80019b8 <LCD_WR_REG>
 80066f4:	4ba4      	ldr	r3, [pc, #656]	; (8006988 <LCD_Init+0x3980>)
 80066f6:	f44f 7280 	mov.w	r2, #256	; 0x100
 80066fa:	611a      	str	r2, [r3, #16]
 80066fc:	4ba2      	ldr	r3, [pc, #648]	; (8006988 <LCD_Init+0x3980>)
 80066fe:	f44f 7200 	mov.w	r2, #512	; 0x200
 8006702:	615a      	str	r2, [r3, #20]
 8006704:	4ba1      	ldr	r3, [pc, #644]	; (800698c <LCD_Init+0x3984>)
 8006706:	221d      	movs	r2, #29
 8006708:	60da      	str	r2, [r3, #12]
 800670a:	4b9f      	ldr	r3, [pc, #636]	; (8006988 <LCD_Init+0x3980>)
 800670c:	2280      	movs	r2, #128	; 0x80
 800670e:	615a      	str	r2, [r3, #20]
 8006710:	4b9d      	ldr	r3, [pc, #628]	; (8006988 <LCD_Init+0x3980>)
 8006712:	2280      	movs	r2, #128	; 0x80
 8006714:	611a      	str	r2, [r3, #16]
 8006716:	4b9c      	ldr	r3, [pc, #624]	; (8006988 <LCD_Init+0x3980>)
 8006718:	f44f 7200 	mov.w	r2, #512	; 0x200
 800671c:	611a      	str	r2, [r3, #16]
 800671e:	4b9a      	ldr	r3, [pc, #616]	; (8006988 <LCD_Init+0x3980>)
 8006720:	f44f 7280 	mov.w	r2, #256	; 0x100
 8006724:	611a      	str	r2, [r3, #16]
 8006726:	4b98      	ldr	r3, [pc, #608]	; (8006988 <LCD_Init+0x3980>)
 8006728:	f44f 7200 	mov.w	r2, #512	; 0x200
 800672c:	615a      	str	r2, [r3, #20]
 800672e:	4b97      	ldr	r3, [pc, #604]	; (800698c <LCD_Init+0x3984>)
 8006730:	2202      	movs	r2, #2
 8006732:	60da      	str	r2, [r3, #12]
 8006734:	4b94      	ldr	r3, [pc, #592]	; (8006988 <LCD_Init+0x3980>)
 8006736:	2280      	movs	r2, #128	; 0x80
 8006738:	615a      	str	r2, [r3, #20]
 800673a:	4b93      	ldr	r3, [pc, #588]	; (8006988 <LCD_Init+0x3980>)
 800673c:	2280      	movs	r2, #128	; 0x80
 800673e:	611a      	str	r2, [r3, #16]
 8006740:	4b91      	ldr	r3, [pc, #580]	; (8006988 <LCD_Init+0x3980>)
 8006742:	f44f 7200 	mov.w	r2, #512	; 0x200
 8006746:	611a      	str	r2, [r3, #16]
 8006748:	4b8f      	ldr	r3, [pc, #572]	; (8006988 <LCD_Init+0x3980>)
 800674a:	f44f 7280 	mov.w	r2, #256	; 0x100
 800674e:	611a      	str	r2, [r3, #16]
 8006750:	4b8d      	ldr	r3, [pc, #564]	; (8006988 <LCD_Init+0x3980>)
 8006752:	f44f 7200 	mov.w	r2, #512	; 0x200
 8006756:	615a      	str	r2, [r3, #20]
 8006758:	4b8c      	ldr	r3, [pc, #560]	; (800698c <LCD_Init+0x3984>)
 800675a:	2204      	movs	r2, #4
 800675c:	60da      	str	r2, [r3, #12]
 800675e:	4b8a      	ldr	r3, [pc, #552]	; (8006988 <LCD_Init+0x3980>)
 8006760:	2280      	movs	r2, #128	; 0x80
 8006762:	615a      	str	r2, [r3, #20]
 8006764:	4b88      	ldr	r3, [pc, #544]	; (8006988 <LCD_Init+0x3980>)
 8006766:	2280      	movs	r2, #128	; 0x80
 8006768:	611a      	str	r2, [r3, #16]
 800676a:	4b87      	ldr	r3, [pc, #540]	; (8006988 <LCD_Init+0x3980>)
 800676c:	f44f 7200 	mov.w	r2, #512	; 0x200
 8006770:	611a      	str	r2, [r3, #16]
 8006772:	2001      	movs	r0, #1
 8006774:	f7fa f9a8 	bl	8000ac8 <HAL_Delay>
 8006778:	20e0      	movs	r0, #224	; 0xe0
 800677a:	f7fb f91d 	bl	80019b8 <LCD_WR_REG>
 800677e:	4b82      	ldr	r3, [pc, #520]	; (8006988 <LCD_Init+0x3980>)
 8006780:	f44f 7280 	mov.w	r2, #256	; 0x100
 8006784:	611a      	str	r2, [r3, #16]
 8006786:	4b80      	ldr	r3, [pc, #512]	; (8006988 <LCD_Init+0x3980>)
 8006788:	f44f 7200 	mov.w	r2, #512	; 0x200
 800678c:	615a      	str	r2, [r3, #20]
 800678e:	4b7f      	ldr	r3, [pc, #508]	; (800698c <LCD_Init+0x3984>)
 8006790:	2201      	movs	r2, #1
 8006792:	60da      	str	r2, [r3, #12]
 8006794:	4b7c      	ldr	r3, [pc, #496]	; (8006988 <LCD_Init+0x3980>)
 8006796:	2280      	movs	r2, #128	; 0x80
 8006798:	615a      	str	r2, [r3, #20]
 800679a:	4b7b      	ldr	r3, [pc, #492]	; (8006988 <LCD_Init+0x3980>)
 800679c:	2280      	movs	r2, #128	; 0x80
 800679e:	611a      	str	r2, [r3, #16]
 80067a0:	4b79      	ldr	r3, [pc, #484]	; (8006988 <LCD_Init+0x3980>)
 80067a2:	f44f 7200 	mov.w	r2, #512	; 0x200
 80067a6:	611a      	str	r2, [r3, #16]
 80067a8:	200a      	movs	r0, #10
 80067aa:	f7fa f98d 	bl	8000ac8 <HAL_Delay>
 80067ae:	20e0      	movs	r0, #224	; 0xe0
 80067b0:	f7fb f902 	bl	80019b8 <LCD_WR_REG>
 80067b4:	4b74      	ldr	r3, [pc, #464]	; (8006988 <LCD_Init+0x3980>)
 80067b6:	f44f 7280 	mov.w	r2, #256	; 0x100
 80067ba:	611a      	str	r2, [r3, #16]
 80067bc:	4b72      	ldr	r3, [pc, #456]	; (8006988 <LCD_Init+0x3980>)
 80067be:	f44f 7200 	mov.w	r2, #512	; 0x200
 80067c2:	615a      	str	r2, [r3, #20]
 80067c4:	4b71      	ldr	r3, [pc, #452]	; (800698c <LCD_Init+0x3984>)
 80067c6:	2203      	movs	r2, #3
 80067c8:	60da      	str	r2, [r3, #12]
 80067ca:	4b6f      	ldr	r3, [pc, #444]	; (8006988 <LCD_Init+0x3980>)
 80067cc:	2280      	movs	r2, #128	; 0x80
 80067ce:	615a      	str	r2, [r3, #20]
 80067d0:	4b6d      	ldr	r3, [pc, #436]	; (8006988 <LCD_Init+0x3980>)
 80067d2:	2280      	movs	r2, #128	; 0x80
 80067d4:	611a      	str	r2, [r3, #16]
 80067d6:	4b6c      	ldr	r3, [pc, #432]	; (8006988 <LCD_Init+0x3980>)
 80067d8:	f44f 7200 	mov.w	r2, #512	; 0x200
 80067dc:	611a      	str	r2, [r3, #16]
 80067de:	200c      	movs	r0, #12
 80067e0:	f7fa f972 	bl	8000ac8 <HAL_Delay>
 80067e4:	2001      	movs	r0, #1
 80067e6:	f7fb f8e7 	bl	80019b8 <LCD_WR_REG>
 80067ea:	200a      	movs	r0, #10
 80067ec:	f7fa f96c 	bl	8000ac8 <HAL_Delay>
 80067f0:	20e6      	movs	r0, #230	; 0xe6
 80067f2:	f7fb f8e1 	bl	80019b8 <LCD_WR_REG>
 80067f6:	4b64      	ldr	r3, [pc, #400]	; (8006988 <LCD_Init+0x3980>)
 80067f8:	f44f 7280 	mov.w	r2, #256	; 0x100
 80067fc:	611a      	str	r2, [r3, #16]
 80067fe:	4b62      	ldr	r3, [pc, #392]	; (8006988 <LCD_Init+0x3980>)
 8006800:	f44f 7200 	mov.w	r2, #512	; 0x200
 8006804:	615a      	str	r2, [r3, #20]
 8006806:	4b61      	ldr	r3, [pc, #388]	; (800698c <LCD_Init+0x3984>)
 8006808:	222f      	movs	r2, #47	; 0x2f
 800680a:	60da      	str	r2, [r3, #12]
 800680c:	4b5e      	ldr	r3, [pc, #376]	; (8006988 <LCD_Init+0x3980>)
 800680e:	2280      	movs	r2, #128	; 0x80
 8006810:	615a      	str	r2, [r3, #20]
 8006812:	4b5d      	ldr	r3, [pc, #372]	; (8006988 <LCD_Init+0x3980>)
 8006814:	2280      	movs	r2, #128	; 0x80
 8006816:	611a      	str	r2, [r3, #16]
 8006818:	4b5b      	ldr	r3, [pc, #364]	; (8006988 <LCD_Init+0x3980>)
 800681a:	f44f 7200 	mov.w	r2, #512	; 0x200
 800681e:	611a      	str	r2, [r3, #16]
 8006820:	4b59      	ldr	r3, [pc, #356]	; (8006988 <LCD_Init+0x3980>)
 8006822:	f44f 7280 	mov.w	r2, #256	; 0x100
 8006826:	611a      	str	r2, [r3, #16]
 8006828:	4b57      	ldr	r3, [pc, #348]	; (8006988 <LCD_Init+0x3980>)
 800682a:	f44f 7200 	mov.w	r2, #512	; 0x200
 800682e:	615a      	str	r2, [r3, #20]
 8006830:	4b56      	ldr	r3, [pc, #344]	; (800698c <LCD_Init+0x3984>)
 8006832:	22ff      	movs	r2, #255	; 0xff
 8006834:	60da      	str	r2, [r3, #12]
 8006836:	4b54      	ldr	r3, [pc, #336]	; (8006988 <LCD_Init+0x3980>)
 8006838:	2280      	movs	r2, #128	; 0x80
 800683a:	615a      	str	r2, [r3, #20]
 800683c:	4b52      	ldr	r3, [pc, #328]	; (8006988 <LCD_Init+0x3980>)
 800683e:	2280      	movs	r2, #128	; 0x80
 8006840:	611a      	str	r2, [r3, #16]
 8006842:	4b51      	ldr	r3, [pc, #324]	; (8006988 <LCD_Init+0x3980>)
 8006844:	f44f 7200 	mov.w	r2, #512	; 0x200
 8006848:	611a      	str	r2, [r3, #16]
 800684a:	4b4f      	ldr	r3, [pc, #316]	; (8006988 <LCD_Init+0x3980>)
 800684c:	f44f 7280 	mov.w	r2, #256	; 0x100
 8006850:	611a      	str	r2, [r3, #16]
 8006852:	4b4d      	ldr	r3, [pc, #308]	; (8006988 <LCD_Init+0x3980>)
 8006854:	f44f 7200 	mov.w	r2, #512	; 0x200
 8006858:	615a      	str	r2, [r3, #20]
 800685a:	4b4c      	ldr	r3, [pc, #304]	; (800698c <LCD_Init+0x3984>)
 800685c:	22ff      	movs	r2, #255	; 0xff
 800685e:	60da      	str	r2, [r3, #12]
 8006860:	4b49      	ldr	r3, [pc, #292]	; (8006988 <LCD_Init+0x3980>)
 8006862:	2280      	movs	r2, #128	; 0x80
 8006864:	615a      	str	r2, [r3, #20]
 8006866:	4b48      	ldr	r3, [pc, #288]	; (8006988 <LCD_Init+0x3980>)
 8006868:	2280      	movs	r2, #128	; 0x80
 800686a:	611a      	str	r2, [r3, #16]
 800686c:	4b46      	ldr	r3, [pc, #280]	; (8006988 <LCD_Init+0x3980>)
 800686e:	f44f 7200 	mov.w	r2, #512	; 0x200
 8006872:	611a      	str	r2, [r3, #16]
 8006874:	20b0      	movs	r0, #176	; 0xb0
 8006876:	f7fb f89f 	bl	80019b8 <LCD_WR_REG>
 800687a:	4b43      	ldr	r3, [pc, #268]	; (8006988 <LCD_Init+0x3980>)
 800687c:	f44f 7280 	mov.w	r2, #256	; 0x100
 8006880:	611a      	str	r2, [r3, #16]
 8006882:	4b41      	ldr	r3, [pc, #260]	; (8006988 <LCD_Init+0x3980>)
 8006884:	f44f 7200 	mov.w	r2, #512	; 0x200
 8006888:	615a      	str	r2, [r3, #20]
 800688a:	4b40      	ldr	r3, [pc, #256]	; (800698c <LCD_Init+0x3984>)
 800688c:	2220      	movs	r2, #32
 800688e:	60da      	str	r2, [r3, #12]
 8006890:	4b3d      	ldr	r3, [pc, #244]	; (8006988 <LCD_Init+0x3980>)
 8006892:	2280      	movs	r2, #128	; 0x80
 8006894:	615a      	str	r2, [r3, #20]
 8006896:	4b3c      	ldr	r3, [pc, #240]	; (8006988 <LCD_Init+0x3980>)
 8006898:	2280      	movs	r2, #128	; 0x80
 800689a:	611a      	str	r2, [r3, #16]
 800689c:	4b3a      	ldr	r3, [pc, #232]	; (8006988 <LCD_Init+0x3980>)
 800689e:	f44f 7200 	mov.w	r2, #512	; 0x200
 80068a2:	611a      	str	r2, [r3, #16]
 80068a4:	4b38      	ldr	r3, [pc, #224]	; (8006988 <LCD_Init+0x3980>)
 80068a6:	f44f 7280 	mov.w	r2, #256	; 0x100
 80068aa:	611a      	str	r2, [r3, #16]
 80068ac:	4b36      	ldr	r3, [pc, #216]	; (8006988 <LCD_Init+0x3980>)
 80068ae:	f44f 7200 	mov.w	r2, #512	; 0x200
 80068b2:	615a      	str	r2, [r3, #20]
 80068b4:	4b35      	ldr	r3, [pc, #212]	; (800698c <LCD_Init+0x3984>)
 80068b6:	2200      	movs	r2, #0
 80068b8:	60da      	str	r2, [r3, #12]
 80068ba:	4b33      	ldr	r3, [pc, #204]	; (8006988 <LCD_Init+0x3980>)
 80068bc:	2280      	movs	r2, #128	; 0x80
 80068be:	615a      	str	r2, [r3, #20]
 80068c0:	4b31      	ldr	r3, [pc, #196]	; (8006988 <LCD_Init+0x3980>)
 80068c2:	2280      	movs	r2, #128	; 0x80
 80068c4:	611a      	str	r2, [r3, #16]
 80068c6:	4b30      	ldr	r3, [pc, #192]	; (8006988 <LCD_Init+0x3980>)
 80068c8:	f44f 7200 	mov.w	r2, #512	; 0x200
 80068cc:	611a      	str	r2, [r3, #16]
 80068ce:	4b2e      	ldr	r3, [pc, #184]	; (8006988 <LCD_Init+0x3980>)
 80068d0:	f44f 7280 	mov.w	r2, #256	; 0x100
 80068d4:	611a      	str	r2, [r3, #16]
 80068d6:	4b2c      	ldr	r3, [pc, #176]	; (8006988 <LCD_Init+0x3980>)
 80068d8:	f44f 7200 	mov.w	r2, #512	; 0x200
 80068dc:	615a      	str	r2, [r3, #20]
 80068de:	4b2b      	ldr	r3, [pc, #172]	; (800698c <LCD_Init+0x3984>)
 80068e0:	2203      	movs	r2, #3
 80068e2:	60da      	str	r2, [r3, #12]
 80068e4:	4b28      	ldr	r3, [pc, #160]	; (8006988 <LCD_Init+0x3980>)
 80068e6:	2280      	movs	r2, #128	; 0x80
 80068e8:	615a      	str	r2, [r3, #20]
 80068ea:	4b27      	ldr	r3, [pc, #156]	; (8006988 <LCD_Init+0x3980>)
 80068ec:	2280      	movs	r2, #128	; 0x80
 80068ee:	611a      	str	r2, [r3, #16]
 80068f0:	4b25      	ldr	r3, [pc, #148]	; (8006988 <LCD_Init+0x3980>)
 80068f2:	f44f 7200 	mov.w	r2, #512	; 0x200
 80068f6:	611a      	str	r2, [r3, #16]
 80068f8:	4b23      	ldr	r3, [pc, #140]	; (8006988 <LCD_Init+0x3980>)
 80068fa:	f44f 7280 	mov.w	r2, #256	; 0x100
 80068fe:	611a      	str	r2, [r3, #16]
 8006900:	4b21      	ldr	r3, [pc, #132]	; (8006988 <LCD_Init+0x3980>)
 8006902:	f44f 7200 	mov.w	r2, #512	; 0x200
 8006906:	615a      	str	r2, [r3, #20]
 8006908:	4b20      	ldr	r3, [pc, #128]	; (800698c <LCD_Init+0x3984>)
 800690a:	f240 321f 	movw	r2, #799	; 0x31f
 800690e:	60da      	str	r2, [r3, #12]
 8006910:	4b1d      	ldr	r3, [pc, #116]	; (8006988 <LCD_Init+0x3980>)
 8006912:	2280      	movs	r2, #128	; 0x80
 8006914:	615a      	str	r2, [r3, #20]
 8006916:	4b1c      	ldr	r3, [pc, #112]	; (8006988 <LCD_Init+0x3980>)
 8006918:	2280      	movs	r2, #128	; 0x80
 800691a:	611a      	str	r2, [r3, #16]
 800691c:	4b1a      	ldr	r3, [pc, #104]	; (8006988 <LCD_Init+0x3980>)
 800691e:	f44f 7200 	mov.w	r2, #512	; 0x200
 8006922:	611a      	str	r2, [r3, #16]
 8006924:	4b18      	ldr	r3, [pc, #96]	; (8006988 <LCD_Init+0x3980>)
 8006926:	f44f 7280 	mov.w	r2, #256	; 0x100
 800692a:	611a      	str	r2, [r3, #16]
 800692c:	4b16      	ldr	r3, [pc, #88]	; (8006988 <LCD_Init+0x3980>)
 800692e:	f44f 7200 	mov.w	r2, #512	; 0x200
 8006932:	615a      	str	r2, [r3, #20]
 8006934:	4b15      	ldr	r3, [pc, #84]	; (800698c <LCD_Init+0x3984>)
 8006936:	2201      	movs	r2, #1
 8006938:	60da      	str	r2, [r3, #12]
 800693a:	4b13      	ldr	r3, [pc, #76]	; (8006988 <LCD_Init+0x3980>)
 800693c:	2280      	movs	r2, #128	; 0x80
 800693e:	615a      	str	r2, [r3, #20]
 8006940:	4b11      	ldr	r3, [pc, #68]	; (8006988 <LCD_Init+0x3980>)
 8006942:	2280      	movs	r2, #128	; 0x80
 8006944:	611a      	str	r2, [r3, #16]
 8006946:	4b10      	ldr	r3, [pc, #64]	; (8006988 <LCD_Init+0x3980>)
 8006948:	f44f 7200 	mov.w	r2, #512	; 0x200
 800694c:	611a      	str	r2, [r3, #16]
 800694e:	4b0e      	ldr	r3, [pc, #56]	; (8006988 <LCD_Init+0x3980>)
 8006950:	f44f 7280 	mov.w	r2, #256	; 0x100
 8006954:	611a      	str	r2, [r3, #16]
 8006956:	4b0c      	ldr	r3, [pc, #48]	; (8006988 <LCD_Init+0x3980>)
 8006958:	f44f 7200 	mov.w	r2, #512	; 0x200
 800695c:	615a      	str	r2, [r3, #20]
 800695e:	4b0b      	ldr	r3, [pc, #44]	; (800698c <LCD_Init+0x3984>)
 8006960:	f240 12df 	movw	r2, #479	; 0x1df
 8006964:	60da      	str	r2, [r3, #12]
 8006966:	4b08      	ldr	r3, [pc, #32]	; (8006988 <LCD_Init+0x3980>)
 8006968:	2280      	movs	r2, #128	; 0x80
 800696a:	615a      	str	r2, [r3, #20]
 800696c:	4b06      	ldr	r3, [pc, #24]	; (8006988 <LCD_Init+0x3980>)
 800696e:	2280      	movs	r2, #128	; 0x80
 8006970:	611a      	str	r2, [r3, #16]
 8006972:	4b05      	ldr	r3, [pc, #20]	; (8006988 <LCD_Init+0x3980>)
 8006974:	f44f 7200 	mov.w	r2, #512	; 0x200
 8006978:	611a      	str	r2, [r3, #16]
 800697a:	4b03      	ldr	r3, [pc, #12]	; (8006988 <LCD_Init+0x3980>)
 800697c:	f44f 7280 	mov.w	r2, #256	; 0x100
 8006980:	e006      	b.n	8006990 <LCD_Init+0x3988>
 8006982:	bf00      	nop
 8006984:	20000030 	.word	0x20000030
 8006988:	40011000 	.word	0x40011000
 800698c:	40010c00 	.word	0x40010c00
 8006990:	611a      	str	r2, [r3, #16]
 8006992:	4ba3      	ldr	r3, [pc, #652]	; (8006c20 <LCD_Init+0x3c18>)
 8006994:	f44f 7200 	mov.w	r2, #512	; 0x200
 8006998:	615a      	str	r2, [r3, #20]
 800699a:	4ba2      	ldr	r3, [pc, #648]	; (8006c24 <LCD_Init+0x3c1c>)
 800699c:	2200      	movs	r2, #0
 800699e:	60da      	str	r2, [r3, #12]
 80069a0:	4b9f      	ldr	r3, [pc, #636]	; (8006c20 <LCD_Init+0x3c18>)
 80069a2:	2280      	movs	r2, #128	; 0x80
 80069a4:	615a      	str	r2, [r3, #20]
 80069a6:	4b9e      	ldr	r3, [pc, #632]	; (8006c20 <LCD_Init+0x3c18>)
 80069a8:	2280      	movs	r2, #128	; 0x80
 80069aa:	611a      	str	r2, [r3, #16]
 80069ac:	4b9c      	ldr	r3, [pc, #624]	; (8006c20 <LCD_Init+0x3c18>)
 80069ae:	f44f 7200 	mov.w	r2, #512	; 0x200
 80069b2:	611a      	str	r2, [r3, #16]
 80069b4:	20b4      	movs	r0, #180	; 0xb4
 80069b6:	f7fa ffff 	bl	80019b8 <LCD_WR_REG>
 80069ba:	4b99      	ldr	r3, [pc, #612]	; (8006c20 <LCD_Init+0x3c18>)
 80069bc:	f44f 7280 	mov.w	r2, #256	; 0x100
 80069c0:	611a      	str	r2, [r3, #16]
 80069c2:	4b97      	ldr	r3, [pc, #604]	; (8006c20 <LCD_Init+0x3c18>)
 80069c4:	f44f 7200 	mov.w	r2, #512	; 0x200
 80069c8:	615a      	str	r2, [r3, #20]
 80069ca:	4b96      	ldr	r3, [pc, #600]	; (8006c24 <LCD_Init+0x3c1c>)
 80069cc:	2204      	movs	r2, #4
 80069ce:	60da      	str	r2, [r3, #12]
 80069d0:	4b93      	ldr	r3, [pc, #588]	; (8006c20 <LCD_Init+0x3c18>)
 80069d2:	2280      	movs	r2, #128	; 0x80
 80069d4:	615a      	str	r2, [r3, #20]
 80069d6:	4b92      	ldr	r3, [pc, #584]	; (8006c20 <LCD_Init+0x3c18>)
 80069d8:	2280      	movs	r2, #128	; 0x80
 80069da:	611a      	str	r2, [r3, #16]
 80069dc:	4b90      	ldr	r3, [pc, #576]	; (8006c20 <LCD_Init+0x3c18>)
 80069de:	f44f 7200 	mov.w	r2, #512	; 0x200
 80069e2:	611a      	str	r2, [r3, #16]
 80069e4:	4b8e      	ldr	r3, [pc, #568]	; (8006c20 <LCD_Init+0x3c18>)
 80069e6:	f44f 7280 	mov.w	r2, #256	; 0x100
 80069ea:	611a      	str	r2, [r3, #16]
 80069ec:	4b8c      	ldr	r3, [pc, #560]	; (8006c20 <LCD_Init+0x3c18>)
 80069ee:	f44f 7200 	mov.w	r2, #512	; 0x200
 80069f2:	615a      	str	r2, [r3, #20]
 80069f4:	4b8b      	ldr	r3, [pc, #556]	; (8006c24 <LCD_Init+0x3c1c>)
 80069f6:	f240 421f 	movw	r2, #1055	; 0x41f
 80069fa:	60da      	str	r2, [r3, #12]
 80069fc:	4b88      	ldr	r3, [pc, #544]	; (8006c20 <LCD_Init+0x3c18>)
 80069fe:	2280      	movs	r2, #128	; 0x80
 8006a00:	615a      	str	r2, [r3, #20]
 8006a02:	4b87      	ldr	r3, [pc, #540]	; (8006c20 <LCD_Init+0x3c18>)
 8006a04:	2280      	movs	r2, #128	; 0x80
 8006a06:	611a      	str	r2, [r3, #16]
 8006a08:	4b85      	ldr	r3, [pc, #532]	; (8006c20 <LCD_Init+0x3c18>)
 8006a0a:	f44f 7200 	mov.w	r2, #512	; 0x200
 8006a0e:	611a      	str	r2, [r3, #16]
 8006a10:	4b83      	ldr	r3, [pc, #524]	; (8006c20 <LCD_Init+0x3c18>)
 8006a12:	f44f 7280 	mov.w	r2, #256	; 0x100
 8006a16:	611a      	str	r2, [r3, #16]
 8006a18:	4b81      	ldr	r3, [pc, #516]	; (8006c20 <LCD_Init+0x3c18>)
 8006a1a:	f44f 7200 	mov.w	r2, #512	; 0x200
 8006a1e:	615a      	str	r2, [r3, #20]
 8006a20:	4b80      	ldr	r3, [pc, #512]	; (8006c24 <LCD_Init+0x3c1c>)
 8006a22:	2200      	movs	r2, #0
 8006a24:	60da      	str	r2, [r3, #12]
 8006a26:	4b7e      	ldr	r3, [pc, #504]	; (8006c20 <LCD_Init+0x3c18>)
 8006a28:	2280      	movs	r2, #128	; 0x80
 8006a2a:	615a      	str	r2, [r3, #20]
 8006a2c:	4b7c      	ldr	r3, [pc, #496]	; (8006c20 <LCD_Init+0x3c18>)
 8006a2e:	2280      	movs	r2, #128	; 0x80
 8006a30:	611a      	str	r2, [r3, #16]
 8006a32:	4b7b      	ldr	r3, [pc, #492]	; (8006c20 <LCD_Init+0x3c18>)
 8006a34:	f44f 7200 	mov.w	r2, #512	; 0x200
 8006a38:	611a      	str	r2, [r3, #16]
 8006a3a:	4b79      	ldr	r3, [pc, #484]	; (8006c20 <LCD_Init+0x3c18>)
 8006a3c:	f44f 7280 	mov.w	r2, #256	; 0x100
 8006a40:	611a      	str	r2, [r3, #16]
 8006a42:	4b77      	ldr	r3, [pc, #476]	; (8006c20 <LCD_Init+0x3c18>)
 8006a44:	f44f 7200 	mov.w	r2, #512	; 0x200
 8006a48:	615a      	str	r2, [r3, #20]
 8006a4a:	4b76      	ldr	r3, [pc, #472]	; (8006c24 <LCD_Init+0x3c1c>)
 8006a4c:	222e      	movs	r2, #46	; 0x2e
 8006a4e:	60da      	str	r2, [r3, #12]
 8006a50:	4b73      	ldr	r3, [pc, #460]	; (8006c20 <LCD_Init+0x3c18>)
 8006a52:	2280      	movs	r2, #128	; 0x80
 8006a54:	615a      	str	r2, [r3, #20]
 8006a56:	4b72      	ldr	r3, [pc, #456]	; (8006c20 <LCD_Init+0x3c18>)
 8006a58:	2280      	movs	r2, #128	; 0x80
 8006a5a:	611a      	str	r2, [r3, #16]
 8006a5c:	4b70      	ldr	r3, [pc, #448]	; (8006c20 <LCD_Init+0x3c18>)
 8006a5e:	f44f 7200 	mov.w	r2, #512	; 0x200
 8006a62:	611a      	str	r2, [r3, #16]
 8006a64:	4b6e      	ldr	r3, [pc, #440]	; (8006c20 <LCD_Init+0x3c18>)
 8006a66:	f44f 7280 	mov.w	r2, #256	; 0x100
 8006a6a:	611a      	str	r2, [r3, #16]
 8006a6c:	4b6c      	ldr	r3, [pc, #432]	; (8006c20 <LCD_Init+0x3c18>)
 8006a6e:	f44f 7200 	mov.w	r2, #512	; 0x200
 8006a72:	615a      	str	r2, [r3, #20]
 8006a74:	4b6b      	ldr	r3, [pc, #428]	; (8006c24 <LCD_Init+0x3c1c>)
 8006a76:	2200      	movs	r2, #0
 8006a78:	60da      	str	r2, [r3, #12]
 8006a7a:	4b69      	ldr	r3, [pc, #420]	; (8006c20 <LCD_Init+0x3c18>)
 8006a7c:	2280      	movs	r2, #128	; 0x80
 8006a7e:	615a      	str	r2, [r3, #20]
 8006a80:	4b67      	ldr	r3, [pc, #412]	; (8006c20 <LCD_Init+0x3c18>)
 8006a82:	2280      	movs	r2, #128	; 0x80
 8006a84:	611a      	str	r2, [r3, #16]
 8006a86:	4b66      	ldr	r3, [pc, #408]	; (8006c20 <LCD_Init+0x3c18>)
 8006a88:	f44f 7200 	mov.w	r2, #512	; 0x200
 8006a8c:	611a      	str	r2, [r3, #16]
 8006a8e:	4b64      	ldr	r3, [pc, #400]	; (8006c20 <LCD_Init+0x3c18>)
 8006a90:	f44f 7280 	mov.w	r2, #256	; 0x100
 8006a94:	611a      	str	r2, [r3, #16]
 8006a96:	4b62      	ldr	r3, [pc, #392]	; (8006c20 <LCD_Init+0x3c18>)
 8006a98:	f44f 7200 	mov.w	r2, #512	; 0x200
 8006a9c:	615a      	str	r2, [r3, #20]
 8006a9e:	4b61      	ldr	r3, [pc, #388]	; (8006c24 <LCD_Init+0x3c1c>)
 8006aa0:	2200      	movs	r2, #0
 8006aa2:	60da      	str	r2, [r3, #12]
 8006aa4:	4b5e      	ldr	r3, [pc, #376]	; (8006c20 <LCD_Init+0x3c18>)
 8006aa6:	2280      	movs	r2, #128	; 0x80
 8006aa8:	615a      	str	r2, [r3, #20]
 8006aaa:	4b5d      	ldr	r3, [pc, #372]	; (8006c20 <LCD_Init+0x3c18>)
 8006aac:	2280      	movs	r2, #128	; 0x80
 8006aae:	611a      	str	r2, [r3, #16]
 8006ab0:	4b5b      	ldr	r3, [pc, #364]	; (8006c20 <LCD_Init+0x3c18>)
 8006ab2:	f44f 7200 	mov.w	r2, #512	; 0x200
 8006ab6:	611a      	str	r2, [r3, #16]
 8006ab8:	4b59      	ldr	r3, [pc, #356]	; (8006c20 <LCD_Init+0x3c18>)
 8006aba:	f44f 7280 	mov.w	r2, #256	; 0x100
 8006abe:	611a      	str	r2, [r3, #16]
 8006ac0:	4b57      	ldr	r3, [pc, #348]	; (8006c20 <LCD_Init+0x3c18>)
 8006ac2:	f44f 7200 	mov.w	r2, #512	; 0x200
 8006ac6:	615a      	str	r2, [r3, #20]
 8006ac8:	4b56      	ldr	r3, [pc, #344]	; (8006c24 <LCD_Init+0x3c1c>)
 8006aca:	2200      	movs	r2, #0
 8006acc:	60da      	str	r2, [r3, #12]
 8006ace:	4b54      	ldr	r3, [pc, #336]	; (8006c20 <LCD_Init+0x3c18>)
 8006ad0:	2280      	movs	r2, #128	; 0x80
 8006ad2:	615a      	str	r2, [r3, #20]
 8006ad4:	4b52      	ldr	r3, [pc, #328]	; (8006c20 <LCD_Init+0x3c18>)
 8006ad6:	2280      	movs	r2, #128	; 0x80
 8006ad8:	611a      	str	r2, [r3, #16]
 8006ada:	4b51      	ldr	r3, [pc, #324]	; (8006c20 <LCD_Init+0x3c18>)
 8006adc:	f44f 7200 	mov.w	r2, #512	; 0x200
 8006ae0:	611a      	str	r2, [r3, #16]
 8006ae2:	4b4f      	ldr	r3, [pc, #316]	; (8006c20 <LCD_Init+0x3c18>)
 8006ae4:	f44f 7280 	mov.w	r2, #256	; 0x100
 8006ae8:	611a      	str	r2, [r3, #16]
 8006aea:	4b4d      	ldr	r3, [pc, #308]	; (8006c20 <LCD_Init+0x3c18>)
 8006aec:	f44f 7200 	mov.w	r2, #512	; 0x200
 8006af0:	615a      	str	r2, [r3, #20]
 8006af2:	4b4c      	ldr	r3, [pc, #304]	; (8006c24 <LCD_Init+0x3c1c>)
 8006af4:	2200      	movs	r2, #0
 8006af6:	60da      	str	r2, [r3, #12]
 8006af8:	4b49      	ldr	r3, [pc, #292]	; (8006c20 <LCD_Init+0x3c18>)
 8006afa:	2280      	movs	r2, #128	; 0x80
 8006afc:	615a      	str	r2, [r3, #20]
 8006afe:	4b48      	ldr	r3, [pc, #288]	; (8006c20 <LCD_Init+0x3c18>)
 8006b00:	2280      	movs	r2, #128	; 0x80
 8006b02:	611a      	str	r2, [r3, #16]
 8006b04:	4b46      	ldr	r3, [pc, #280]	; (8006c20 <LCD_Init+0x3c18>)
 8006b06:	f44f 7200 	mov.w	r2, #512	; 0x200
 8006b0a:	611a      	str	r2, [r3, #16]
 8006b0c:	20b6      	movs	r0, #182	; 0xb6
 8006b0e:	f7fa ff53 	bl	80019b8 <LCD_WR_REG>
 8006b12:	4b43      	ldr	r3, [pc, #268]	; (8006c20 <LCD_Init+0x3c18>)
 8006b14:	f44f 7280 	mov.w	r2, #256	; 0x100
 8006b18:	611a      	str	r2, [r3, #16]
 8006b1a:	4b41      	ldr	r3, [pc, #260]	; (8006c20 <LCD_Init+0x3c18>)
 8006b1c:	f44f 7200 	mov.w	r2, #512	; 0x200
 8006b20:	615a      	str	r2, [r3, #20]
 8006b22:	4b40      	ldr	r3, [pc, #256]	; (8006c24 <LCD_Init+0x3c1c>)
 8006b24:	2202      	movs	r2, #2
 8006b26:	60da      	str	r2, [r3, #12]
 8006b28:	4b3d      	ldr	r3, [pc, #244]	; (8006c20 <LCD_Init+0x3c18>)
 8006b2a:	2280      	movs	r2, #128	; 0x80
 8006b2c:	615a      	str	r2, [r3, #20]
 8006b2e:	4b3c      	ldr	r3, [pc, #240]	; (8006c20 <LCD_Init+0x3c18>)
 8006b30:	2280      	movs	r2, #128	; 0x80
 8006b32:	611a      	str	r2, [r3, #16]
 8006b34:	4b3a      	ldr	r3, [pc, #232]	; (8006c20 <LCD_Init+0x3c18>)
 8006b36:	f44f 7200 	mov.w	r2, #512	; 0x200
 8006b3a:	611a      	str	r2, [r3, #16]
 8006b3c:	4b38      	ldr	r3, [pc, #224]	; (8006c20 <LCD_Init+0x3c18>)
 8006b3e:	f44f 7280 	mov.w	r2, #256	; 0x100
 8006b42:	611a      	str	r2, [r3, #16]
 8006b44:	4b36      	ldr	r3, [pc, #216]	; (8006c20 <LCD_Init+0x3c18>)
 8006b46:	f44f 7200 	mov.w	r2, #512	; 0x200
 8006b4a:	615a      	str	r2, [r3, #20]
 8006b4c:	4b35      	ldr	r3, [pc, #212]	; (8006c24 <LCD_Init+0x3c1c>)
 8006b4e:	f44f 7203 	mov.w	r2, #524	; 0x20c
 8006b52:	60da      	str	r2, [r3, #12]
 8006b54:	4b32      	ldr	r3, [pc, #200]	; (8006c20 <LCD_Init+0x3c18>)
 8006b56:	2280      	movs	r2, #128	; 0x80
 8006b58:	615a      	str	r2, [r3, #20]
 8006b5a:	4b31      	ldr	r3, [pc, #196]	; (8006c20 <LCD_Init+0x3c18>)
 8006b5c:	2280      	movs	r2, #128	; 0x80
 8006b5e:	611a      	str	r2, [r3, #16]
 8006b60:	4b2f      	ldr	r3, [pc, #188]	; (8006c20 <LCD_Init+0x3c18>)
 8006b62:	f44f 7200 	mov.w	r2, #512	; 0x200
 8006b66:	611a      	str	r2, [r3, #16]
 8006b68:	4b2d      	ldr	r3, [pc, #180]	; (8006c20 <LCD_Init+0x3c18>)
 8006b6a:	f44f 7280 	mov.w	r2, #256	; 0x100
 8006b6e:	611a      	str	r2, [r3, #16]
 8006b70:	4b2b      	ldr	r3, [pc, #172]	; (8006c20 <LCD_Init+0x3c18>)
 8006b72:	f44f 7200 	mov.w	r2, #512	; 0x200
 8006b76:	615a      	str	r2, [r3, #20]
 8006b78:	4b2a      	ldr	r3, [pc, #168]	; (8006c24 <LCD_Init+0x3c1c>)
 8006b7a:	2200      	movs	r2, #0
 8006b7c:	60da      	str	r2, [r3, #12]
 8006b7e:	4b28      	ldr	r3, [pc, #160]	; (8006c20 <LCD_Init+0x3c18>)
 8006b80:	2280      	movs	r2, #128	; 0x80
 8006b82:	615a      	str	r2, [r3, #20]
 8006b84:	4b26      	ldr	r3, [pc, #152]	; (8006c20 <LCD_Init+0x3c18>)
 8006b86:	2280      	movs	r2, #128	; 0x80
 8006b88:	611a      	str	r2, [r3, #16]
 8006b8a:	4b25      	ldr	r3, [pc, #148]	; (8006c20 <LCD_Init+0x3c18>)
 8006b8c:	f44f 7200 	mov.w	r2, #512	; 0x200
 8006b90:	611a      	str	r2, [r3, #16]
 8006b92:	4b23      	ldr	r3, [pc, #140]	; (8006c20 <LCD_Init+0x3c18>)
 8006b94:	f44f 7280 	mov.w	r2, #256	; 0x100
 8006b98:	611a      	str	r2, [r3, #16]
 8006b9a:	4b21      	ldr	r3, [pc, #132]	; (8006c20 <LCD_Init+0x3c18>)
 8006b9c:	f44f 7200 	mov.w	r2, #512	; 0x200
 8006ba0:	615a      	str	r2, [r3, #20]
 8006ba2:	4b20      	ldr	r3, [pc, #128]	; (8006c24 <LCD_Init+0x3c1c>)
 8006ba4:	2217      	movs	r2, #23
 8006ba6:	60da      	str	r2, [r3, #12]
 8006ba8:	4b1d      	ldr	r3, [pc, #116]	; (8006c20 <LCD_Init+0x3c18>)
 8006baa:	2280      	movs	r2, #128	; 0x80
 8006bac:	615a      	str	r2, [r3, #20]
 8006bae:	4b1c      	ldr	r3, [pc, #112]	; (8006c20 <LCD_Init+0x3c18>)
 8006bb0:	2280      	movs	r2, #128	; 0x80
 8006bb2:	611a      	str	r2, [r3, #16]
 8006bb4:	4b1a      	ldr	r3, [pc, #104]	; (8006c20 <LCD_Init+0x3c18>)
 8006bb6:	f44f 7200 	mov.w	r2, #512	; 0x200
 8006bba:	611a      	str	r2, [r3, #16]
 8006bbc:	4b18      	ldr	r3, [pc, #96]	; (8006c20 <LCD_Init+0x3c18>)
 8006bbe:	f44f 7280 	mov.w	r2, #256	; 0x100
 8006bc2:	611a      	str	r2, [r3, #16]
 8006bc4:	4b16      	ldr	r3, [pc, #88]	; (8006c20 <LCD_Init+0x3c18>)
 8006bc6:	f44f 7200 	mov.w	r2, #512	; 0x200
 8006bca:	615a      	str	r2, [r3, #20]
 8006bcc:	4b15      	ldr	r3, [pc, #84]	; (8006c24 <LCD_Init+0x3c1c>)
 8006bce:	2215      	movs	r2, #21
 8006bd0:	60da      	str	r2, [r3, #12]
 8006bd2:	4b13      	ldr	r3, [pc, #76]	; (8006c20 <LCD_Init+0x3c18>)
 8006bd4:	2280      	movs	r2, #128	; 0x80
 8006bd6:	615a      	str	r2, [r3, #20]
 8006bd8:	4b11      	ldr	r3, [pc, #68]	; (8006c20 <LCD_Init+0x3c18>)
 8006bda:	2280      	movs	r2, #128	; 0x80
 8006bdc:	611a      	str	r2, [r3, #16]
 8006bde:	4b10      	ldr	r3, [pc, #64]	; (8006c20 <LCD_Init+0x3c18>)
 8006be0:	f44f 7200 	mov.w	r2, #512	; 0x200
 8006be4:	611a      	str	r2, [r3, #16]
 8006be6:	4b0e      	ldr	r3, [pc, #56]	; (8006c20 <LCD_Init+0x3c18>)
 8006be8:	f44f 7280 	mov.w	r2, #256	; 0x100
 8006bec:	611a      	str	r2, [r3, #16]
 8006bee:	4b0c      	ldr	r3, [pc, #48]	; (8006c20 <LCD_Init+0x3c18>)
 8006bf0:	f44f 7200 	mov.w	r2, #512	; 0x200
 8006bf4:	615a      	str	r2, [r3, #20]
 8006bf6:	4b0b      	ldr	r3, [pc, #44]	; (8006c24 <LCD_Init+0x3c1c>)
 8006bf8:	2200      	movs	r2, #0
 8006bfa:	60da      	str	r2, [r3, #12]
 8006bfc:	4b08      	ldr	r3, [pc, #32]	; (8006c20 <LCD_Init+0x3c18>)
 8006bfe:	2280      	movs	r2, #128	; 0x80
 8006c00:	615a      	str	r2, [r3, #20]
 8006c02:	4b07      	ldr	r3, [pc, #28]	; (8006c20 <LCD_Init+0x3c18>)
 8006c04:	2280      	movs	r2, #128	; 0x80
 8006c06:	611a      	str	r2, [r3, #16]
 8006c08:	4b05      	ldr	r3, [pc, #20]	; (8006c20 <LCD_Init+0x3c18>)
 8006c0a:	f44f 7200 	mov.w	r2, #512	; 0x200
 8006c0e:	611a      	str	r2, [r3, #16]
 8006c10:	4b03      	ldr	r3, [pc, #12]	; (8006c20 <LCD_Init+0x3c18>)
 8006c12:	f44f 7280 	mov.w	r2, #256	; 0x100
 8006c16:	611a      	str	r2, [r3, #16]
 8006c18:	4b01      	ldr	r3, [pc, #4]	; (8006c20 <LCD_Init+0x3c18>)
 8006c1a:	f44f 7200 	mov.w	r2, #512	; 0x200
 8006c1e:	e003      	b.n	8006c28 <LCD_Init+0x3c20>
 8006c20:	40011000 	.word	0x40011000
 8006c24:	40010c00 	.word	0x40010c00
 8006c28:	615a      	str	r2, [r3, #20]
 8006c2a:	4b8b      	ldr	r3, [pc, #556]	; (8006e58 <LCD_Init+0x3e50>)
 8006c2c:	2200      	movs	r2, #0
 8006c2e:	60da      	str	r2, [r3, #12]
 8006c30:	4b8a      	ldr	r3, [pc, #552]	; (8006e5c <LCD_Init+0x3e54>)
 8006c32:	2280      	movs	r2, #128	; 0x80
 8006c34:	615a      	str	r2, [r3, #20]
 8006c36:	4b89      	ldr	r3, [pc, #548]	; (8006e5c <LCD_Init+0x3e54>)
 8006c38:	2280      	movs	r2, #128	; 0x80
 8006c3a:	611a      	str	r2, [r3, #16]
 8006c3c:	4b87      	ldr	r3, [pc, #540]	; (8006e5c <LCD_Init+0x3e54>)
 8006c3e:	f44f 7200 	mov.w	r2, #512	; 0x200
 8006c42:	611a      	str	r2, [r3, #16]
 8006c44:	20f0      	movs	r0, #240	; 0xf0
 8006c46:	f7fa feb7 	bl	80019b8 <LCD_WR_REG>
 8006c4a:	4b84      	ldr	r3, [pc, #528]	; (8006e5c <LCD_Init+0x3e54>)
 8006c4c:	f44f 7280 	mov.w	r2, #256	; 0x100
 8006c50:	611a      	str	r2, [r3, #16]
 8006c52:	4b82      	ldr	r3, [pc, #520]	; (8006e5c <LCD_Init+0x3e54>)
 8006c54:	f44f 7200 	mov.w	r2, #512	; 0x200
 8006c58:	615a      	str	r2, [r3, #20]
 8006c5a:	4b7f      	ldr	r3, [pc, #508]	; (8006e58 <LCD_Init+0x3e50>)
 8006c5c:	2203      	movs	r2, #3
 8006c5e:	60da      	str	r2, [r3, #12]
 8006c60:	4b7e      	ldr	r3, [pc, #504]	; (8006e5c <LCD_Init+0x3e54>)
 8006c62:	2280      	movs	r2, #128	; 0x80
 8006c64:	615a      	str	r2, [r3, #20]
 8006c66:	4b7d      	ldr	r3, [pc, #500]	; (8006e5c <LCD_Init+0x3e54>)
 8006c68:	2280      	movs	r2, #128	; 0x80
 8006c6a:	611a      	str	r2, [r3, #16]
 8006c6c:	4b7b      	ldr	r3, [pc, #492]	; (8006e5c <LCD_Init+0x3e54>)
 8006c6e:	f44f 7200 	mov.w	r2, #512	; 0x200
 8006c72:	611a      	str	r2, [r3, #16]
 8006c74:	2029      	movs	r0, #41	; 0x29
 8006c76:	f7fa fe9f 	bl	80019b8 <LCD_WR_REG>
 8006c7a:	20d0      	movs	r0, #208	; 0xd0
 8006c7c:	f7fa fe9c 	bl	80019b8 <LCD_WR_REG>
 8006c80:	4b76      	ldr	r3, [pc, #472]	; (8006e5c <LCD_Init+0x3e54>)
 8006c82:	f44f 7280 	mov.w	r2, #256	; 0x100
 8006c86:	611a      	str	r2, [r3, #16]
 8006c88:	4b74      	ldr	r3, [pc, #464]	; (8006e5c <LCD_Init+0x3e54>)
 8006c8a:	f44f 7200 	mov.w	r2, #512	; 0x200
 8006c8e:	615a      	str	r2, [r3, #20]
 8006c90:	4b71      	ldr	r3, [pc, #452]	; (8006e58 <LCD_Init+0x3e50>)
 8006c92:	2200      	movs	r2, #0
 8006c94:	60da      	str	r2, [r3, #12]
 8006c96:	4b71      	ldr	r3, [pc, #452]	; (8006e5c <LCD_Init+0x3e54>)
 8006c98:	2280      	movs	r2, #128	; 0x80
 8006c9a:	615a      	str	r2, [r3, #20]
 8006c9c:	4b6f      	ldr	r3, [pc, #444]	; (8006e5c <LCD_Init+0x3e54>)
 8006c9e:	2280      	movs	r2, #128	; 0x80
 8006ca0:	611a      	str	r2, [r3, #16]
 8006ca2:	4b6e      	ldr	r3, [pc, #440]	; (8006e5c <LCD_Init+0x3e54>)
 8006ca4:	f44f 7200 	mov.w	r2, #512	; 0x200
 8006ca8:	611a      	str	r2, [r3, #16]
 8006caa:	20be      	movs	r0, #190	; 0xbe
 8006cac:	f7fa fe84 	bl	80019b8 <LCD_WR_REG>
 8006cb0:	4b6a      	ldr	r3, [pc, #424]	; (8006e5c <LCD_Init+0x3e54>)
 8006cb2:	f44f 7280 	mov.w	r2, #256	; 0x100
 8006cb6:	611a      	str	r2, [r3, #16]
 8006cb8:	4b68      	ldr	r3, [pc, #416]	; (8006e5c <LCD_Init+0x3e54>)
 8006cba:	f44f 7200 	mov.w	r2, #512	; 0x200
 8006cbe:	615a      	str	r2, [r3, #20]
 8006cc0:	4b65      	ldr	r3, [pc, #404]	; (8006e58 <LCD_Init+0x3e50>)
 8006cc2:	2205      	movs	r2, #5
 8006cc4:	60da      	str	r2, [r3, #12]
 8006cc6:	4b65      	ldr	r3, [pc, #404]	; (8006e5c <LCD_Init+0x3e54>)
 8006cc8:	2280      	movs	r2, #128	; 0x80
 8006cca:	615a      	str	r2, [r3, #20]
 8006ccc:	4b63      	ldr	r3, [pc, #396]	; (8006e5c <LCD_Init+0x3e54>)
 8006cce:	2280      	movs	r2, #128	; 0x80
 8006cd0:	611a      	str	r2, [r3, #16]
 8006cd2:	4b62      	ldr	r3, [pc, #392]	; (8006e5c <LCD_Init+0x3e54>)
 8006cd4:	f44f 7200 	mov.w	r2, #512	; 0x200
 8006cd8:	611a      	str	r2, [r3, #16]
 8006cda:	4b60      	ldr	r3, [pc, #384]	; (8006e5c <LCD_Init+0x3e54>)
 8006cdc:	f44f 7280 	mov.w	r2, #256	; 0x100
 8006ce0:	611a      	str	r2, [r3, #16]
 8006ce2:	4b5e      	ldr	r3, [pc, #376]	; (8006e5c <LCD_Init+0x3e54>)
 8006ce4:	f44f 7200 	mov.w	r2, #512	; 0x200
 8006ce8:	615a      	str	r2, [r3, #20]
 8006cea:	4b5b      	ldr	r3, [pc, #364]	; (8006e58 <LCD_Init+0x3e50>)
 8006cec:	22fe      	movs	r2, #254	; 0xfe
 8006cee:	60da      	str	r2, [r3, #12]
 8006cf0:	4b5a      	ldr	r3, [pc, #360]	; (8006e5c <LCD_Init+0x3e54>)
 8006cf2:	2280      	movs	r2, #128	; 0x80
 8006cf4:	615a      	str	r2, [r3, #20]
 8006cf6:	4b59      	ldr	r3, [pc, #356]	; (8006e5c <LCD_Init+0x3e54>)
 8006cf8:	2280      	movs	r2, #128	; 0x80
 8006cfa:	611a      	str	r2, [r3, #16]
 8006cfc:	4b57      	ldr	r3, [pc, #348]	; (8006e5c <LCD_Init+0x3e54>)
 8006cfe:	f44f 7200 	mov.w	r2, #512	; 0x200
 8006d02:	611a      	str	r2, [r3, #16]
 8006d04:	4b55      	ldr	r3, [pc, #340]	; (8006e5c <LCD_Init+0x3e54>)
 8006d06:	f44f 7280 	mov.w	r2, #256	; 0x100
 8006d0a:	611a      	str	r2, [r3, #16]
 8006d0c:	4b53      	ldr	r3, [pc, #332]	; (8006e5c <LCD_Init+0x3e54>)
 8006d0e:	f44f 7200 	mov.w	r2, #512	; 0x200
 8006d12:	615a      	str	r2, [r3, #20]
 8006d14:	4b50      	ldr	r3, [pc, #320]	; (8006e58 <LCD_Init+0x3e50>)
 8006d16:	2201      	movs	r2, #1
 8006d18:	60da      	str	r2, [r3, #12]
 8006d1a:	4b50      	ldr	r3, [pc, #320]	; (8006e5c <LCD_Init+0x3e54>)
 8006d1c:	2280      	movs	r2, #128	; 0x80
 8006d1e:	615a      	str	r2, [r3, #20]
 8006d20:	4b4e      	ldr	r3, [pc, #312]	; (8006e5c <LCD_Init+0x3e54>)
 8006d22:	2280      	movs	r2, #128	; 0x80
 8006d24:	611a      	str	r2, [r3, #16]
 8006d26:	4b4d      	ldr	r3, [pc, #308]	; (8006e5c <LCD_Init+0x3e54>)
 8006d28:	f44f 7200 	mov.w	r2, #512	; 0x200
 8006d2c:	611a      	str	r2, [r3, #16]
 8006d2e:	4b4b      	ldr	r3, [pc, #300]	; (8006e5c <LCD_Init+0x3e54>)
 8006d30:	f44f 7280 	mov.w	r2, #256	; 0x100
 8006d34:	611a      	str	r2, [r3, #16]
 8006d36:	4b49      	ldr	r3, [pc, #292]	; (8006e5c <LCD_Init+0x3e54>)
 8006d38:	f44f 7200 	mov.w	r2, #512	; 0x200
 8006d3c:	615a      	str	r2, [r3, #20]
 8006d3e:	4b46      	ldr	r3, [pc, #280]	; (8006e58 <LCD_Init+0x3e50>)
 8006d40:	2200      	movs	r2, #0
 8006d42:	60da      	str	r2, [r3, #12]
 8006d44:	4b45      	ldr	r3, [pc, #276]	; (8006e5c <LCD_Init+0x3e54>)
 8006d46:	2280      	movs	r2, #128	; 0x80
 8006d48:	615a      	str	r2, [r3, #20]
 8006d4a:	4b44      	ldr	r3, [pc, #272]	; (8006e5c <LCD_Init+0x3e54>)
 8006d4c:	2280      	movs	r2, #128	; 0x80
 8006d4e:	611a      	str	r2, [r3, #16]
 8006d50:	4b42      	ldr	r3, [pc, #264]	; (8006e5c <LCD_Init+0x3e54>)
 8006d52:	f44f 7200 	mov.w	r2, #512	; 0x200
 8006d56:	611a      	str	r2, [r3, #16]
 8006d58:	4b40      	ldr	r3, [pc, #256]	; (8006e5c <LCD_Init+0x3e54>)
 8006d5a:	f44f 7280 	mov.w	r2, #256	; 0x100
 8006d5e:	611a      	str	r2, [r3, #16]
 8006d60:	4b3e      	ldr	r3, [pc, #248]	; (8006e5c <LCD_Init+0x3e54>)
 8006d62:	f44f 7200 	mov.w	r2, #512	; 0x200
 8006d66:	615a      	str	r2, [r3, #20]
 8006d68:	4b3b      	ldr	r3, [pc, #236]	; (8006e58 <LCD_Init+0x3e50>)
 8006d6a:	2200      	movs	r2, #0
 8006d6c:	60da      	str	r2, [r3, #12]
 8006d6e:	4b3b      	ldr	r3, [pc, #236]	; (8006e5c <LCD_Init+0x3e54>)
 8006d70:	2280      	movs	r2, #128	; 0x80
 8006d72:	615a      	str	r2, [r3, #20]
 8006d74:	4b39      	ldr	r3, [pc, #228]	; (8006e5c <LCD_Init+0x3e54>)
 8006d76:	2280      	movs	r2, #128	; 0x80
 8006d78:	611a      	str	r2, [r3, #16]
 8006d7a:	4b38      	ldr	r3, [pc, #224]	; (8006e5c <LCD_Init+0x3e54>)
 8006d7c:	f44f 7200 	mov.w	r2, #512	; 0x200
 8006d80:	611a      	str	r2, [r3, #16]
 8006d82:	4b36      	ldr	r3, [pc, #216]	; (8006e5c <LCD_Init+0x3e54>)
 8006d84:	f44f 7280 	mov.w	r2, #256	; 0x100
 8006d88:	611a      	str	r2, [r3, #16]
 8006d8a:	4b34      	ldr	r3, [pc, #208]	; (8006e5c <LCD_Init+0x3e54>)
 8006d8c:	f44f 7200 	mov.w	r2, #512	; 0x200
 8006d90:	615a      	str	r2, [r3, #20]
 8006d92:	4b31      	ldr	r3, [pc, #196]	; (8006e58 <LCD_Init+0x3e50>)
 8006d94:	2200      	movs	r2, #0
 8006d96:	60da      	str	r2, [r3, #12]
 8006d98:	4b30      	ldr	r3, [pc, #192]	; (8006e5c <LCD_Init+0x3e54>)
 8006d9a:	2280      	movs	r2, #128	; 0x80
 8006d9c:	615a      	str	r2, [r3, #20]
 8006d9e:	4b2f      	ldr	r3, [pc, #188]	; (8006e5c <LCD_Init+0x3e54>)
 8006da0:	2280      	movs	r2, #128	; 0x80
 8006da2:	611a      	str	r2, [r3, #16]
 8006da4:	4b2d      	ldr	r3, [pc, #180]	; (8006e5c <LCD_Init+0x3e54>)
 8006da6:	f44f 7200 	mov.w	r2, #512	; 0x200
 8006daa:	611a      	str	r2, [r3, #16]
 8006dac:	20b8      	movs	r0, #184	; 0xb8
 8006dae:	f7fa fe03 	bl	80019b8 <LCD_WR_REG>
 8006db2:	4b2a      	ldr	r3, [pc, #168]	; (8006e5c <LCD_Init+0x3e54>)
 8006db4:	f44f 7280 	mov.w	r2, #256	; 0x100
 8006db8:	611a      	str	r2, [r3, #16]
 8006dba:	4b28      	ldr	r3, [pc, #160]	; (8006e5c <LCD_Init+0x3e54>)
 8006dbc:	f44f 7200 	mov.w	r2, #512	; 0x200
 8006dc0:	615a      	str	r2, [r3, #20]
 8006dc2:	4b25      	ldr	r3, [pc, #148]	; (8006e58 <LCD_Init+0x3e50>)
 8006dc4:	2203      	movs	r2, #3
 8006dc6:	60da      	str	r2, [r3, #12]
 8006dc8:	4b24      	ldr	r3, [pc, #144]	; (8006e5c <LCD_Init+0x3e54>)
 8006dca:	2280      	movs	r2, #128	; 0x80
 8006dcc:	615a      	str	r2, [r3, #20]
 8006dce:	4b23      	ldr	r3, [pc, #140]	; (8006e5c <LCD_Init+0x3e54>)
 8006dd0:	2280      	movs	r2, #128	; 0x80
 8006dd2:	611a      	str	r2, [r3, #16]
 8006dd4:	4b21      	ldr	r3, [pc, #132]	; (8006e5c <LCD_Init+0x3e54>)
 8006dd6:	f44f 7200 	mov.w	r2, #512	; 0x200
 8006dda:	611a      	str	r2, [r3, #16]
 8006ddc:	4b1f      	ldr	r3, [pc, #124]	; (8006e5c <LCD_Init+0x3e54>)
 8006dde:	f44f 7280 	mov.w	r2, #256	; 0x100
 8006de2:	611a      	str	r2, [r3, #16]
 8006de4:	4b1d      	ldr	r3, [pc, #116]	; (8006e5c <LCD_Init+0x3e54>)
 8006de6:	f44f 7200 	mov.w	r2, #512	; 0x200
 8006dea:	615a      	str	r2, [r3, #20]
 8006dec:	4b1a      	ldr	r3, [pc, #104]	; (8006e58 <LCD_Init+0x3e50>)
 8006dee:	2201      	movs	r2, #1
 8006df0:	60da      	str	r2, [r3, #12]
 8006df2:	4b1a      	ldr	r3, [pc, #104]	; (8006e5c <LCD_Init+0x3e54>)
 8006df4:	2280      	movs	r2, #128	; 0x80
 8006df6:	615a      	str	r2, [r3, #20]
 8006df8:	4b18      	ldr	r3, [pc, #96]	; (8006e5c <LCD_Init+0x3e54>)
 8006dfa:	2280      	movs	r2, #128	; 0x80
 8006dfc:	611a      	str	r2, [r3, #16]
 8006dfe:	4b17      	ldr	r3, [pc, #92]	; (8006e5c <LCD_Init+0x3e54>)
 8006e00:	f44f 7200 	mov.w	r2, #512	; 0x200
 8006e04:	611a      	str	r2, [r3, #16]
 8006e06:	20ba      	movs	r0, #186	; 0xba
 8006e08:	f7fa fdd6 	bl	80019b8 <LCD_WR_REG>
 8006e0c:	4b13      	ldr	r3, [pc, #76]	; (8006e5c <LCD_Init+0x3e54>)
 8006e0e:	f44f 7280 	mov.w	r2, #256	; 0x100
 8006e12:	611a      	str	r2, [r3, #16]
 8006e14:	4b11      	ldr	r3, [pc, #68]	; (8006e5c <LCD_Init+0x3e54>)
 8006e16:	f44f 7200 	mov.w	r2, #512	; 0x200
 8006e1a:	615a      	str	r2, [r3, #20]
 8006e1c:	4b0e      	ldr	r3, [pc, #56]	; (8006e58 <LCD_Init+0x3e50>)
 8006e1e:	2201      	movs	r2, #1
 8006e20:	60da      	str	r2, [r3, #12]
 8006e22:	4b0e      	ldr	r3, [pc, #56]	; (8006e5c <LCD_Init+0x3e54>)
 8006e24:	2280      	movs	r2, #128	; 0x80
 8006e26:	615a      	str	r2, [r3, #20]
 8006e28:	4b0c      	ldr	r3, [pc, #48]	; (8006e5c <LCD_Init+0x3e54>)
 8006e2a:	2280      	movs	r2, #128	; 0x80
 8006e2c:	611a      	str	r2, [r3, #16]
 8006e2e:	4b0b      	ldr	r3, [pc, #44]	; (8006e5c <LCD_Init+0x3e54>)
 8006e30:	f44f 7200 	mov.w	r2, #512	; 0x200
 8006e34:	611a      	str	r2, [r3, #16]
 8006e36:	2064      	movs	r0, #100	; 0x64
 8006e38:	f7fb ff36 	bl	8002ca8 <LCD_SSD_BackLightSet>
 8006e3c:	2000      	movs	r0, #0
 8006e3e:	f7fb ffd7 	bl	8002df0 <LCD_Display_Dir>
 8006e42:	4b07      	ldr	r3, [pc, #28]	; (8006e60 <LCD_Init+0x3e58>)
 8006e44:	2201      	movs	r2, #1
 8006e46:	601a      	str	r2, [r3, #0]
 8006e48:	f64f 70ff 	movw	r0, #65535	; 0xffff
 8006e4c:	f000 f80a 	bl	8006e64 <LCD_Clear>
 8006e50:	bf00      	nop
 8006e52:	3718      	adds	r7, #24
 8006e54:	46bd      	mov	sp, r7
 8006e56:	bd80      	pop	{r7, pc}
 8006e58:	40010c00 	.word	0x40010c00
 8006e5c:	40011000 	.word	0x40011000
 8006e60:	422201a8 	.word	0x422201a8

08006e64 <LCD_Clear>:
 8006e64:	b580      	push	{r7, lr}
 8006e66:	b084      	sub	sp, #16
 8006e68:	af00      	add	r7, sp, #0
 8006e6a:	4603      	mov	r3, r0
 8006e6c:	80fb      	strh	r3, [r7, #6]
 8006e6e:	2300      	movs	r3, #0
 8006e70:	60fb      	str	r3, [r7, #12]
 8006e72:	4b2a      	ldr	r3, [pc, #168]	; (8006f1c <LCD_Clear+0xb8>)
 8006e74:	881b      	ldrh	r3, [r3, #0]
 8006e76:	60bb      	str	r3, [r7, #8]
 8006e78:	4b28      	ldr	r3, [pc, #160]	; (8006f1c <LCD_Clear+0xb8>)
 8006e7a:	885b      	ldrh	r3, [r3, #2]
 8006e7c:	461a      	mov	r2, r3
 8006e7e:	68bb      	ldr	r3, [r7, #8]
 8006e80:	fb02 f303 	mul.w	r3, r2, r3
 8006e84:	60bb      	str	r3, [r7, #8]
 8006e86:	4b25      	ldr	r3, [pc, #148]	; (8006f1c <LCD_Clear+0xb8>)
 8006e88:	889b      	ldrh	r3, [r3, #4]
 8006e8a:	f646 0204 	movw	r2, #26628	; 0x6804
 8006e8e:	4293      	cmp	r3, r2
 8006e90:	d11a      	bne.n	8006ec8 <LCD_Clear+0x64>
 8006e92:	4b22      	ldr	r3, [pc, #136]	; (8006f1c <LCD_Clear+0xb8>)
 8006e94:	799b      	ldrb	r3, [r3, #6]
 8006e96:	2b01      	cmp	r3, #1
 8006e98:	d116      	bne.n	8006ec8 <LCD_Clear+0x64>
 8006e9a:	4b20      	ldr	r3, [pc, #128]	; (8006f1c <LCD_Clear+0xb8>)
 8006e9c:	2200      	movs	r2, #0
 8006e9e:	719a      	strb	r2, [r3, #6]
 8006ea0:	4b1e      	ldr	r3, [pc, #120]	; (8006f1c <LCD_Clear+0xb8>)
 8006ea2:	222a      	movs	r2, #42	; 0x2a
 8006ea4:	815a      	strh	r2, [r3, #10]
 8006ea6:	4b1d      	ldr	r3, [pc, #116]	; (8006f1c <LCD_Clear+0xb8>)
 8006ea8:	222b      	movs	r2, #43	; 0x2b
 8006eaa:	819a      	strh	r2, [r3, #12]
 8006eac:	2100      	movs	r1, #0
 8006eae:	2000      	movs	r0, #0
 8006eb0:	f7fa fe54 	bl	8001b5c <LCD_SetCursor>
 8006eb4:	4b19      	ldr	r3, [pc, #100]	; (8006f1c <LCD_Clear+0xb8>)
 8006eb6:	2201      	movs	r2, #1
 8006eb8:	719a      	strb	r2, [r3, #6]
 8006eba:	4b18      	ldr	r3, [pc, #96]	; (8006f1c <LCD_Clear+0xb8>)
 8006ebc:	222b      	movs	r2, #43	; 0x2b
 8006ebe:	815a      	strh	r2, [r3, #10]
 8006ec0:	4b16      	ldr	r3, [pc, #88]	; (8006f1c <LCD_Clear+0xb8>)
 8006ec2:	222a      	movs	r2, #42	; 0x2a
 8006ec4:	819a      	strh	r2, [r3, #12]
 8006ec6:	e003      	b.n	8006ed0 <LCD_Clear+0x6c>
 8006ec8:	2100      	movs	r1, #0
 8006eca:	2000      	movs	r0, #0
 8006ecc:	f7fa fe46 	bl	8001b5c <LCD_SetCursor>
 8006ed0:	f7fa fe38 	bl	8001b44 <LCD_WriteRAM_Prepare>
 8006ed4:	2300      	movs	r3, #0
 8006ed6:	60fb      	str	r3, [r7, #12]
 8006ed8:	e017      	b.n	8006f0a <LCD_Clear+0xa6>
 8006eda:	4b11      	ldr	r3, [pc, #68]	; (8006f20 <LCD_Clear+0xbc>)
 8006edc:	f44f 7280 	mov.w	r2, #256	; 0x100
 8006ee0:	611a      	str	r2, [r3, #16]
 8006ee2:	4b0f      	ldr	r3, [pc, #60]	; (8006f20 <LCD_Clear+0xbc>)
 8006ee4:	f44f 7200 	mov.w	r2, #512	; 0x200
 8006ee8:	615a      	str	r2, [r3, #20]
 8006eea:	4a0e      	ldr	r2, [pc, #56]	; (8006f24 <LCD_Clear+0xc0>)
 8006eec:	88fb      	ldrh	r3, [r7, #6]
 8006eee:	60d3      	str	r3, [r2, #12]
 8006ef0:	4b0b      	ldr	r3, [pc, #44]	; (8006f20 <LCD_Clear+0xbc>)
 8006ef2:	2280      	movs	r2, #128	; 0x80
 8006ef4:	615a      	str	r2, [r3, #20]
 8006ef6:	4b0a      	ldr	r3, [pc, #40]	; (8006f20 <LCD_Clear+0xbc>)
 8006ef8:	2280      	movs	r2, #128	; 0x80
 8006efa:	611a      	str	r2, [r3, #16]
 8006efc:	4b08      	ldr	r3, [pc, #32]	; (8006f20 <LCD_Clear+0xbc>)
 8006efe:	f44f 7200 	mov.w	r2, #512	; 0x200
 8006f02:	611a      	str	r2, [r3, #16]
 8006f04:	68fb      	ldr	r3, [r7, #12]
 8006f06:	3301      	adds	r3, #1
 8006f08:	60fb      	str	r3, [r7, #12]
 8006f0a:	68fa      	ldr	r2, [r7, #12]
 8006f0c:	68bb      	ldr	r3, [r7, #8]
 8006f0e:	429a      	cmp	r2, r3
 8006f10:	d3e3      	bcc.n	8006eda <LCD_Clear+0x76>
 8006f12:	bf00      	nop
 8006f14:	3710      	adds	r7, #16
 8006f16:	46bd      	mov	sp, r7
 8006f18:	bd80      	pop	{r7, pc}
 8006f1a:	bf00      	nop
 8006f1c:	20000030 	.word	0x20000030
 8006f20:	40011000 	.word	0x40011000
 8006f24:	40010c00 	.word	0x40010c00

08006f28 <LCD_Fill>:
 8006f28:	b590      	push	{r4, r7, lr}
 8006f2a:	b087      	sub	sp, #28
 8006f2c:	af02      	add	r7, sp, #8
 8006f2e:	4604      	mov	r4, r0
 8006f30:	4608      	mov	r0, r1
 8006f32:	4611      	mov	r1, r2
 8006f34:	461a      	mov	r2, r3
 8006f36:	4623      	mov	r3, r4
 8006f38:	80fb      	strh	r3, [r7, #6]
 8006f3a:	4603      	mov	r3, r0
 8006f3c:	80bb      	strh	r3, [r7, #4]
 8006f3e:	460b      	mov	r3, r1
 8006f40:	807b      	strh	r3, [r7, #2]
 8006f42:	4613      	mov	r3, r2
 8006f44:	803b      	strh	r3, [r7, #0]
 8006f46:	2300      	movs	r3, #0
 8006f48:	817b      	strh	r3, [r7, #10]
 8006f4a:	4b3a      	ldr	r3, [pc, #232]	; (8007034 <LCD_Fill+0x10c>)
 8006f4c:	889b      	ldrh	r3, [r3, #4]
 8006f4e:	f646 0204 	movw	r2, #26628	; 0x6804
 8006f52:	4293      	cmp	r3, r2
 8006f54:	d133      	bne.n	8006fbe <LCD_Fill+0x96>
 8006f56:	4b37      	ldr	r3, [pc, #220]	; (8007034 <LCD_Fill+0x10c>)
 8006f58:	799b      	ldrb	r3, [r3, #6]
 8006f5a:	2b01      	cmp	r3, #1
 8006f5c:	d12f      	bne.n	8006fbe <LCD_Fill+0x96>
 8006f5e:	88fb      	ldrh	r3, [r7, #6]
 8006f60:	813b      	strh	r3, [r7, #8]
 8006f62:	88bb      	ldrh	r3, [r7, #4]
 8006f64:	80fb      	strh	r3, [r7, #6]
 8006f66:	4b33      	ldr	r3, [pc, #204]	; (8007034 <LCD_Fill+0x10c>)
 8006f68:	881a      	ldrh	r2, [r3, #0]
 8006f6a:	887b      	ldrh	r3, [r7, #2]
 8006f6c:	1ad3      	subs	r3, r2, r3
 8006f6e:	b29b      	uxth	r3, r3
 8006f70:	3b01      	subs	r3, #1
 8006f72:	80bb      	strh	r3, [r7, #4]
 8006f74:	883b      	ldrh	r3, [r7, #0]
 8006f76:	807b      	strh	r3, [r7, #2]
 8006f78:	4b2e      	ldr	r3, [pc, #184]	; (8007034 <LCD_Fill+0x10c>)
 8006f7a:	881a      	ldrh	r2, [r3, #0]
 8006f7c:	893b      	ldrh	r3, [r7, #8]
 8006f7e:	1ad3      	subs	r3, r2, r3
 8006f80:	b29b      	uxth	r3, r3
 8006f82:	3b01      	subs	r3, #1
 8006f84:	803b      	strh	r3, [r7, #0]
 8006f86:	4b2b      	ldr	r3, [pc, #172]	; (8007034 <LCD_Fill+0x10c>)
 8006f88:	2200      	movs	r2, #0
 8006f8a:	719a      	strb	r2, [r3, #6]
 8006f8c:	4b29      	ldr	r3, [pc, #164]	; (8007034 <LCD_Fill+0x10c>)
 8006f8e:	222a      	movs	r2, #42	; 0x2a
 8006f90:	815a      	strh	r2, [r3, #10]
 8006f92:	4b28      	ldr	r3, [pc, #160]	; (8007034 <LCD_Fill+0x10c>)
 8006f94:	222b      	movs	r2, #43	; 0x2b
 8006f96:	819a      	strh	r2, [r3, #12]
 8006f98:	883c      	ldrh	r4, [r7, #0]
 8006f9a:	887a      	ldrh	r2, [r7, #2]
 8006f9c:	88b9      	ldrh	r1, [r7, #4]
 8006f9e:	88f8      	ldrh	r0, [r7, #6]
 8006fa0:	8c3b      	ldrh	r3, [r7, #32]
 8006fa2:	9300      	str	r3, [sp, #0]
 8006fa4:	4623      	mov	r3, r4
 8006fa6:	f7ff ffbf 	bl	8006f28 <LCD_Fill>
 8006faa:	4b22      	ldr	r3, [pc, #136]	; (8007034 <LCD_Fill+0x10c>)
 8006fac:	2201      	movs	r2, #1
 8006fae:	719a      	strb	r2, [r3, #6]
 8006fb0:	4b20      	ldr	r3, [pc, #128]	; (8007034 <LCD_Fill+0x10c>)
 8006fb2:	222b      	movs	r2, #43	; 0x2b
 8006fb4:	815a      	strh	r2, [r3, #10]
 8006fb6:	4b1f      	ldr	r3, [pc, #124]	; (8007034 <LCD_Fill+0x10c>)
 8006fb8:	222a      	movs	r2, #42	; 0x2a
 8006fba:	819a      	strh	r2, [r3, #12]
 8006fbc:	e036      	b.n	800702c <LCD_Fill+0x104>
 8006fbe:	887a      	ldrh	r2, [r7, #2]
 8006fc0:	88fb      	ldrh	r3, [r7, #6]
 8006fc2:	1ad3      	subs	r3, r2, r3
 8006fc4:	b29b      	uxth	r3, r3
 8006fc6:	3301      	adds	r3, #1
 8006fc8:	817b      	strh	r3, [r7, #10]
 8006fca:	88bb      	ldrh	r3, [r7, #4]
 8006fcc:	81fb      	strh	r3, [r7, #14]
 8006fce:	e029      	b.n	8007024 <LCD_Fill+0xfc>
 8006fd0:	89fa      	ldrh	r2, [r7, #14]
 8006fd2:	88fb      	ldrh	r3, [r7, #6]
 8006fd4:	4611      	mov	r1, r2
 8006fd6:	4618      	mov	r0, r3
 8006fd8:	f7fa fdc0 	bl	8001b5c <LCD_SetCursor>
 8006fdc:	f7fa fdb2 	bl	8001b44 <LCD_WriteRAM_Prepare>
 8006fe0:	2300      	movs	r3, #0
 8006fe2:	81bb      	strh	r3, [r7, #12]
 8006fe4:	e017      	b.n	8007016 <LCD_Fill+0xee>
 8006fe6:	4b14      	ldr	r3, [pc, #80]	; (8007038 <LCD_Fill+0x110>)
 8006fe8:	f44f 7280 	mov.w	r2, #256	; 0x100
 8006fec:	611a      	str	r2, [r3, #16]
 8006fee:	4b12      	ldr	r3, [pc, #72]	; (8007038 <LCD_Fill+0x110>)
 8006ff0:	f44f 7200 	mov.w	r2, #512	; 0x200
 8006ff4:	615a      	str	r2, [r3, #20]
 8006ff6:	4a11      	ldr	r2, [pc, #68]	; (800703c <LCD_Fill+0x114>)
 8006ff8:	8c3b      	ldrh	r3, [r7, #32]
 8006ffa:	60d3      	str	r3, [r2, #12]
 8006ffc:	4b0e      	ldr	r3, [pc, #56]	; (8007038 <LCD_Fill+0x110>)
 8006ffe:	2280      	movs	r2, #128	; 0x80
 8007000:	615a      	str	r2, [r3, #20]
 8007002:	4b0d      	ldr	r3, [pc, #52]	; (8007038 <LCD_Fill+0x110>)
 8007004:	2280      	movs	r2, #128	; 0x80
 8007006:	611a      	str	r2, [r3, #16]
 8007008:	4b0b      	ldr	r3, [pc, #44]	; (8007038 <LCD_Fill+0x110>)
 800700a:	f44f 7200 	mov.w	r2, #512	; 0x200
 800700e:	611a      	str	r2, [r3, #16]
 8007010:	89bb      	ldrh	r3, [r7, #12]
 8007012:	3301      	adds	r3, #1
 8007014:	81bb      	strh	r3, [r7, #12]
 8007016:	89ba      	ldrh	r2, [r7, #12]
 8007018:	897b      	ldrh	r3, [r7, #10]
 800701a:	429a      	cmp	r2, r3
 800701c:	d3e3      	bcc.n	8006fe6 <LCD_Fill+0xbe>
 800701e:	89fb      	ldrh	r3, [r7, #14]
 8007020:	3301      	adds	r3, #1
 8007022:	81fb      	strh	r3, [r7, #14]
 8007024:	89fa      	ldrh	r2, [r7, #14]
 8007026:	883b      	ldrh	r3, [r7, #0]
 8007028:	429a      	cmp	r2, r3
 800702a:	d9d1      	bls.n	8006fd0 <LCD_Fill+0xa8>
 800702c:	bf00      	nop
 800702e:	3714      	adds	r7, #20
 8007030:	46bd      	mov	sp, r7
 8007032:	bd90      	pop	{r4, r7, pc}
 8007034:	20000030 	.word	0x20000030
 8007038:	40011000 	.word	0x40011000
 800703c:	40010c00 	.word	0x40010c00

08007040 <LCD_DrawLine>:
 8007040:	b590      	push	{r4, r7, lr}
 8007042:	b08d      	sub	sp, #52	; 0x34
 8007044:	af00      	add	r7, sp, #0
 8007046:	4604      	mov	r4, r0
 8007048:	4608      	mov	r0, r1
 800704a:	4611      	mov	r1, r2
 800704c:	461a      	mov	r2, r3
 800704e:	4623      	mov	r3, r4
 8007050:	80fb      	strh	r3, [r7, #6]
 8007052:	4603      	mov	r3, r0
 8007054:	80bb      	strh	r3, [r7, #4]
 8007056:	460b      	mov	r3, r1
 8007058:	807b      	strh	r3, [r7, #2]
 800705a:	4613      	mov	r3, r2
 800705c:	803b      	strh	r3, [r7, #0]
 800705e:	2300      	movs	r3, #0
 8007060:	62bb      	str	r3, [r7, #40]	; 0x28
 8007062:	2300      	movs	r3, #0
 8007064:	627b      	str	r3, [r7, #36]	; 0x24
 8007066:	887a      	ldrh	r2, [r7, #2]
 8007068:	88fb      	ldrh	r3, [r7, #6]
 800706a:	1ad3      	subs	r3, r2, r3
 800706c:	623b      	str	r3, [r7, #32]
 800706e:	883a      	ldrh	r2, [r7, #0]
 8007070:	88bb      	ldrh	r3, [r7, #4]
 8007072:	1ad3      	subs	r3, r2, r3
 8007074:	61fb      	str	r3, [r7, #28]
 8007076:	88fb      	ldrh	r3, [r7, #6]
 8007078:	60fb      	str	r3, [r7, #12]
 800707a:	88bb      	ldrh	r3, [r7, #4]
 800707c:	60bb      	str	r3, [r7, #8]
 800707e:	6a3b      	ldr	r3, [r7, #32]
 8007080:	2b00      	cmp	r3, #0
 8007082:	dd02      	ble.n	800708a <LCD_DrawLine+0x4a>
 8007084:	2301      	movs	r3, #1
 8007086:	617b      	str	r3, [r7, #20]
 8007088:	e00b      	b.n	80070a2 <LCD_DrawLine+0x62>
 800708a:	6a3b      	ldr	r3, [r7, #32]
 800708c:	2b00      	cmp	r3, #0
 800708e:	d102      	bne.n	8007096 <LCD_DrawLine+0x56>
 8007090:	2300      	movs	r3, #0
 8007092:	617b      	str	r3, [r7, #20]
 8007094:	e005      	b.n	80070a2 <LCD_DrawLine+0x62>
 8007096:	f04f 33ff 	mov.w	r3, #4294967295
 800709a:	617b      	str	r3, [r7, #20]
 800709c:	6a3b      	ldr	r3, [r7, #32]
 800709e:	425b      	negs	r3, r3
 80070a0:	623b      	str	r3, [r7, #32]
 80070a2:	69fb      	ldr	r3, [r7, #28]
 80070a4:	2b00      	cmp	r3, #0
 80070a6:	dd02      	ble.n	80070ae <LCD_DrawLine+0x6e>
 80070a8:	2301      	movs	r3, #1
 80070aa:	613b      	str	r3, [r7, #16]
 80070ac:	e00b      	b.n	80070c6 <LCD_DrawLine+0x86>
 80070ae:	69fb      	ldr	r3, [r7, #28]
 80070b0:	2b00      	cmp	r3, #0
 80070b2:	d102      	bne.n	80070ba <LCD_DrawLine+0x7a>
 80070b4:	2300      	movs	r3, #0
 80070b6:	613b      	str	r3, [r7, #16]
 80070b8:	e005      	b.n	80070c6 <LCD_DrawLine+0x86>
 80070ba:	f04f 33ff 	mov.w	r3, #4294967295
 80070be:	613b      	str	r3, [r7, #16]
 80070c0:	69fb      	ldr	r3, [r7, #28]
 80070c2:	425b      	negs	r3, r3
 80070c4:	61fb      	str	r3, [r7, #28]
 80070c6:	6a3a      	ldr	r2, [r7, #32]
 80070c8:	69fb      	ldr	r3, [r7, #28]
 80070ca:	429a      	cmp	r2, r3
 80070cc:	dd02      	ble.n	80070d4 <LCD_DrawLine+0x94>
 80070ce:	6a3b      	ldr	r3, [r7, #32]
 80070d0:	61bb      	str	r3, [r7, #24]
 80070d2:	e001      	b.n	80070d8 <LCD_DrawLine+0x98>
 80070d4:	69fb      	ldr	r3, [r7, #28]
 80070d6:	61bb      	str	r3, [r7, #24]
 80070d8:	2300      	movs	r3, #0
 80070da:	85fb      	strh	r3, [r7, #46]	; 0x2e
 80070dc:	e02a      	b.n	8007134 <LCD_DrawLine+0xf4>
 80070de:	68fb      	ldr	r3, [r7, #12]
 80070e0:	b29b      	uxth	r3, r3
 80070e2:	68ba      	ldr	r2, [r7, #8]
 80070e4:	b292      	uxth	r2, r2
 80070e6:	4611      	mov	r1, r2
 80070e8:	4618      	mov	r0, r3
 80070ea:	f7fb fb15 	bl	8002718 <LCD_DrawPoint>
 80070ee:	6aba      	ldr	r2, [r7, #40]	; 0x28
 80070f0:	6a3b      	ldr	r3, [r7, #32]
 80070f2:	4413      	add	r3, r2
 80070f4:	62bb      	str	r3, [r7, #40]	; 0x28
 80070f6:	6a7a      	ldr	r2, [r7, #36]	; 0x24
 80070f8:	69fb      	ldr	r3, [r7, #28]
 80070fa:	4413      	add	r3, r2
 80070fc:	627b      	str	r3, [r7, #36]	; 0x24
 80070fe:	6aba      	ldr	r2, [r7, #40]	; 0x28
 8007100:	69bb      	ldr	r3, [r7, #24]
 8007102:	429a      	cmp	r2, r3
 8007104:	dd07      	ble.n	8007116 <LCD_DrawLine+0xd6>
 8007106:	6aba      	ldr	r2, [r7, #40]	; 0x28
 8007108:	69bb      	ldr	r3, [r7, #24]
 800710a:	1ad3      	subs	r3, r2, r3
 800710c:	62bb      	str	r3, [r7, #40]	; 0x28
 800710e:	68fa      	ldr	r2, [r7, #12]
 8007110:	697b      	ldr	r3, [r7, #20]
 8007112:	4413      	add	r3, r2
 8007114:	60fb      	str	r3, [r7, #12]
 8007116:	6a7a      	ldr	r2, [r7, #36]	; 0x24
 8007118:	69bb      	ldr	r3, [r7, #24]
 800711a:	429a      	cmp	r2, r3
 800711c:	dd07      	ble.n	800712e <LCD_DrawLine+0xee>
 800711e:	6a7a      	ldr	r2, [r7, #36]	; 0x24
 8007120:	69bb      	ldr	r3, [r7, #24]
 8007122:	1ad3      	subs	r3, r2, r3
 8007124:	627b      	str	r3, [r7, #36]	; 0x24
 8007126:	68ba      	ldr	r2, [r7, #8]
 8007128:	693b      	ldr	r3, [r7, #16]
 800712a:	4413      	add	r3, r2
 800712c:	60bb      	str	r3, [r7, #8]
 800712e:	8dfb      	ldrh	r3, [r7, #46]	; 0x2e
 8007130:	3301      	adds	r3, #1
 8007132:	85fb      	strh	r3, [r7, #46]	; 0x2e
 8007134:	8dfa      	ldrh	r2, [r7, #46]	; 0x2e
 8007136:	69bb      	ldr	r3, [r7, #24]
 8007138:	3301      	adds	r3, #1
 800713a:	429a      	cmp	r2, r3
 800713c:	ddcf      	ble.n	80070de <LCD_DrawLine+0x9e>
 800713e:	bf00      	nop
 8007140:	3734      	adds	r7, #52	; 0x34
 8007142:	46bd      	mov	sp, r7
 8007144:	bd90      	pop	{r4, r7, pc}

08007146 <LCD_DrawRectangle>:
 8007146:	b590      	push	{r4, r7, lr}
 8007148:	b083      	sub	sp, #12
 800714a:	af00      	add	r7, sp, #0
 800714c:	4604      	mov	r4, r0
 800714e:	4608      	mov	r0, r1
 8007150:	4611      	mov	r1, r2
 8007152:	461a      	mov	r2, r3
 8007154:	4623      	mov	r3, r4
 8007156:	80fb      	strh	r3, [r7, #6]
 8007158:	4603      	mov	r3, r0
 800715a:	80bb      	strh	r3, [r7, #4]
 800715c:	460b      	mov	r3, r1
 800715e:	807b      	strh	r3, [r7, #2]
 8007160:	4613      	mov	r3, r2
 8007162:	803b      	strh	r3, [r7, #0]
 8007164:	88bb      	ldrh	r3, [r7, #4]
 8007166:	887a      	ldrh	r2, [r7, #2]
 8007168:	88b9      	ldrh	r1, [r7, #4]
 800716a:	88f8      	ldrh	r0, [r7, #6]
 800716c:	f7ff ff68 	bl	8007040 <LCD_DrawLine>
 8007170:	883b      	ldrh	r3, [r7, #0]
 8007172:	88fa      	ldrh	r2, [r7, #6]
 8007174:	88b9      	ldrh	r1, [r7, #4]
 8007176:	88f8      	ldrh	r0, [r7, #6]
 8007178:	f7ff ff62 	bl	8007040 <LCD_DrawLine>
 800717c:	883b      	ldrh	r3, [r7, #0]
 800717e:	887a      	ldrh	r2, [r7, #2]
 8007180:	8839      	ldrh	r1, [r7, #0]
 8007182:	88f8      	ldrh	r0, [r7, #6]
 8007184:	f7ff ff5c 	bl	8007040 <LCD_DrawLine>
 8007188:	883b      	ldrh	r3, [r7, #0]
 800718a:	887a      	ldrh	r2, [r7, #2]
 800718c:	88b9      	ldrh	r1, [r7, #4]
 800718e:	8878      	ldrh	r0, [r7, #2]
 8007190:	f7ff ff56 	bl	8007040 <LCD_DrawLine>
 8007194:	bf00      	nop
 8007196:	370c      	adds	r7, #12
 8007198:	46bd      	mov	sp, r7
 800719a:	bd90      	pop	{r4, r7, pc}

0800719c <LCD_ShowChar>:
 800719c:	b590      	push	{r4, r7, lr}
 800719e:	b085      	sub	sp, #20
 80071a0:	af00      	add	r7, sp, #0
 80071a2:	4604      	mov	r4, r0
 80071a4:	4608      	mov	r0, r1
 80071a6:	4611      	mov	r1, r2
 80071a8:	461a      	mov	r2, r3
 80071aa:	4623      	mov	r3, r4
 80071ac:	80fb      	strh	r3, [r7, #6]
 80071ae:	4603      	mov	r3, r0
 80071b0:	80bb      	strh	r3, [r7, #4]
 80071b2:	460b      	mov	r3, r1
 80071b4:	70fb      	strb	r3, [r7, #3]
 80071b6:	4613      	mov	r3, r2
 80071b8:	70bb      	strb	r3, [r7, #2]
 80071ba:	88bb      	ldrh	r3, [r7, #4]
 80071bc:	817b      	strh	r3, [r7, #10]
 80071be:	78bb      	ldrb	r3, [r7, #2]
 80071c0:	08db      	lsrs	r3, r3, #3
 80071c2:	b2db      	uxtb	r3, r3
 80071c4:	461a      	mov	r2, r3
 80071c6:	78bb      	ldrb	r3, [r7, #2]
 80071c8:	f003 0307 	and.w	r3, r3, #7
 80071cc:	b2db      	uxtb	r3, r3
 80071ce:	2b00      	cmp	r3, #0
 80071d0:	bf14      	ite	ne
 80071d2:	2301      	movne	r3, #1
 80071d4:	2300      	moveq	r3, #0
 80071d6:	b2db      	uxtb	r3, r3
 80071d8:	4413      	add	r3, r2
 80071da:	b2db      	uxtb	r3, r3
 80071dc:	78ba      	ldrb	r2, [r7, #2]
 80071de:	0852      	lsrs	r2, r2, #1
 80071e0:	b2d2      	uxtb	r2, r2
 80071e2:	fb02 f303 	mul.w	r3, r2, r3
 80071e6:	727b      	strb	r3, [r7, #9]
 80071e8:	78fb      	ldrb	r3, [r7, #3]
 80071ea:	3b20      	subs	r3, #32
 80071ec:	70fb      	strb	r3, [r7, #3]
 80071ee:	2300      	movs	r3, #0
 80071f0:	737b      	strb	r3, [r7, #13]
 80071f2:	e069      	b.n	80072c8 <LCD_ShowChar+0x12c>
 80071f4:	78bb      	ldrb	r3, [r7, #2]
 80071f6:	2b0c      	cmp	r3, #12
 80071f8:	d10b      	bne.n	8007212 <LCD_ShowChar+0x76>
 80071fa:	78fa      	ldrb	r2, [r7, #3]
 80071fc:	7b79      	ldrb	r1, [r7, #13]
 80071fe:	4838      	ldr	r0, [pc, #224]	; (80072e0 <LCD_ShowChar+0x144>)
 8007200:	4613      	mov	r3, r2
 8007202:	005b      	lsls	r3, r3, #1
 8007204:	4413      	add	r3, r2
 8007206:	009b      	lsls	r3, r3, #2
 8007208:	4403      	add	r3, r0
 800720a:	440b      	add	r3, r1
 800720c:	781b      	ldrb	r3, [r3, #0]
 800720e:	73fb      	strb	r3, [r7, #15]
 8007210:	e019      	b.n	8007246 <LCD_ShowChar+0xaa>
 8007212:	78bb      	ldrb	r3, [r7, #2]
 8007214:	2b10      	cmp	r3, #16
 8007216:	d108      	bne.n	800722a <LCD_ShowChar+0x8e>
 8007218:	78fa      	ldrb	r2, [r7, #3]
 800721a:	7b7b      	ldrb	r3, [r7, #13]
 800721c:	4931      	ldr	r1, [pc, #196]	; (80072e4 <LCD_ShowChar+0x148>)
 800721e:	0112      	lsls	r2, r2, #4
 8007220:	440a      	add	r2, r1
 8007222:	4413      	add	r3, r2
 8007224:	781b      	ldrb	r3, [r3, #0]
 8007226:	73fb      	strb	r3, [r7, #15]
 8007228:	e00d      	b.n	8007246 <LCD_ShowChar+0xaa>
 800722a:	78bb      	ldrb	r3, [r7, #2]
 800722c:	2b18      	cmp	r3, #24
 800722e:	d150      	bne.n	80072d2 <LCD_ShowChar+0x136>
 8007230:	78fa      	ldrb	r2, [r7, #3]
 8007232:	7b79      	ldrb	r1, [r7, #13]
 8007234:	482c      	ldr	r0, [pc, #176]	; (80072e8 <LCD_ShowChar+0x14c>)
 8007236:	4613      	mov	r3, r2
 8007238:	00db      	lsls	r3, r3, #3
 800723a:	4413      	add	r3, r2
 800723c:	009b      	lsls	r3, r3, #2
 800723e:	4403      	add	r3, r0
 8007240:	440b      	add	r3, r1
 8007242:	781b      	ldrb	r3, [r3, #0]
 8007244:	73fb      	strb	r3, [r7, #15]
 8007246:	2300      	movs	r3, #0
 8007248:	73bb      	strb	r3, [r7, #14]
 800724a:	e035      	b.n	80072b8 <LCD_ShowChar+0x11c>
 800724c:	f997 300f 	ldrsb.w	r3, [r7, #15]
 8007250:	2b00      	cmp	r3, #0
 8007252:	da07      	bge.n	8007264 <LCD_ShowChar+0xc8>
 8007254:	4b25      	ldr	r3, [pc, #148]	; (80072ec <LCD_ShowChar+0x150>)
 8007256:	881a      	ldrh	r2, [r3, #0]
 8007258:	88b9      	ldrh	r1, [r7, #4]
 800725a:	88fb      	ldrh	r3, [r7, #6]
 800725c:	4618      	mov	r0, r3
 800725e:	f7fb fa8b 	bl	8002778 <LCD_Fast_DrawPoint>
 8007262:	e00a      	b.n	800727a <LCD_ShowChar+0xde>
 8007264:	f897 3020 	ldrb.w	r3, [r7, #32]
 8007268:	2b00      	cmp	r3, #0
 800726a:	d106      	bne.n	800727a <LCD_ShowChar+0xde>
 800726c:	4b20      	ldr	r3, [pc, #128]	; (80072f0 <LCD_ShowChar+0x154>)
 800726e:	881a      	ldrh	r2, [r3, #0]
 8007270:	88b9      	ldrh	r1, [r7, #4]
 8007272:	88fb      	ldrh	r3, [r7, #6]
 8007274:	4618      	mov	r0, r3
 8007276:	f7fb fa7f 	bl	8002778 <LCD_Fast_DrawPoint>
 800727a:	7bfb      	ldrb	r3, [r7, #15]
 800727c:	005b      	lsls	r3, r3, #1
 800727e:	73fb      	strb	r3, [r7, #15]
 8007280:	88bb      	ldrh	r3, [r7, #4]
 8007282:	3301      	adds	r3, #1
 8007284:	80bb      	strh	r3, [r7, #4]
 8007286:	4b1b      	ldr	r3, [pc, #108]	; (80072f4 <LCD_ShowChar+0x158>)
 8007288:	885b      	ldrh	r3, [r3, #2]
 800728a:	88ba      	ldrh	r2, [r7, #4]
 800728c:	429a      	cmp	r2, r3
 800728e:	d222      	bcs.n	80072d6 <LCD_ShowChar+0x13a>
 8007290:	88ba      	ldrh	r2, [r7, #4]
 8007292:	897b      	ldrh	r3, [r7, #10]
 8007294:	1ad2      	subs	r2, r2, r3
 8007296:	78bb      	ldrb	r3, [r7, #2]
 8007298:	429a      	cmp	r2, r3
 800729a:	d10a      	bne.n	80072b2 <LCD_ShowChar+0x116>
 800729c:	897b      	ldrh	r3, [r7, #10]
 800729e:	80bb      	strh	r3, [r7, #4]
 80072a0:	88fb      	ldrh	r3, [r7, #6]
 80072a2:	3301      	adds	r3, #1
 80072a4:	80fb      	strh	r3, [r7, #6]
 80072a6:	4b13      	ldr	r3, [pc, #76]	; (80072f4 <LCD_ShowChar+0x158>)
 80072a8:	881b      	ldrh	r3, [r3, #0]
 80072aa:	88fa      	ldrh	r2, [r7, #6]
 80072ac:	429a      	cmp	r2, r3
 80072ae:	d307      	bcc.n	80072c0 <LCD_ShowChar+0x124>
 80072b0:	e012      	b.n	80072d8 <LCD_ShowChar+0x13c>
 80072b2:	7bbb      	ldrb	r3, [r7, #14]
 80072b4:	3301      	adds	r3, #1
 80072b6:	73bb      	strb	r3, [r7, #14]
 80072b8:	7bbb      	ldrb	r3, [r7, #14]
 80072ba:	2b07      	cmp	r3, #7
 80072bc:	d9c6      	bls.n	800724c <LCD_ShowChar+0xb0>
 80072be:	e000      	b.n	80072c2 <LCD_ShowChar+0x126>
 80072c0:	bf00      	nop
 80072c2:	7b7b      	ldrb	r3, [r7, #13]
 80072c4:	3301      	adds	r3, #1
 80072c6:	737b      	strb	r3, [r7, #13]
 80072c8:	7b7a      	ldrb	r2, [r7, #13]
 80072ca:	7a7b      	ldrb	r3, [r7, #9]
 80072cc:	429a      	cmp	r2, r3
 80072ce:	d391      	bcc.n	80071f4 <LCD_ShowChar+0x58>
 80072d0:	e002      	b.n	80072d8 <LCD_ShowChar+0x13c>
 80072d2:	bf00      	nop
 80072d4:	e000      	b.n	80072d8 <LCD_ShowChar+0x13c>
 80072d6:	bf00      	nop
 80072d8:	3714      	adds	r7, #20
 80072da:	46bd      	mov	sp, r7
 80072dc:	bd90      	pop	{r4, r7, pc}
 80072de:	bf00      	nop
 80072e0:	0800787c 	.word	0x0800787c
 80072e4:	08007cf0 	.word	0x08007cf0
 80072e8:	080082e0 	.word	0x080082e0
 80072ec:	20000028 	.word	0x20000028
 80072f0:	20000006 	.word	0x20000006
 80072f4:	20000030 	.word	0x20000030

080072f8 <LCD_ShowString>:
 80072f8:	b590      	push	{r4, r7, lr}
 80072fa:	b087      	sub	sp, #28
 80072fc:	af02      	add	r7, sp, #8
 80072fe:	4604      	mov	r4, r0
 8007300:	4608      	mov	r0, r1
 8007302:	4611      	mov	r1, r2
 8007304:	461a      	mov	r2, r3
 8007306:	4623      	mov	r3, r4
 8007308:	80fb      	strh	r3, [r7, #6]
 800730a:	4603      	mov	r3, r0
 800730c:	80bb      	strh	r3, [r7, #4]
 800730e:	460b      	mov	r3, r1
 8007310:	807b      	strh	r3, [r7, #2]
 8007312:	4613      	mov	r3, r2
 8007314:	803b      	strh	r3, [r7, #0]
 8007316:	88fb      	ldrh	r3, [r7, #6]
 8007318:	73fb      	strb	r3, [r7, #15]
 800731a:	887a      	ldrh	r2, [r7, #2]
 800731c:	88fb      	ldrh	r3, [r7, #6]
 800731e:	4413      	add	r3, r2
 8007320:	807b      	strh	r3, [r7, #2]
 8007322:	883a      	ldrh	r2, [r7, #0]
 8007324:	88bb      	ldrh	r3, [r7, #4]
 8007326:	4413      	add	r3, r2
 8007328:	803b      	strh	r3, [r7, #0]
 800732a:	e025      	b.n	8007378 <LCD_ShowString+0x80>
 800732c:	88fa      	ldrh	r2, [r7, #6]
 800732e:	887b      	ldrh	r3, [r7, #2]
 8007330:	429a      	cmp	r2, r3
 8007332:	d307      	bcc.n	8007344 <LCD_ShowString+0x4c>
 8007334:	7bfb      	ldrb	r3, [r7, #15]
 8007336:	80fb      	strh	r3, [r7, #6]
 8007338:	f897 3020 	ldrb.w	r3, [r7, #32]
 800733c:	b29a      	uxth	r2, r3
 800733e:	88bb      	ldrh	r3, [r7, #4]
 8007340:	4413      	add	r3, r2
 8007342:	80bb      	strh	r3, [r7, #4]
 8007344:	88ba      	ldrh	r2, [r7, #4]
 8007346:	883b      	ldrh	r3, [r7, #0]
 8007348:	429a      	cmp	r2, r3
 800734a:	d21e      	bcs.n	800738a <LCD_ShowString+0x92>
 800734c:	6a7b      	ldr	r3, [r7, #36]	; 0x24
 800734e:	781a      	ldrb	r2, [r3, #0]
 8007350:	f897 4020 	ldrb.w	r4, [r7, #32]
 8007354:	88b9      	ldrh	r1, [r7, #4]
 8007356:	88f8      	ldrh	r0, [r7, #6]
 8007358:	2300      	movs	r3, #0
 800735a:	9300      	str	r3, [sp, #0]
 800735c:	4623      	mov	r3, r4
 800735e:	f7ff ff1d 	bl	800719c <LCD_ShowChar>
 8007362:	f897 3020 	ldrb.w	r3, [r7, #32]
 8007366:	085b      	lsrs	r3, r3, #1
 8007368:	b2db      	uxtb	r3, r3
 800736a:	b29a      	uxth	r2, r3
 800736c:	88fb      	ldrh	r3, [r7, #6]
 800736e:	4413      	add	r3, r2
 8007370:	80fb      	strh	r3, [r7, #6]
 8007372:	6a7b      	ldr	r3, [r7, #36]	; 0x24
 8007374:	3301      	adds	r3, #1
 8007376:	627b      	str	r3, [r7, #36]	; 0x24
 8007378:	6a7b      	ldr	r3, [r7, #36]	; 0x24
 800737a:	781b      	ldrb	r3, [r3, #0]
 800737c:	2b7e      	cmp	r3, #126	; 0x7e
 800737e:	d805      	bhi.n	800738c <LCD_ShowString+0x94>
 8007380:	6a7b      	ldr	r3, [r7, #36]	; 0x24
 8007382:	781b      	ldrb	r3, [r3, #0]
 8007384:	2b1f      	cmp	r3, #31
 8007386:	d8d1      	bhi.n	800732c <LCD_ShowString+0x34>
 8007388:	e000      	b.n	800738c <LCD_ShowString+0x94>
 800738a:	bf00      	nop
 800738c:	bf00      	nop
 800738e:	3714      	adds	r7, #20
 8007390:	46bd      	mov	sp, r7
 8007392:	bd90      	pop	{r4, r7, pc}

08007394 <main>:
 8007394:	b580      	push	{r7, lr}
 8007396:	b084      	sub	sp, #16
 8007398:	af02      	add	r7, sp, #8
 800739a:	f7f9 fb33 	bl	8000a04 <HAL_Init>
 800739e:	f7fb fe33 	bl	8003008 <LCD_Init>
 80073a2:	f000 f903 	bl	80075ac <SystemClock_Config>
 80073a6:	f7fa fa65 	bl	8001874 <MX_GPIO_Init>
 80073aa:	2300      	movs	r3, #0
 80073ac:	71fb      	strb	r3, [r7, #7]
 80073ae:	f44f 7180 	mov.w	r1, #256	; 0x100
 80073b2:	4877      	ldr	r0, [pc, #476]	; (8007590 <main+0x1fc>)
 80073b4:	f7f9 fe22 	bl	8000ffc <HAL_GPIO_ReadPin>
 80073b8:	4603      	mov	r3, r0
 80073ba:	2b00      	cmp	r3, #0
 80073bc:	d10b      	bne.n	80073d6 <main+0x42>
 80073be:	2201      	movs	r2, #1
 80073c0:	f44f 7180 	mov.w	r1, #256	; 0x100
 80073c4:	4872      	ldr	r0, [pc, #456]	; (8007590 <main+0x1fc>)
 80073c6:	f7f9 fe30 	bl	800102a <HAL_GPIO_WritePin>
 80073ca:	2201      	movs	r2, #1
 80073cc:	2104      	movs	r1, #4
 80073ce:	4871      	ldr	r0, [pc, #452]	; (8007594 <main+0x200>)
 80073d0:	f7f9 fe2b 	bl	800102a <HAL_GPIO_WritePin>
 80073d4:	e00a      	b.n	80073ec <main+0x58>
 80073d6:	2200      	movs	r2, #0
 80073d8:	f44f 7180 	mov.w	r1, #256	; 0x100
 80073dc:	486c      	ldr	r0, [pc, #432]	; (8007590 <main+0x1fc>)
 80073de:	f7f9 fe24 	bl	800102a <HAL_GPIO_WritePin>
 80073e2:	2200      	movs	r2, #0
 80073e4:	2104      	movs	r1, #4
 80073e6:	486b      	ldr	r0, [pc, #428]	; (8007594 <main+0x200>)
 80073e8:	f7f9 fe1f 	bl	800102a <HAL_GPIO_WritePin>
 80073ec:	79fb      	ldrb	r3, [r7, #7]
 80073ee:	2b0b      	cmp	r3, #11
 80073f0:	f200 8084 	bhi.w	80074fc <main+0x168>
 80073f4:	a201      	add	r2, pc, #4	; (adr r2, 80073fc <main+0x68>)
 80073f6:	f852 f023 	ldr.w	pc, [r2, r3, lsl #2]
 80073fa:	bf00      	nop
 80073fc:	0800742d 	.word	0x0800742d
 8007400:	0800743f 	.word	0x0800743f
 8007404:	0800744d 	.word	0x0800744d
 8007408:	0800745b 	.word	0x0800745b
 800740c:	0800746d 	.word	0x0800746d
 8007410:	0800747f 	.word	0x0800747f
 8007414:	08007491 	.word	0x08007491
 8007418:	080074a3 	.word	0x080074a3
 800741c:	080074b5 	.word	0x080074b5
 8007420:	080074c7 	.word	0x080074c7
 8007424:	080074d9 	.word	0x080074d9
 8007428:	080074eb 	.word	0x080074eb
 800742c:	f64f 70ff 	movw	r0, #65535	; 0xffff
 8007430:	f7ff fd18 	bl	8006e64 <LCD_Clear>
 8007434:	4b58      	ldr	r3, [pc, #352]	; (8007598 <main+0x204>)
 8007436:	f64f 72ff 	movw	r2, #65535	; 0xffff
 800743a:	801a      	strh	r2, [r3, #0]
 800743c:	e05e      	b.n	80074fc <main+0x168>
 800743e:	2000      	movs	r0, #0
 8007440:	f7ff fd10 	bl	8006e64 <LCD_Clear>
 8007444:	4b54      	ldr	r3, [pc, #336]	; (8007598 <main+0x204>)
 8007446:	2200      	movs	r2, #0
 8007448:	801a      	strh	r2, [r3, #0]
 800744a:	e057      	b.n	80074fc <main+0x168>
 800744c:	201f      	movs	r0, #31
 800744e:	f7ff fd09 	bl	8006e64 <LCD_Clear>
 8007452:	4b51      	ldr	r3, [pc, #324]	; (8007598 <main+0x204>)
 8007454:	221f      	movs	r2, #31
 8007456:	801a      	strh	r2, [r3, #0]
 8007458:	e050      	b.n	80074fc <main+0x168>
 800745a:	f44f 4078 	mov.w	r0, #63488	; 0xf800
 800745e:	f7ff fd01 	bl	8006e64 <LCD_Clear>
 8007462:	4b4d      	ldr	r3, [pc, #308]	; (8007598 <main+0x204>)
 8007464:	f44f 4278 	mov.w	r2, #63488	; 0xf800
 8007468:	801a      	strh	r2, [r3, #0]
 800746a:	e047      	b.n	80074fc <main+0x168>
 800746c:	f64f 001f 	movw	r0, #63519	; 0xf81f
 8007470:	f7ff fcf8 	bl	8006e64 <LCD_Clear>
 8007474:	4b48      	ldr	r3, [pc, #288]	; (8007598 <main+0x204>)
 8007476:	f64f 021f 	movw	r2, #63519	; 0xf81f
 800747a:	801a      	strh	r2, [r3, #0]
 800747c:	e03e      	b.n	80074fc <main+0x168>
 800747e:	f44f 60fc 	mov.w	r0, #2016	; 0x7e0
 8007482:	f7ff fcef 	bl	8006e64 <LCD_Clear>
 8007486:	4b44      	ldr	r3, [pc, #272]	; (8007598 <main+0x204>)
 8007488:	f44f 62fc 	mov.w	r2, #2016	; 0x7e0
 800748c:	801a      	strh	r2, [r3, #0]
 800748e:	e035      	b.n	80074fc <main+0x168>
 8007490:	f647 70ff 	movw	r0, #32767	; 0x7fff
 8007494:	f7ff fce6 	bl	8006e64 <LCD_Clear>
 8007498:	4b3f      	ldr	r3, [pc, #252]	; (8007598 <main+0x204>)
 800749a:	f647 72ff 	movw	r2, #32767	; 0x7fff
 800749e:	801a      	strh	r2, [r3, #0]
 80074a0:	e02c      	b.n	80074fc <main+0x168>
 80074a2:	f64f 70e0 	movw	r0, #65504	; 0xffe0
 80074a6:	f7ff fcdd 	bl	8006e64 <LCD_Clear>
 80074aa:	4b3b      	ldr	r3, [pc, #236]	; (8007598 <main+0x204>)
 80074ac:	f64f 72e0 	movw	r2, #65504	; 0xffe0
 80074b0:	801a      	strh	r2, [r3, #0]
 80074b2:	e023      	b.n	80074fc <main+0x168>
 80074b4:	f64f 4007 	movw	r0, #64519	; 0xfc07
 80074b8:	f7ff fcd4 	bl	8006e64 <LCD_Clear>
 80074bc:	4b36      	ldr	r3, [pc, #216]	; (8007598 <main+0x204>)
 80074be:	f64f 4207 	movw	r2, #64519	; 0xfc07
 80074c2:	801a      	strh	r2, [r3, #0]
 80074c4:	e01a      	b.n	80074fc <main+0x168>
 80074c6:	f248 4030 	movw	r0, #33840	; 0x8430
 80074ca:	f7ff fccb 	bl	8006e64 <LCD_Clear>
 80074ce:	4b32      	ldr	r3, [pc, #200]	; (8007598 <main+0x204>)
 80074d0:	f248 4230 	movw	r2, #33840	; 0x8430
 80074d4:	801a      	strh	r2, [r3, #0]
 80074d6:	e011      	b.n	80074fc <main+0x168>
 80074d8:	f24c 6018 	movw	r0, #50712	; 0xc618
 80074dc:	f7ff fcc2 	bl	8006e64 <LCD_Clear>
 80074e0:	4b2d      	ldr	r3, [pc, #180]	; (8007598 <main+0x204>)
 80074e2:	f24c 6218 	movw	r2, #50712	; 0xc618
 80074e6:	801a      	strh	r2, [r3, #0]
 80074e8:	e008      	b.n	80074fc <main+0x168>
 80074ea:	f64b 4040 	movw	r0, #48192	; 0xbc40
 80074ee:	f7ff fcb9 	bl	8006e64 <LCD_Clear>
 80074f2:	4b29      	ldr	r3, [pc, #164]	; (8007598 <main+0x204>)
 80074f4:	f64b 4240 	movw	r2, #48192	; 0xbc40
 80074f8:	801a      	strh	r2, [r3, #0]
 80074fa:	bf00      	nop
 80074fc:	4b27      	ldr	r3, [pc, #156]	; (800759c <main+0x208>)
 80074fe:	f44f 4278 	mov.w	r2, #63488	; 0xf800
 8007502:	801a      	strh	r2, [r3, #0]
 8007504:	4b26      	ldr	r3, [pc, #152]	; (80075a0 <main+0x20c>)
 8007506:	9301      	str	r3, [sp, #4]
 8007508:	2318      	movs	r3, #24
 800750a:	9300      	str	r3, [sp, #0]
 800750c:	2318      	movs	r3, #24
 800750e:	22c8      	movs	r2, #200	; 0xc8
 8007510:	2128      	movs	r1, #40	; 0x28
 8007512:	201e      	movs	r0, #30
 8007514:	f7ff fef0 	bl	80072f8 <LCD_ShowString>
 8007518:	4b22      	ldr	r3, [pc, #136]	; (80075a4 <main+0x210>)
 800751a:	9301      	str	r3, [sp, #4]
 800751c:	2310      	movs	r3, #16
 800751e:	9300      	str	r3, [sp, #0]
 8007520:	2310      	movs	r3, #16
 8007522:	22c8      	movs	r2, #200	; 0xc8
 8007524:	2146      	movs	r1, #70	; 0x46
 8007526:	201e      	movs	r0, #30
 8007528:	f7ff fee6 	bl	80072f8 <LCD_ShowString>
 800752c:	2120      	movs	r1, #32
 800752e:	481e      	ldr	r0, [pc, #120]	; (80075a8 <main+0x214>)
 8007530:	f7f9 fd64 	bl	8000ffc <HAL_GPIO_ReadPin>
 8007534:	4603      	mov	r3, r0
 8007536:	2b01      	cmp	r3, #1
 8007538:	d10b      	bne.n	8007552 <main+0x1be>
 800753a:	f44f 707a 	mov.w	r0, #1000	; 0x3e8
 800753e:	f7f9 fac3 	bl	8000ac8 <HAL_Delay>
 8007542:	231f      	movs	r3, #31
 8007544:	9300      	str	r3, [sp, #0]
 8007546:	23bd      	movs	r3, #189	; 0xbd
 8007548:	22d1      	movs	r2, #209	; 0xd1
 800754a:	2197      	movs	r1, #151	; 0x97
 800754c:	2029      	movs	r0, #41	; 0x29
 800754e:	f7ff fceb 	bl	8006f28 <LCD_Fill>
 8007552:	4b12      	ldr	r3, [pc, #72]	; (800759c <main+0x208>)
 8007554:	2200      	movs	r2, #0
 8007556:	801a      	strh	r2, [r3, #0]
 8007558:	23be      	movs	r3, #190	; 0xbe
 800755a:	22d2      	movs	r2, #210	; 0xd2
 800755c:	2196      	movs	r1, #150	; 0x96
 800755e:	201e      	movs	r0, #30
 8007560:	f7ff fdf1 	bl	8007146 <LCD_DrawRectangle>
 8007564:	f64f 73e0 	movw	r3, #65504	; 0xffe0
 8007568:	9300      	str	r3, [sp, #0]
 800756a:	23bd      	movs	r3, #189	; 0xbd
 800756c:	22d1      	movs	r2, #209	; 0xd1
 800756e:	2197      	movs	r1, #151	; 0x97
 8007570:	201f      	movs	r0, #31
 8007572:	f7ff fcd9 	bl	8006f28 <LCD_Fill>
 8007576:	79fb      	ldrb	r3, [r7, #7]
 8007578:	3301      	adds	r3, #1
 800757a:	71fb      	strb	r3, [r7, #7]
 800757c:	79fb      	ldrb	r3, [r7, #7]
 800757e:	2b0c      	cmp	r3, #12
 8007580:	d101      	bne.n	8007586 <main+0x1f2>
 8007582:	2300      	movs	r3, #0
 8007584:	71fb      	strb	r3, [r7, #7]
 8007586:	f44f 60fa 	mov.w	r0, #2000	; 0x7d0
 800758a:	f7f9 fa9d 	bl	8000ac8 <HAL_Delay>
 800758e:	e70e      	b.n	80073ae <main+0x1a>
 8007590:	40010800 	.word	0x40010800
 8007594:	40011400 	.word	0x40011400
 8007598:	20000006 	.word	0x20000006
 800759c:	20000028 	.word	0x20000028
 80075a0:	08007864 	.word	0x08007864
 80075a4:	08007874 	.word	0x08007874
 80075a8:	40011000 	.word	0x40011000

080075ac <SystemClock_Config>:
 80075ac:	b580      	push	{r7, lr}
 80075ae:	b090      	sub	sp, #64	; 0x40
 80075b0:	af00      	add	r7, sp, #0
 80075b2:	f107 0318 	add.w	r3, r7, #24
 80075b6:	2228      	movs	r2, #40	; 0x28
 80075b8:	2100      	movs	r1, #0
 80075ba:	4618      	mov	r0, r3
 80075bc:	f000 f934 	bl	8007828 <memset>
 80075c0:	1d3b      	adds	r3, r7, #4
 80075c2:	2200      	movs	r2, #0
 80075c4:	601a      	str	r2, [r3, #0]
 80075c6:	605a      	str	r2, [r3, #4]
 80075c8:	609a      	str	r2, [r3, #8]
 80075ca:	60da      	str	r2, [r3, #12]
 80075cc:	611a      	str	r2, [r3, #16]
 80075ce:	2301      	movs	r3, #1
 80075d0:	61bb      	str	r3, [r7, #24]
 80075d2:	f44f 3380 	mov.w	r3, #65536	; 0x10000
 80075d6:	61fb      	str	r3, [r7, #28]
 80075d8:	2300      	movs	r3, #0
 80075da:	623b      	str	r3, [r7, #32]
 80075dc:	2301      	movs	r3, #1
 80075de:	62bb      	str	r3, [r7, #40]	; 0x28
 80075e0:	2302      	movs	r3, #2
 80075e2:	637b      	str	r3, [r7, #52]	; 0x34
 80075e4:	f44f 3380 	mov.w	r3, #65536	; 0x10000
 80075e8:	63bb      	str	r3, [r7, #56]	; 0x38
 80075ea:	f44f 13e0 	mov.w	r3, #1835008	; 0x1c0000
 80075ee:	63fb      	str	r3, [r7, #60]	; 0x3c
 80075f0:	f107 0318 	add.w	r3, r7, #24
 80075f4:	4618      	mov	r0, r3
 80075f6:	f7f9 fd53 	bl	80010a0 <HAL_RCC_OscConfig>
 80075fa:	4603      	mov	r3, r0
 80075fc:	2b00      	cmp	r3, #0
 80075fe:	d001      	beq.n	8007604 <SystemClock_Config+0x58>
 8007600:	f000 f819 	bl	8007636 <Error_Handler>
 8007604:	230f      	movs	r3, #15
 8007606:	607b      	str	r3, [r7, #4]
 8007608:	2302      	movs	r3, #2
 800760a:	60bb      	str	r3, [r7, #8]
 800760c:	2300      	movs	r3, #0
 800760e:	60fb      	str	r3, [r7, #12]
 8007610:	f44f 6380 	mov.w	r3, #1024	; 0x400
 8007614:	613b      	str	r3, [r7, #16]
 8007616:	2300      	movs	r3, #0
 8007618:	617b      	str	r3, [r7, #20]
 800761a:	1d3b      	adds	r3, r7, #4
 800761c:	2102      	movs	r1, #2
 800761e:	4618      	mov	r0, r3
 8007620:	f7f9 ffbe 	bl	80015a0 <HAL_RCC_ClockConfig>
 8007624:	4603      	mov	r3, r0
 8007626:	2b00      	cmp	r3, #0
 8007628:	d001      	beq.n	800762e <SystemClock_Config+0x82>
 800762a:	f000 f804 	bl	8007636 <Error_Handler>
 800762e:	bf00      	nop
 8007630:	3740      	adds	r7, #64	; 0x40
 8007632:	46bd      	mov	sp, r7
 8007634:	bd80      	pop	{r7, pc}

08007636 <Error_Handler>:
 8007636:	b480      	push	{r7}
 8007638:	af00      	add	r7, sp, #0
 800763a:	bf00      	nop
 800763c:	46bd      	mov	sp, r7
 800763e:	bc80      	pop	{r7}
 8007640:	4770      	bx	lr
	...

08007644 <HAL_MspInit>:
 8007644:	b580      	push	{r7, lr}
 8007646:	b084      	sub	sp, #16
 8007648:	af00      	add	r7, sp, #0
 800764a:	4b16      	ldr	r3, [pc, #88]	; (80076a4 <HAL_MspInit+0x60>)
 800764c:	699b      	ldr	r3, [r3, #24]
 800764e:	4a15      	ldr	r2, [pc, #84]	; (80076a4 <HAL_MspInit+0x60>)
 8007650:	f043 0301 	orr.w	r3, r3, #1
 8007654:	6193      	str	r3, [r2, #24]
 8007656:	4b13      	ldr	r3, [pc, #76]	; (80076a4 <HAL_MspInit+0x60>)
 8007658:	699b      	ldr	r3, [r3, #24]
 800765a:	f003 0301 	and.w	r3, r3, #1
 800765e:	60bb      	str	r3, [r7, #8]
 8007660:	68bb      	ldr	r3, [r7, #8]
 8007662:	4b10      	ldr	r3, [pc, #64]	; (80076a4 <HAL_MspInit+0x60>)
 8007664:	69db      	ldr	r3, [r3, #28]
 8007666:	4a0f      	ldr	r2, [pc, #60]	; (80076a4 <HAL_MspInit+0x60>)
 8007668:	f043 5380 	orr.w	r3, r3, #268435456	; 0x10000000
 800766c:	61d3      	str	r3, [r2, #28]
 800766e:	4b0d      	ldr	r3, [pc, #52]	; (80076a4 <HAL_MspInit+0x60>)
 8007670:	69db      	ldr	r3, [r3, #28]
 8007672:	f003 5380 	and.w	r3, r3, #268435456	; 0x10000000
 8007676:	607b      	str	r3, [r7, #4]
 8007678:	687b      	ldr	r3, [r7, #4]
 800767a:	2005      	movs	r0, #5
 800767c:	f7f9 fb12 	bl	8000ca4 <HAL_NVIC_SetPriorityGrouping>
 8007680:	4b09      	ldr	r3, [pc, #36]	; (80076a8 <HAL_MspInit+0x64>)
 8007682:	685b      	ldr	r3, [r3, #4]
 8007684:	60fb      	str	r3, [r7, #12]
 8007686:	68fb      	ldr	r3, [r7, #12]
 8007688:	f023 63e0 	bic.w	r3, r3, #117440512	; 0x7000000
 800768c:	60fb      	str	r3, [r7, #12]
 800768e:	68fb      	ldr	r3, [r7, #12]
 8007690:	f043 7300 	orr.w	r3, r3, #33554432	; 0x2000000
 8007694:	60fb      	str	r3, [r7, #12]
 8007696:	4a04      	ldr	r2, [pc, #16]	; (80076a8 <HAL_MspInit+0x64>)
 8007698:	68fb      	ldr	r3, [r7, #12]
 800769a:	6053      	str	r3, [r2, #4]
 800769c:	bf00      	nop
 800769e:	3710      	adds	r7, #16
 80076a0:	46bd      	mov	sp, r7
 80076a2:	bd80      	pop	{r7, pc}
 80076a4:	40021000 	.word	0x40021000
 80076a8:	40010000 	.word	0x40010000

080076ac <NMI_Handler>:
 80076ac:	b480      	push	{r7}
 80076ae:	af00      	add	r7, sp, #0
 80076b0:	bf00      	nop
 80076b2:	46bd      	mov	sp, r7
 80076b4:	bc80      	pop	{r7}
 80076b6:	4770      	bx	lr

080076b8 <HardFault_Handler>:
 80076b8:	b480      	push	{r7}
 80076ba:	af00      	add	r7, sp, #0
 80076bc:	e7fe      	b.n	80076bc <HardFault_Handler+0x4>

080076be <MemManage_Handler>:
 80076be:	b480      	push	{r7}
 80076c0:	af00      	add	r7, sp, #0
 80076c2:	e7fe      	b.n	80076c2 <MemManage_Handler+0x4>

080076c4 <BusFault_Handler>:
 80076c4:	b480      	push	{r7}
 80076c6:	af00      	add	r7, sp, #0
 80076c8:	e7fe      	b.n	80076c8 <BusFault_Handler+0x4>

080076ca <UsageFault_Handler>:
 80076ca:	b480      	push	{r7}
 80076cc:	af00      	add	r7, sp, #0
 80076ce:	e7fe      	b.n	80076ce <UsageFault_Handler+0x4>

080076d0 <SVC_Handler>:
 80076d0:	b480      	push	{r7}
 80076d2:	af00      	add	r7, sp, #0
 80076d4:	bf00      	nop
 80076d6:	46bd      	mov	sp, r7
 80076d8:	bc80      	pop	{r7}
 80076da:	4770      	bx	lr

080076dc <DebugMon_Handler>:
 80076dc:	b480      	push	{r7}
 80076de:	af00      	add	r7, sp, #0
 80076e0:	bf00      	nop
 80076e2:	46bd      	mov	sp, r7
 80076e4:	bc80      	pop	{r7}
 80076e6:	4770      	bx	lr

080076e8 <PendSV_Handler>:
 80076e8:	b480      	push	{r7}
 80076ea:	af00      	add	r7, sp, #0
 80076ec:	bf00      	nop
 80076ee:	46bd      	mov	sp, r7
 80076f0:	bc80      	pop	{r7}
 80076f2:	4770      	bx	lr

080076f4 <SysTick_Handler>:
 80076f4:	b580      	push	{r7, lr}
 80076f6:	af00      	add	r7, sp, #0
 80076f8:	f7f9 f9ca 	bl	8000a90 <HAL_IncTick>
 80076fc:	bf00      	nop
 80076fe:	bd80      	pop	{r7, pc}

08007700 <EXTI0_IRQHandler>:
 8007700:	b580      	push	{r7, lr}
 8007702:	af00      	add	r7, sp, #0
 8007704:	2001      	movs	r0, #1
 8007706:	f7f9 fca9 	bl	800105c <HAL_GPIO_EXTI_IRQHandler>
 800770a:	bf00      	nop
 800770c:	bd80      	pop	{r7, pc}

0800770e <EXTI9_5_IRQHandler>:
 800770e:	b580      	push	{r7, lr}
 8007710:	af00      	add	r7, sp, #0
 8007712:	2020      	movs	r0, #32
 8007714:	f7f9 fca2 	bl	800105c <HAL_GPIO_EXTI_IRQHandler>
 8007718:	bf00      	nop
 800771a:	bd80      	pop	{r7, pc}

0800771c <EXTI15_10_IRQHandler>:
 800771c:	b580      	push	{r7, lr}
 800771e:	af00      	add	r7, sp, #0
 8007720:	f44f 4000 	mov.w	r0, #32768	; 0x8000
 8007724:	f7f9 fc9a 	bl	800105c <HAL_GPIO_EXTI_IRQHandler>
 8007728:	bf00      	nop
 800772a:	bd80      	pop	{r7, pc}

0800772c <SystemInit>:
 800772c:	b480      	push	{r7}
 800772e:	af00      	add	r7, sp, #0
 8007730:	4b15      	ldr	r3, [pc, #84]	; (8007788 <SystemInit+0x5c>)
 8007732:	681b      	ldr	r3, [r3, #0]
 8007734:	4a14      	ldr	r2, [pc, #80]	; (8007788 <SystemInit+0x5c>)
 8007736:	f043 0301 	orr.w	r3, r3, #1
 800773a:	6013      	str	r3, [r2, #0]
 800773c:	4b12      	ldr	r3, [pc, #72]	; (8007788 <SystemInit+0x5c>)
 800773e:	685a      	ldr	r2, [r3, #4]
 8007740:	4911      	ldr	r1, [pc, #68]	; (8007788 <SystemInit+0x5c>)
 8007742:	4b12      	ldr	r3, [pc, #72]	; (800778c <SystemInit+0x60>)
 8007744:	4013      	ands	r3, r2
 8007746:	604b      	str	r3, [r1, #4]
 8007748:	4b0f      	ldr	r3, [pc, #60]	; (8007788 <SystemInit+0x5c>)
 800774a:	681b      	ldr	r3, [r3, #0]
 800774c:	4a0e      	ldr	r2, [pc, #56]	; (8007788 <SystemInit+0x5c>)
 800774e:	f023 7384 	bic.w	r3, r3, #17301504	; 0x1080000
 8007752:	f423 3380 	bic.w	r3, r3, #65536	; 0x10000
 8007756:	6013      	str	r3, [r2, #0]
 8007758:	4b0b      	ldr	r3, [pc, #44]	; (8007788 <SystemInit+0x5c>)
 800775a:	681b      	ldr	r3, [r3, #0]
 800775c:	4a0a      	ldr	r2, [pc, #40]	; (8007788 <SystemInit+0x5c>)
 800775e:	f423 2380 	bic.w	r3, r3, #262144	; 0x40000
 8007762:	6013      	str	r3, [r2, #0]
 8007764:	4b08      	ldr	r3, [pc, #32]	; (8007788 <SystemInit+0x5c>)
 8007766:	685b      	ldr	r3, [r3, #4]
 8007768:	4a07      	ldr	r2, [pc, #28]	; (8007788 <SystemInit+0x5c>)
 800776a:	f423 03fe 	bic.w	r3, r3, #8323072	; 0x7f0000
 800776e:	6053      	str	r3, [r2, #4]
 8007770:	4b05      	ldr	r3, [pc, #20]	; (8007788 <SystemInit+0x5c>)
 8007772:	f44f 021f 	mov.w	r2, #10420224	; 0x9f0000
 8007776:	609a      	str	r2, [r3, #8]
 8007778:	4b05      	ldr	r3, [pc, #20]	; (8007790 <SystemInit+0x64>)
 800777a:	f04f 6200 	mov.w	r2, #134217728	; 0x8000000
 800777e:	609a      	str	r2, [r3, #8]
 8007780:	bf00      	nop
 8007782:	46bd      	mov	sp, r7
 8007784:	bc80      	pop	{r7}
 8007786:	4770      	bx	lr
 8007788:	40021000 	.word	0x40021000
 800778c:	f8ff0000 	.word	0xf8ff0000
 8007790:	e000ed00 	.word	0xe000ed00

08007794 <Reset_Handler>:
 8007794:	2100      	movs	r1, #0
 8007796:	e003      	b.n	80077a0 <LoopCopyDataInit>

08007798 <CopyDataInit>:
 8007798:	4b0b      	ldr	r3, [pc, #44]	; (80077c8 <LoopFillZerobss+0x14>)
 800779a:	585b      	ldr	r3, [r3, r1]
 800779c:	5043      	str	r3, [r0, r1]
 800779e:	3104      	adds	r1, #4

080077a0 <LoopCopyDataInit>:
 80077a0:	480a      	ldr	r0, [pc, #40]	; (80077cc <LoopFillZerobss+0x18>)
 80077a2:	4b0b      	ldr	r3, [pc, #44]	; (80077d0 <LoopFillZerobss+0x1c>)
 80077a4:	1842      	adds	r2, r0, r1
 80077a6:	429a      	cmp	r2, r3
 80077a8:	d3f6      	bcc.n	8007798 <CopyDataInit>
 80077aa:	4a0a      	ldr	r2, [pc, #40]	; (80077d4 <LoopFillZerobss+0x20>)
 80077ac:	e002      	b.n	80077b4 <LoopFillZerobss>

080077ae <FillZerobss>:
 80077ae:	2300      	movs	r3, #0
 80077b0:	f842 3b04 	str.w	r3, [r2], #4

080077b4 <LoopFillZerobss>:
 80077b4:	4b08      	ldr	r3, [pc, #32]	; (80077d8 <LoopFillZerobss+0x24>)
 80077b6:	429a      	cmp	r2, r3
 80077b8:	d3f9      	bcc.n	80077ae <FillZerobss>
 80077ba:	f7ff ffb7 	bl	800772c <SystemInit>
 80077be:	f000 f80f 	bl	80077e0 <__libc_init_array>
 80077c2:	f7ff fde7 	bl	8007394 <main>
 80077c6:	4770      	bx	lr
 80077c8:	08009054 	.word	0x08009054
 80077cc:	20000000 	.word	0x20000000
 80077d0:	2000000c 	.word	0x2000000c
 80077d4:	2000000c 	.word	0x2000000c
 80077d8:	20000040 	.word	0x20000040

080077dc <ADC1_2_IRQHandler>:
 80077dc:	e7fe      	b.n	80077dc <ADC1_2_IRQHandler>
	...

080077e0 <__libc_init_array>:
 80077e0:	b570      	push	{r4, r5, r6, lr}
 80077e2:	2500      	movs	r5, #0
 80077e4:	4e0c      	ldr	r6, [pc, #48]	; (8007818 <__libc_init_array+0x38>)
 80077e6:	4c0d      	ldr	r4, [pc, #52]	; (800781c <__libc_init_array+0x3c>)
 80077e8:	1ba4      	subs	r4, r4, r6
 80077ea:	10a4      	asrs	r4, r4, #2
 80077ec:	42a5      	cmp	r5, r4
 80077ee:	d109      	bne.n	8007804 <__libc_init_array+0x24>
 80077f0:	f000 f822 	bl	8007838 <_init>
 80077f4:	2500      	movs	r5, #0
 80077f6:	4e0a      	ldr	r6, [pc, #40]	; (8007820 <__libc_init_array+0x40>)
 80077f8:	4c0a      	ldr	r4, [pc, #40]	; (8007824 <__libc_init_array+0x44>)
 80077fa:	1ba4      	subs	r4, r4, r6
 80077fc:	10a4      	asrs	r4, r4, #2
 80077fe:	42a5      	cmp	r5, r4
 8007800:	d105      	bne.n	800780e <__libc_init_array+0x2e>
 8007802:	bd70      	pop	{r4, r5, r6, pc}
 8007804:	f856 3025 	ldr.w	r3, [r6, r5, lsl #2]
 8007808:	4798      	blx	r3
 800780a:	3501      	adds	r5, #1
 800780c:	e7ee      	b.n	80077ec <__libc_init_array+0xc>
 800780e:	f856 3025 	ldr.w	r3, [r6, r5, lsl #2]
 8007812:	4798      	blx	r3
 8007814:	3501      	adds	r5, #1
 8007816:	e7f2      	b.n	80077fe <__libc_init_array+0x1e>
 8007818:	0800904c 	.word	0x0800904c
 800781c:	0800904c 	.word	0x0800904c
 8007820:	0800904c 	.word	0x0800904c
 8007824:	08009050 	.word	0x08009050

08007828 <memset>:
 8007828:	4603      	mov	r3, r0
 800782a:	4402      	add	r2, r0
 800782c:	4293      	cmp	r3, r2
 800782e:	d100      	bne.n	8007832 <memset+0xa>
 8007830:	4770      	bx	lr
 8007832:	f803 1b01 	strb.w	r1, [r3], #1
 8007836:	e7f9      	b.n	800782c <memset+0x4>

08007838 <_init>:
 8007838:	b5f8      	push	{r3, r4, r5, r6, r7, lr}
 800783a:	bf00      	nop
 800783c:	bcf8      	pop	{r3, r4, r5, r6, r7}
 800783e:	bc08      	pop	{r3}
 8007840:	469e      	mov	lr, r3
 8007842:	4770      	bx	lr

08007844 <_fini>:
 8007844:	b5f8      	push	{r3, r4, r5, r6, r7, lr}
 8007846:	bf00      	nop
 8007848:	bcf8      	pop	{r3, r4, r5, r6, r7}
 800784a:	bc08      	pop	{r3}
 800784c:	469e      	mov	lr, r3
 800784e:	4770      	bx	lr
